(dp0
Va
p1
Vaaaaa
p2
sVaa
p3
Vaaaaa
p4
sVc
p5
Vccccc
p6
sVlje21c
p7
V11111
p8
sVcc
p9
Vccccc
p10
sVdd
p11
Vddddd
p12
sVm
p13
Vmmmmm
p14
sVAntoine
p15
Vrem4ever
p16
sVmisu
p17
Vmisumisu
p18
sVk
p19
Vkkkkk
p20
s.