(dp0
S'I:dp'
p1
(dp2
S'I:bn:x,I:dp:o,I:dp:x'
p3
F0.01
sS'I:dp:x'
p4
F0.34000000000000002
sS'I:ap:o,I:dp:x'
p5
F0.0050000000000000001
sS'I:bn:x,I:dp:o'
p6
F0.0050000000000000001
sS'I:bn:x,I:bn:x,I:dp:x'
p7
F0.0050000000000000001
sS'I:dp:o,I:dp:x'
p8
F0.035000000000000003
sS'I:ap:o'
p9
F0.0050000000000000001
sS'I:bn:x'
p10
F0.080000000000000002
sS'I:ap:x'
p11
F0.0050000000000000001
sS'I:bn:x,I:dp:x,I:dp:x,I:tt:o'
p12
F0.0050000000000000001
sS'I:bn:x,I:dp:x'
p13
F0.035000000000000003
sS'non-understanding'
p14
F0.17999999999999999
sS'I:dp:o'
p15
F0.23999999999999999
sS'I:ap:o,I:ap:x,I:bn:x,I:dp:x'
p16
F0.0050000000000000001
sS'I:dp:x,I:dp:x'
p17
F0.040000000000000001
sS'I:dp:o,I:dp:x,I:dp:x'
p18
F0.0050000000000000001
ssS'I:ap,I:dp,I:tt'
p19
(dp20
g4
F1.0
ssS'I:ap,I:bn,I:dp,I:tt'
p21
(dp22
S'I:bn:o,I:dp:x,I:tt:x'
p23
F1.0
ssS'no'
p24
(dp25
S'I:tt:x'
p26
F0.01643835616438356
sg10
F0.024657534246575342
sS'I:ap:o,I:dp:o'
p27
F0.0027397260273972603
sS'I:tt:o'
p28
F0.00821917808219178
sS'I:bn:x,yes'
p29
F0.0027397260273972603
sS'yes'
p30
F0.0054794520547945206
sS'I:bn:o'
p31
F0.010958904109589041
sS'I:bn:o,no'
p32
F0.0054794520547945206
sS'I:ap:x,I:ap:x'
p33
F0.0027397260273972603
sS'I:bn:x,I:dp:o'
p34
F0.0027397260273972603
sS'I:dp:o,I:dp:x'
p35
F0.0054794520547945206
sS'no'
p36
F0.55068493150684927
sg15
F0.035616438356164383
sS'I:dp:x,no'
p37
F0.00821917808219178
sS'I:dp:x,I:tt:o'
p38
F0.0027397260273972603
sS'I:bn:x,I:dp:x'
p39
F0.010958904109589041
sg11
F0.019178082191780823
sS'I:ap:x,I:dp:x,I:dp:x,I:dp:x,I:tt:o'
p40
F0.0027397260273972603
sS'I:dp:x,yes'
p41
F0.0027397260273972603
sg4
F0.071232876712328766
sS'I:ap:x,I:dp:x'
p42
F0.00821917808219178
sg9
F0.013698630136986301
sS'I:bn:x,I:dp:x,I:dp:x'
p43
F0.00821917808219178
sS'I:ap:x,I:dp:x,I:dp:x'
p44
F0.0027397260273972603
sS'I:dp:o,yes'
p45
F0.0027397260273972603
sS'I:bn:x,no'
p46
F0.0054794520547945206
sS'I:dp:x,I:dp:x,no'
p47
F0.0027397260273972603
sS'non-understanding'
p48
F0.15890410958904111
sS'I:dp:x,I:dp:x'
p49
F0.0054794520547945206
ssS'I:bn'
p50
(dp51
g4
F0.04878048780487805
sS'I:bn:o,I:dp:x,I:tt:x'
p52
F0.024390243902439025
sg10
F0.46341463414634149
sS'I:bn:x,I:dp:x,I:tt:x'
p53
F0.024390243902439025
sg31
F0.097560975609756101
sS'I:bn:x,I:dp:x'
p54
F0.12195121951219512
sS'non-understanding'
p55
F0.14634146341463414
sS'I:ap:o,I:dp:o,I:dp:x'
p56
F0.024390243902439025
sS'I:bn:o,I:tt:x'
p57
F0.024390243902439025
sS'I:ap:x,I:bn:x,I:dp:x'
p58
F0.024390243902439025
ssS'I:bn,I:tt'
p59
(dp60
S'I:bn:x,I:dp:x,I:tt:o'
p61
F0.5
sS'I:bn:o,I:dp:x,I:dp:x,I:tt:x'
p62
F0.5
ssS'I:ap'
p63
(dp64
g9
F0.29533678756476683
sS'I:ap:x,I:ap:x'
p65
F0.025906735751295335
sS'I:ap:x,I:ap:x,I:ap:x'
p66
F0.0051813471502590676
sS'I:ap:o,I:ap:x'
p67
F0.046632124352331605
sg48
F0.20207253886010362
sg11
F0.42487046632124353
ssS'I:tt'
p68
(dp69
g26
F0.19117647058823528
sS'I:dp:o,I:dp:x'
p70
F0.014705882352941176
sS'no'
p71
F0.0073529411764705881
sS'I:tt:o,I:tt:o'
p72
F0.0073529411764705881
sg28
F0.48529411764705882
sg48
F0.27941176470588236
sg11
F0.0073529411764705881
sS'yes'
p73
F0.0073529411764705881
ssS'yes'
p74
(dp75
S'I:dp:x,yes'
p76
F0.0027932960893854749
sg4
F0.027932960893854747
sS'I:ap:x,I:ap:x'
p77
F0.0027932960893854749
sS'I:dp:o,I:dp:x,yes'
p78
F0.0027932960893854749
sS'I:bn:x,I:dp:o'
p79
F0.0027932960893854749
sg15
F0.013966480446927373
sS'I:dp:o,I:dp:x'
p80
F0.0055865921787709499
sS'no'
p81
F0.039106145251396648
sS'I:ap:x,I:dp:x'
p82
F0.0027932960893854749
sg10
F0.0027932960893854749
sg9
F0.0111731843575419
sg11
F0.030726256983240222
sS'I:bn:x,I:dp:x,no'
p83
F0.0027932960893854749
sS'non-understanding'
p84
F0.094972067039106142
sS'I:dp:x,I:dp:x,yes'
p85
F0.0027932960893854749
sS'I:ap:x,yes'
p86
F0.0027932960893854749
sS'yes'
p87
F0.73743016759776536
sS'I:dp:x,I:dp:x'
p88
F0.0027932960893854749
sg26
F0.0111731843575419
ssS'I:bn,I:dp,I:tt'
p89
(dp90
g10
F0.2857142857142857
sS'I:bn:x,I:dp:x'
p91
F0.2857142857142857
sg14
F0.14285714285714285
sS'I:bn:o,I:dp:x'
p92
F0.14285714285714285
sg4
F0.14285714285714285
ssS'non-understanding'
p93
(dp94
g48
F0.99557522123893805
sg11
F0.0044247787610619468
ss.