(dp0
S'I:dp'
p1
(dp2
S'I:dp:x'
p3
F0.27791563275434245
sS'I:bn:x,I:dp:o'
p4
F0.012406947890818859
sS'I:ap:x,I:dp:x'
p5
F0.0024813895781637717
sS'I:dp:o,I:dp:x'
p6
F0.02729528535980149
sS'I:ap:o,I:tt:x'
p7
F0.0024813895781637717
sS'I:bn:x'
p8
F0.10173697270471464
sS'I:ap:x'
p9
F0.0049627791563275434
sS'I:tt:x'
p10
F0.0024813895781637717
sS'I:ap:o,I:bn:x,I:dp:x'
p11
F0.0024813895781637717
sS'I:bn:x,I:bn:x,I:dp:x'
p12
F0.0024813895781637717
sS'I:tt:o'
p13
F0.0024813895781637717
sS'I:bn:x,I:dp:x'
p14
F0.037220843672456573
sS'non-understanding'
p15
F0.17121588089330025
sS'I:dp:o'
p16
F0.31513647642679898
sS'I:bn:x,I:dp:x,I:dp:x'
p17
F0.0024813895781637717
sS'I:bn:x,I:dp:x,I:tt:o'
p18
F0.0024813895781637717
sS'I:dp:x,I:dp:x'
p19
F0.017369727047146403
sS'I:dp:x,I:tt:x'
p20
F0.0024813895781637717
sS'I:bn:x,I:dp:x,I:dp:x,I:dp:x,I:tt:x'
p21
F0.0024813895781637717
sS'I:ap:x,I:bn:x,I:dp:x'
p22
F0.0024813895781637717
sS'I:bn:x,I:tt:x'
p23
F0.0074441687344913151
ssS'no'
p24
(dp25
g10
F0.010619469026548672
sS'I:dp:o,no'
p26
F0.0088495575221238937
sS'I:ap:o,no'
p27
F0.0035398230088495575
sS'I:ap:o,I:dp:o'
p28
F0.0017699115044247787
sg13
F0.0053097345132743362
sS'yes'
p29
F0.0035398230088495575
sS'I:bn:o'
p30
F0.0035398230088495575
sS'I:bn:o,no'
p31
F0.0017699115044247787
sS'I:ap:o'
p32
F0.0070796460176991149
sS'no'
p33
F0.63362831858407076
sS'I:dp:x,no'
p34
F0.0017699115044247787
sS'I:dp:x,I:tt:o'
p35
F0.0017699115044247787
sS'I:bn:x,I:dp:x'
p36
F0.0035398230088495575
sS'I:ap:x,I:ap:x,I:ap:x,no'
p37
F0.0017699115044247787
sg9
F0.019469026548672566
sg8
F0.030088495575221239
sg3
F0.035398230088495575
sS'I:bn:x,I:bn:x,I:dp:x'
p38
F0.0017699115044247787
sS'I:ap:x,I:ap:x'
p39
F0.0017699115044247787
sS'I:bn:x,I:dp:x,no'
p40
F0.0017699115044247787
sg16
F0.024778761061946902
sS'I:bn:x,I:bn:x'
p41
F0.0017699115044247787
sS'I:bn:x,no'
p42
F0.0035398230088495575
sS'I:ap:o,I:ap:x,I:ap:x'
p43
F0.0017699115044247787
sS'I:ap:x,no'
p44
F0.0053097345132743362
sS'I:ap:o,I:bn:x,I:dp:x'
p45
F0.0017699115044247787
sS'I:dp:x,I:dp:x,no'
p46
F0.0035398230088495575
sS'non-understanding'
p47
F0.17522123893805311
sS'I:dp:x,I:dp:x'
p48
F0.0035398230088495575
ssS'I:bn'
p49
(dp50
g3
F0.021276595744680851
sg8
F0.51063829787234039
sS'I:bn:o,I:tt:o'
p51
F0.021276595744680851
sg30
F0.23404255319148937
sS'I:bn:x,I:dp:x'
p52
F0.085106382978723402
sS'non-understanding'
p53
F0.063829787234042548
sS'I:bn:o,I:dp:x,I:dp:x,I:tt:o'
p54
F0.021276595744680851
sS'I:bn:o,I:dp:x'
p55
F0.042553191489361701
ssS'I:bn,I:tt'
p56
(dp57
g8
F0.5
sg30
F0.25
sg3
F0.25
ssS'I:bn,I:dp,I:tt'
p58
(dp59
g3
F0.25
sS'I:bn:x,I:dp:x'
p60
F0.25
sg16
F0.125
sg8
F0.375
ssS'I:ap'
p61
(dp62
g32
F0.37158469945355194
sS'I:ap:x,I:ap:x'
p63
F0.016393442622950821
sS'I:ap:o,I:ap:x,I:ap:x'
p64
F0.0027322404371584699
sS'no'
p65
F0.0027322404371584699
sS'I:ap:o,I:ap:x'
p66
F0.051912568306010931
sS'non-understanding'
p67
F0.19945355191256831
sg9
F0.35245901639344263
sS'yes'
p68
F0.0027322404371584699
ssS'non-understanding'
p69
(dp70
g47
F0.99734748010610075
sS'no'
p71
F0.0026525198938992041
ssS'I:ap,I:dp,I:tt'
p72
(dp73
g8
F0.33333333333333331
sg47
F0.33333333333333331
sg16
F0.33333333333333331
ssS'yes'
p74
(dp75
S'I:ap:o,yes'
p76
F0.0015128593040847202
sg32
F0.0075642965204236008
sS'I:tt:x,no'
p77
F0.0015128593040847202
sg3
F0.037821482602118005
sg16
F0.0030257186081694403
sg8
F0.0075642965204236008
sS'no'
p78
F0.034795763993948563
sS'I:ap:o,I:bn:x'
p79
F0.0015128593040847202
sg13
F0.0030257186081694403
sS'I:bn:x,I:dp:x'
p80
F0.0015128593040847202
sS'non-understanding'
p81
F0.099848714069591532
sg9
F0.022692889561270801
sS'I:bn:o,yes'
p82
F0.0030257186081694403
sS'yes'
p83
F0.77004538577912252
sS'I:dp:x,I:dp:x'
p84
F0.0015128593040847202
sg30
F0.0015128593040847202
sg10
F0.0015128593040847202
ssS'I:tt'
p85
(dp86
g32
F0.0065789473684210523
sg10
F0.23355263157894737
sg16
F0.0032894736842105261
sg13
F0.52960526315789469
sg47
F0.20065789473684212
sg9
F0.0098684210526315784
sS'I:bn:x,I:tt:x,I:tt:x'
p87
F0.0032894736842105261
sS'yes'
p88
F0.013157894736842105
ss.