(dp0
S'I:dp'
p1
(dp2
S'I:dp:x'
p3
F0.23728813559322035
sS'I:ap:o,I:ap:x,I:bn:x,I:dp:x'
p4
F0.016949152542372881
sS'I:dp:o,I:dp:x,I:dp:x'
p5
F0.016949152542372881
sS'I:ap:x,I:dp:x'
p6
F0.016949152542372881
sS'I:bn:x'
p7
F0.084745762711864403
sS'I:bn:x,I:dp:x,I:dp:x,I:tt:o'
p8
F0.016949152542372881
sS'I:bn:x,I:dp:x'
p9
F0.050847457627118647
sS'non-understanding'
p10
F0.23728813559322035
sS'I:dp:o'
p11
F0.30508474576271188
sS'I:dp:x,I:dp:x'
p12
F0.016949152542372881
ssS'I:ap,I:dp,I:tt'
p13
(dp14
g3
F1.0
ssS'no'
p15
(dp16
S'I:dp:x,yes'
p17
F0.0090909090909090905
sg3
F0.06363636363636363
sS'I:ap:x'
p18
F0.018181818181818181
sS'I:ap:x,I:dp:x'
p19
F0.0090909090909090905
sS'no'
p20
F0.61818181818181817
sS'I:bn:x,I:dp:x'
p21
F0.018181818181818181
sg7
F0.027272727272727271
sS'I:dp:x,I:tt:o'
p22
F0.0090909090909090905
sS'I:tt:o'
p23
F0.0090909090909090905
sS'I:dp:x,I:dp:x,no'
p24
F0.0090909090909090905
sS'non-understanding'
p25
F0.12727272727272726
sg11
F0.045454545454545456
sS'I:dp:x,I:dp:x'
p26
F0.0090909090909090905
sS'I:ap:x,I:dp:x,I:dp:x,I:dp:x,I:tt:o'
p27
F0.0090909090909090905
sS'I:tt:x'
p28
F0.018181818181818181
ssS'I:bn'
p29
(dp30
g7
F0.75
sS'non-understanding'
p31
F0.25
ssS'I:ap'
p32
(dp33
S'I:ap:o,I:ap:x'
p34
F0.054794520547945202
sS'I:ap:o'
p35
F0.27397260273972601
sS'non-understanding'
p36
F0.12328767123287671
sg18
F0.50684931506849318
sS'I:ap:x,I:ap:x'
p37
F0.041095890410958902
ssS'I:tt'
p38
(dp39
g23
F0.47727272727272729
sg25
F0.31818181818181818
sg28
F0.20454545454545456
ssS'yes'
p40
(dp41
g3
F0.0090909090909090905
sg18
F0.018181818181818181
sS'I:ap:x,I:dp:x'
p42
F0.0090909090909090905
sS'no'
p43
F0.072727272727272724
sg7
F0.0090909090909090905
sg35
F0.0090909090909090905
sS'non-understanding'
p44
F0.036363636363636362
sg11
F0.027272727272727271
sS'yes'
p45
F0.79090909090909089
sS'I:bn:x,I:dp:x,no'
p46
F0.0090909090909090905
sS'I:dp:o,I:dp:x,yes'
p47
F0.0090909090909090905
ssS'I:bn,I:dp,I:tt'
p48
(dp49
S'I:bn:x,I:dp:x'
p50
F0.33333333333333331
sS'non-understanding'
p51
F0.33333333333333331
sS'I:bn:o,I:dp:x,I:dp:x,I:tt:x'
p52
F0.33333333333333331
ssS'non-understanding'
p53
(dp54
S'I:bn:o,I:dp:x,I:tt:x'
p55
F0.013333333333333334
sg25
F0.98666666666666669
ss.