(dp0
S''
p1
(dp2
S'2200'
p3
F0.25
sS'2230'
p4
F0.5
sS'2000'
p5
F0.25
ssS'1600'
p6
(dp7
S'400'
p8
F1.0
ssS'1300'
p9
(dp10
S'100'
p11
F1.0
ssS'600'
p12
(dp13
S'2230'
p14
F0.16666666666666666
sS'2000'
p15
F0.16666666666666666
sS'600|0.86'
p16
F0.16666666666666666
sS'100'
p17
F0.16666666666666666
sS'now'
p18
F0.16666666666666666
sS'1030'
p19
F0.16666666666666666
ssS'700'
p20
(dp21
S'now'
p22
F0.17647058823529413
sS'2100'
p23
F0.058823529411764705
sS'2100|0.87'
p24
F0.058823529411764705
sS'2000'
p25
F0.058823529411764705
sS'500'
p26
F0.058823529411764705
sS'700|0.93'
p27
F0.058823529411764705
sS'<UNDEFINED>'
p28
F0.058823529411764705
sS'800'
p29
F0.11764705882352941
sS'1900'
p30
F0.11764705882352941
sS'1000'
p31
F0.23529411764705882
ssS'1200'
p32
(dp33
S'2300'
p34
F0.25
sS'2000'
p35
F0.25
sS'1900'
p36
F0.25
sS'1900|0.46'
p37
F0.25
ssS'1920'
p38
(dp39
S'15'
p40
F1.0
ssS'130'
p41
(dp42
S'1700'
p43
F0.14285714285714285
sS'1300'
p44
F0.2857142857142857
sS'500'
p45
F0.42857142857142855
sS'1300|0.92'
p46
F0.14285714285714285
ssS'545'
p47
(dp48
S'800'
p49
F1.0
ssS'1900'
p50
(dp51
S'1700'
p52
F0.066666666666666666
sS'2100'
p53
F0.066666666666666666
sS'600'
p54
F0.066666666666666666
sS'700'
p55
F0.26666666666666666
sS'1900|0.07'
p56
F0.066666666666666666
sS'2000'
p57
F0.20000000000000001
sS'now'
p58
F0.26666666666666666
ssS'2200'
p59
(dp60
S'200'
p61
F0.047619047619047616
sS'900'
p62
F0.047619047619047616
sS'2130'
p63
F0.095238095238095233
sS'2200|0.67'
p64
F0.047619047619047616
sS'700'
p65
F0.095238095238095233
sS'2115|0.75'
p66
F0.047619047619047616
sS'2000'
p67
F0.047619047619047616
sS'500'
p68
F0.047619047619047616
sS'530'
p69
F0.047619047619047616
sS'100'
p70
F0.095238095238095233
sS'now'
p71
F0.23809523809523808
sS'2115'
p72
F0.047619047619047616
sS'1900'
p73
F0.047619047619047616
sS'538'
p74
F0.047619047619047616
ssS'830'
p75
(dp76
S'800'
p77
F1.0
ssS'2340'
p78
(dp79
S'2300'
p80
F1.0
ssS'2130'
p81
(dp82
S'2230'
p83
F0.5
sS'2130|0.74'
p84
F0.5
ssS'2300'
p85
(dp86
S'2330'
p87
F0.1111111111111111
sS'900'
p88
F0.1111111111111111
sS'800'
p89
F0.1111111111111111
sS'2300|0.80'
p90
F0.1111111111111111
sS'800|0.65'
p91
F0.1111111111111111
sS'30'
p92
F0.1111111111111111
sS'1900'
p93
F0.1111111111111111
sS'now'
p94
F0.1111111111111111
sS'500'
p95
F0.1111111111111111
ssS'2145'
p96
(dp97
S'500'
p98
F1.0
ssS'2220'
p99
(dp100
S'500|0.88'
p101
F0.5
sS'500'
p102
F0.5
ssS'0'
p103
(dp104
S'0|0.54'
p105
F0.1111111111111111
sS'2018|0.85'
p106
F0.1111111111111111
sS'30'
p107
F0.1111111111111111
sS'<UNDEFINED>'
p108
F0.1111111111111111
sS'400'
p109
F0.1111111111111111
sS'100'
p110
F0.1111111111111111
sS'now'
p111
F0.22222222222222221
sS'0|0.94'
p112
F0.1111111111111111
ssS'1500'
p113
(dp114
S'1830'
p115
F0.25
sS'now'
p116
F0.25
sS'2000'
p117
F0.25
sS'2030'
p118
F0.25
ssS'400'
p119
(dp120
S'450'
p121
F0.16666666666666666
sS'now'
p122
F0.33333333333333331
sS'700'
p123
F0.16666666666666666
sS'600'
p124
F0.16666666666666666
sS'600|0.07'
p125
F0.16666666666666666
ssS'1030'
p126
(dp127
S'900|0.45'
p128
F0.25
sS'2300'
p129
F0.25
sS'900'
p130
F0.25
sS'2300|0.38'
p131
F0.25
ssS'930'
p132
(dp133
S'2200'
p134
F0.75
sS'500'
p135
F0.25
ssS'425'
p136
(dp137
S'200'
p138
F1.0
ssS'815'
p139
(dp140
S'800|0.94'
p141
F0.5
sS'800'
p142
F0.5
ssS'500'
p143
(dp144
S'1700'
p145
F0.27272727272727271
sS'2200'
p146
F0.090909090909090912
sS'800'
p147
F0.090909090909090912
sS'300'
p148
F0.090909090909090912
sS'300|0.89'
p149
F0.090909090909090912
sS'now'
p150
F0.090909090909090912
sS'500|0.89'
p151
F0.090909090909090912
sS'500|0.73'
p152
F0.090909090909090912
sS'1000'
p153
F0.090909090909090912
ssS'630'
p154
(dp155
S'1700'
p156
F0.20000000000000001
sS'730'
p157
F0.20000000000000001
sS'now'
p158
F0.20000000000000001
sS'500'
p159
F0.20000000000000001
sS'800'
p160
F0.20000000000000001
ssS'2330'
p161
(dp162
S'900'
p163
F0.125
sS'600'
p164
F0.125
sS'0'
p165
F0.125
sS'1130'
p166
F0.125
sS'730'
p167
F0.125
sS'0|0.92'
p168
F0.125
sS'900|0.03'
p169
F0.125
sS'500'
p170
F0.125
ssS'1130'
p171
(dp172
g165
F0.5
sS'0|0.91'
p173
F0.25
sS'130'
p174
F0.25
ssS'715'
p175
(dp176
S'700'
p177
F1.0
ssS'2030'
p178
(dp179
S'630'
p180
F0.14285714285714285
sS'1830'
p181
F0.14285714285714285
sS'2230'
p182
F0.14285714285714285
sS'2000'
p183
F0.14285714285714285
sS'100'
p184
F0.14285714285714285
sS'now'
p185
F0.14285714285714285
sS'500'
p186
F0.14285714285714285
ssS'1730'
p187
(dp188
S'1700'
p189
F0.5
sS'500'
p190
F0.5
ssS'1330'
p191
(dp192
S'130'
p193
F1.0
ssS'1930'
p194
(dp195
S'100'
p196
F0.25
sS'1900'
p197
F0.5
sS'400'
p198
F0.25
ssS'100'
p199
(dp200
S'2330'
p201
F0.14285714285714285
sS'2300|0.85'
p202
F0.14285714285714285
sS'2300'
p203
F0.14285714285714285
sS'2330|0.49'
p204
F0.14285714285714285
sS'100|0.81'
p205
F0.14285714285714285
sS'now'
p206
F0.14285714285714285
sS'500'
p207
F0.14285714285714285
ssS'now'
p208
(dp209
S'2200'
p210
F0.037037037037037035
sS'200'
p211
F0.018518518518518517
sS'900'
p212
F0.1111111111111111
sS'2100|0.49'
p213
F0.018518518518518517
sS'800|0.46'
p214
F0.018518518518518517
sS'600'
p215
F0.092592592592592587
sS'300'
p216
F0.018518518518518517
sS'1600'
p217
F0.018518518518518517
sS'1725'
p218
F0.018518518518518517
sS'1600|0.67'
p219
F0.018518518518518517
sS'1700'
p220
F0.037037037037037035
sS'640'
p221
F0.018518518518518517
sS'2000'
p222
F0.092592592592592587
sS'48|0.79'
p223
F0.018518518518518517
sS'1300'
p224
F0.018518518518518517
sS'100'
p225
F0.07407407407407407
sS'2100'
p226
F0.18518518518518517
sS'500'
p227
F0.07407407407407407
sS'800'
p228
F0.1111111111111111
ssS'1650'
p229
(dp230
S'1900'
p231
F1.0
ssS'1700'
p232
(dp233
S'2200'
p234
F0.14285714285714285
sS'200'
p235
F0.14285714285714285
sS'800'
p236
F0.14285714285714285
sS'200|0.79'
p237
F0.14285714285714285
sS'2000'
p238
F0.14285714285714285
sS'now'
p239
F0.14285714285714285
sS'500'
p240
F0.14285714285714285
ssS'900'
p241
(dp242
S'2100|0.06'
p243
F0.076923076923076927
sS'800'
p244
F0.076923076923076927
sS'2100'
p245
F0.30769230769230771
sS'2130'
p246
F0.076923076923076927
sS'2100|0.89'
p247
F0.076923076923076927
sS'300'
p248
F0.076923076923076927
sS'1900'
p249
F0.076923076923076927
sS'now'
p250
F0.076923076923076927
sS'900|0.93'
p251
F0.076923076923076927
sS'500'
p252
F0.076923076923076927
ssS'800'
p253
(dp254
S'1700'
p255
F0.17647058823529413
sS'900'
p256
F0.11764705882352941
sS'930'
p257
F0.058823529411764705
sS'1300'
p258
F0.058823529411764705
sS'2130'
p259
F0.058823529411764705
sS'730'
p260
F0.17647058823529413
sS'2000'
p261
F0.11764705882352941
sS'now'
p262
F0.11764705882352941
sS'815'
p263
F0.058823529411764705
sS'1000'
p264
F0.058823529411764705
ssS'2040'
p265
(dp266
S'2030|0.84'
p267
F0.5
sS'2030'
p268
F0.5
ssS'2215'
p269
(dp270
S'500|0.47;2215|0.45'
p271
F0.33333333333333331
sS'2300'
p272
F0.33333333333333331
sS'500'
p273
F0.33333333333333331
ssS'1800'
p274
(dp275
S'now'
p276
F0.40000000000000002
sS'600'
p277
F0.20000000000000001
sS'500'
p278
F0.20000000000000001
sS'400'
p279
F0.20000000000000001
ssS'2230'
p280
(dp281
S'2230|0.84'
p282
F0.14285714285714285
sS'600'
p283
F0.14285714285714285
sS'2220'
p284
F0.14285714285714285
sS'1030'
p285
F0.14285714285714285
sS'800'
p286
F0.14285714285714285
sS'500'
p287
F0.14285714285714285
sS'1000'
p288
F0.14285714285714285
ssS'30'
p289
(dp290
g165
F0.20000000000000001
sS'800'
p291
F0.20000000000000001
sS'700'
p292
F0.20000000000000001
sS'30|0.44'
p293
F0.20000000000000001
sS'400'
p294
F0.20000000000000001
ssS'1845'
p295
(dp296
S'600'
p297
F1.0
ssS'640'
p298
(dp299
S'2100'
p300
F1.0
ssS'2000'
p301
(dp302
S'1700'
p303
F0.125
sS'2000|0.92'
p304
F0.0625
sS'800'
p305
F0.0625
sS'2300|0.81'
p306
F0.0625
sS'200'
p307
F0.125
sS'2000|0.89'
p308
F0.0625
sS'2300'
p309
F0.0625
sS'200|0.83'
p310
F0.0625
sS'730'
p311
F0.0625
sS'2030'
p312
F0.125
sS'2100'
p313
F0.125
sS'500'
p314
F0.0625
ssS'1100'
p315
(dp316
S'2300'
p317
F1.0
ssS'530'
p318
(dp319
S'1700'
p320
F1.0
ssS'845'
p321
(dp322
S'2045'
p323
F0.66666666666666663
sS'500'
p324
F0.33333333333333331
ssS'2100'
p325
(dp326
S'1700'
p327
F0.18181818181818182
sS'now'
p328
F0.090909090909090912
sS'930'
p329
F0.090909090909090912
sS'600'
p330
F0.090909090909090912
sS'2220'
p331
F0.090909090909090912
sS'600|0.68'
p332
F0.090909090909090912
sS'1900'
p333
F0.090909090909090912
sS'100'
p334
F0.090909090909090912
sS'800'
p335
F0.090909090909090912
sS'500'
p336
F0.090909090909090912
ssS'430'
p337
(dp338
S'now'
p339
F1.0
ssS'1000'
p340
(dp341
S'730|0.85'
p342
F0.16666666666666666
sS'2100'
p343
F0.16666666666666666
sS'700'
p344
F0.16666666666666666
sS'730'
p345
F0.16666666666666666
sS'1100'
p346
F0.16666666666666666
sS'930'
p347
F0.16666666666666666
ss.