(dp0
S'I:dp'
p1
(dp2
S'I:dp:x'
p3
F0.5
sS'I:bn:x,I:dp:x,I:dp:x'
p4
F0.10000000000000001
sS'I:dp:x,I:dp:x,no'
p5
F0.10000000000000001
sS'non-understanding'
p6
F0.10000000000000001
sS'I:dp:o'
p7
F0.10000000000000001
sS'I:bn:x'
p8
F0.10000000000000001
ssS'no'
p9
(dp10
g3
F0.047619047619047616
sS'I:dp:o,I:tt:x'
p11
F0.047619047619047616
sS'no'
p12
F0.5714285714285714
sS'I:ap:o,no'
p13
F0.047619047619047616
sS'non-understanding'
p14
F0.19047619047619047
sg7
F0.047619047619047616
sS'I:bn:x,I:dp:x,no'
p15
F0.047619047619047616
ssS'I:bn'
p16
(dp17
g7
F1.0
ssS'I:bn,I:tt'
p18
(dp19
S'non-understanding'
p20
F1.0
ssS'I:ap'
p21
(dp22
S'I:ap:o,I:ap:x'
p23
F0.076923076923076927
sS'I:ap:o'
p24
F0.15384615384615385
sg20
F0.23076923076923078
sS'I:ap:x'
p25
F0.53846153846153844
ssS'non-understanding'
p26
(dp27
g24
F0.021276595744680851
sS'no'
p28
F0.021276595744680851
sS'I:ap:x,no'
p29
F0.021276595744680851
sg14
F0.8936170212765957
sg25
F0.021276595744680851
sS'yes'
p30
F0.021276595744680851
ssS'yes'
p31
(dp32
S'I:ap:o,yes'
p33
F0.047619047619047616
sg3
F0.047619047619047616
sS'I:ap:x,I:ap:x'
p34
F0.047619047619047616
sg14
F0.19047619047619047
sg25
F0.047619047619047616
sS'yes'
p35
F0.61904761904761907
ssS'I:bn,I:dp,I:tt'
p36
(dp37
g3
F1.0
ssS'I:tt'
p38
(dp39
S'I:tt:o'
p40
F0.35714285714285715
sg14
F0.5
sS'I:tt:x'
p41
F0.14285714285714285
ss.