(dp0
S'I:dp'
p1
(dp2
S'I:bn:x,I:tt:o'
p3
F0.10000000000000001
sS'I:dp:x'
p4
F0.5
sS'I:dp:x,I:dp:x'
p5
F0.10000000000000001
sS'I:dp:o'
p6
F0.29999999999999999
ssS'no'
p7
(dp8
S'I:dp:x,yes'
p9
F0.023255813953488372
sg4
F0.11627906976744186
sS'I:ap:x'
p10
F0.023255813953488372
sS'no'
p11
F0.41860465116279072
sS'I:bn:x'
p12
F0.046511627906976744
sS'I:bn:x,I:dp:x'
p13
F0.093023255813953487
sS'non-understanding'
p14
F0.069767441860465115
sg6
F0.023255813953488372
sS'I:dp:x,I:dp:x'
p15
F0.023255813953488372
sS'I:bn:o'
p16
F0.16279069767441862
ssS'I:bn'
p17
(dp18
g12
F0.69999999999999996
sS'I:bn:x,I:dp:x'
p19
F0.10000000000000001
sg14
F0.10000000000000001
sS'I:dp:x,I:tt:x'
p20
F0.10000000000000001
ssS'I:bn,I:tt'
p21
(dp22
g12
F1.0
ssS'I:ap'
p23
(dp24
S'I:ap:o'
p25
F0.17391304347826086
sS'non-understanding'
p26
F0.21739130434782608
sg10
F0.60869565217391308
ssS'I:tt'
p27
(dp28
S'I:ap:o,no'
p29
F0.1111111111111111
sS'I:tt:o'
p30
F0.44444444444444442
sS'I:tt:x'
p31
F0.22222222222222221
sS'non-understanding'
p32
F0.22222222222222221
ssS'yes'
p33
(dp34
g4
F0.034482758620689655
sg10
F0.068965517241379309
sS'I:dp:o,I:dp:x'
p35
F0.034482758620689655
sg12
F0.068965517241379309
sg14
F0.10344827586206896
sg6
F0.034482758620689655
sS'yes'
p36
F0.65517241379310343
ssS'non-understanding'
p37
(dp38
g10
F0.040000000000000001
sg14
F0.92000000000000004
sS'I:dp:o,I:dp:x'
p39
F0.040000000000000001
ss.