(dp0
S'I:dp'
p1
(dp2
S'I:dp:x'
p3
F0.22666666666666666
sS'I:dp:o,I:dp:x'
p4
F0.026666666666666668
sS'non-understanding'
p5
F0.17333333333333334
sS'I:dp:o'
p6
F0.54666666666666663
sS'I:dp:x,I:dp:x'
p7
F0.026666666666666668
ssS'I:ap,I:dp,I:tt'
p8
(dp9
S'non-understanding'
p10
F1.0
ssS'I:ap,I:bn,I:dp,I:tt'
p11
(dp12
S'I:tt:o'
p13
F0.16666666666666666
sS'I:bn:o,I:tt:o,yes'
p14
F0.16666666666666666
sS'non-understanding'
p15
F0.66666666666666663
ssS'no'
p16
(dp17
g3
F0.016393442622950821
sg6
F0.032786885245901641
sS'no'
p18
F0.70491803278688525
sS'I:ap:x,no'
p19
F0.016393442622950821
sS'I:bn:x'
p20
F0.016393442622950821
sS'I:ap:o'
p21
F0.016393442622950821
sS'I:dp:o,no'
p22
F0.032786885245901641
sg15
F0.13114754098360656
sS'I:ap:x'
p23
F0.016393442622950821
sS'I:ap:o,no'
p24
F0.016393442622950821
ssS'I:bn'
p25
(dp26
S'I:tt:x'
p27
F0.02
sS'I:bn:o,I:dp:o,I:dp:x'
p28
F0.02
sg20
F0.20000000000000001
sS'I:ap:o,I:dp:o'
p29
F0.02
sS'I:bn:x,I:dp:x'
p30
F0.02
sS'non-understanding'
p31
F0.17999999999999999
sS'I:bn:o,I:dp:o'
p32
F0.02
sS'I:ap:o,I:bn:o'
p33
F0.02
sS'I:bn:o'
p34
F0.5
ssS'I:bn,I:tt'
p35
(dp36
g20
F0.14285714285714285
sg27
F0.14285714285714285
sS'non-understanding'
p37
F0.2857142857142857
sg34
F0.2857142857142857
sS'I:bn:o,I:tt:o'
p38
F0.14285714285714285
ssS'I:ap,I:dp'
p39
(dp40
S'I:ap:o,I:dp:o'
p41
F0.5
sg5
F0.5
ssS'I:ap'
p42
(dp43
S'I:ap:o,I:ap:x'
p44
F0.058823529411764705
sg21
F0.72058823529411764
sS'non-understanding'
p45
F0.10294117647058823
sg23
F0.10294117647058823
sS'I:ap:x,I:ap:x'
p46
F0.014705882352941176
ssS'non-understanding'
p47
(dp48
S'I:bn:x,I:dp:o,I:dp:x'
p49
F0.012500000000000001
sg3
F0.025000000000000001
sS'I:bn:x,I:dp:o'
p50
F0.012500000000000001
sS'I:ap:o,I:dp:o'
p51
F0.012500000000000001
sS'I:ap:x,I:dp:x,I:tt:o'
p52
F0.012500000000000001
sS'I:dp:o,I:dp:x,I:tt:o'
p53
F0.012500000000000001
sS'I:dp:x,I:tt:o'
p54
F0.012500000000000001
sS'I:ap:o,I:dp:o,I:tt:o'
p55
F0.012500000000000001
sS'non-understanding'
p56
F0.875
sg6
F0.012500000000000001
ssS'I:ap,I:bn,I:dp'
p57
(dp58
S'non-understanding'
p59
F1.0
ssS'yes'
p60
(dp61
g3
F0.015444015444015444
sS'I:ap:x,I:ap:x'
p62
F0.0038610038610038611
sg6
F0.0077220077220077222
sS'no'
p63
F0.0077220077220077222
sS'I:dp:o,no'
p64
F0.0038610038610038611
sS'I:dp:x,no'
p65
F0.0038610038610038611
sg59
F0.054054054054054057
sg23
F0.0038610038610038611
sg20
F0.0038610038610038611
sS'yes'
p66
F0.89189189189189189
sg34
F0.0038610038610038611
ssS'I:bn,I:dp,I:tt'
p67
(dp68
S'I:bn:o,I:dp:o,I:tt:o'
p69
F0.1111111111111111
sg13
F0.1111111111111111
sg34
F0.33333333333333331
sg6
F0.1111111111111111
sS'I:ap:o,I:bn:o,I:dp:o,I:tt:o'
p70
F0.1111111111111111
sS'non-understanding'
p71
F0.22222222222222221
ssS'I:tt'
p72
(dp73
g21
F0.012658227848101266
sg27
F0.189873417721519
sg3
F0.012658227848101266
sS'I:tt:o,I:tt:o'
p74
F0.012658227848101266
sS'I:ap:x,I:dp:o'
p75
F0.012658227848101266
sg13
F0.68354430379746833
sg56
F0.075949367088607597
ss.