(dp0
S'I:dp'
p1
(dp2
S'I:bn:x,I:tt:o'
p3
F0.14285714285714285
sS'I:dp:x'
p4
F0.42857142857142855
sS'I:dp:x,I:dp:x'
p5
F0.14285714285714285
sS'I:dp:o'
p6
F0.2857142857142857
ssS'no'
p7
(dp8
g4
F0.090909090909090912
sS'I:dp:x,I:dp:x'
p9
F0.090909090909090912
sS'I:ap:x'
p10
F0.18181818181818182
sS'no'
p11
F0.63636363636363635
ssS'I:bn'
p12
(dp13
S'I:bn:x'
p14
F0.5
sS'I:dp:o,I:dp:x'
p15
F0.5
ssS'I:bn,I:tt'
p16
(dp17
S'non-understanding'
p18
F1.0
ssS'I:ap'
p19
(dp20
S'I:ap:o'
p21
F0.052631578947368418
sg18
F0.26315789473684209
sg10
F0.68421052631578949
ssS'I:tt'
p22
(dp23
S'I:ap:o,no'
p24
F0.25
sS'I:tt:o'
p25
F0.5
sS'non-understanding'
p26
F0.25
ssS'yes'
p27
(dp28
S'yes'
p29
F0.84615384615384615
sg18
F0.076923076923076927
sg10
F0.076923076923076927
ssS'non-understanding'
p30
(dp31
g14
F0.052631578947368418
sg26
F0.89473684210526316
sg10
F0.052631578947368418
ss.