(dp0
S'I:dp'
p1
(dp2
S'I:ap:o,I:bn:x,I:dp:o,I:dp:x,I:tt:o,I:tt:o'
p3
F0.001834862385321101
sS'I:bn:x,I:dp:o,I:dp:x'
p4
F0.001834862385321101
sS'I:tt:x'
p5
F0.001834862385321101
sS'I:dp:o,no'
p6
F0.001834862385321101
sS'I:bn:x'
p7
F0.045871559633027525
sS'I:ap:o,I:dp:o'
p8
F0.003669724770642202
sS'I:tt:o'
p9
F0.0055045871559633031
sS'I:dp:o,I:tt:o'
p10
F0.003669724770642202
sS'yes'
p11
F0.001834862385321101
sS'I:ap:o,I:dp:x'
p12
F0.001834862385321101
sS'I:ap:o,I:dp:x,I:dp:x'
p13
F0.003669724770642202
sS'I:bn:x,I:dp:o'
p14
F0.020183486238532111
sS'I:dp:o,I:dp:x'
p15
F0.051376146788990829
sS'I:dp:x,I:tt:x'
p16
F0.001834862385321101
sS'I:dp:x,I:tt:o'
p17
F0.001834862385321101
sS'I:ap:o,I:dp:o,I:tt:o'
p18
F0.001834862385321101
sS'I:ap:x'
p19
F0.001834862385321101
sS'I:dp:x'
p20
F0.088073394495412849
sS'I:ap:o'
p21
F0.001834862385321101
sS'I:bn:x,I:dp:x'
p22
F0.011009174311926606
sS'I:bn:x,I:dp:x,I:dp:x'
p23
F0.001834862385321101
sS'I:ap:o,I:bn:x'
p24
F0.001834862385321101
sS'I:dp:o'
p25
F0.6440366972477064
sS'I:bn:x,I:bn:x'
p26
F0.001834862385321101
sS'I:ap:o,I:ap:x,I:dp:o'
p27
F0.001834862385321101
sS'I:bn:x,I:dp:o,I:dp:x,I:tt:x'
p28
F0.001834862385321101
sS'no'
p29
F0.001834862385321101
sS'I:ap:o,I:bn:x,I:dp:x'
p30
F0.003669724770642202
sS'I:ap:o,I:ap:x,I:dp:x'
p31
F0.001834862385321101
sS'non-understanding'
p32
F0.080733944954128445
sS'I:dp:o,I:dp:x,I:dp:x'
p33
F0.001834862385321101
sS'I:dp:x,I:dp:x'
p34
F0.003669724770642202
ssS'no'
p35
(dp36
g20
F0.01
sS'I:tt:o,yes'
p37
F0.0050000000000000001
sg5
F0.014999999999999999
sS'I:dp:o,I:dp:x'
p38
F0.01
sS'no'
p39
F0.72999999999999998
sS'I:dp:o,no'
p40
F0.01
sg7
F0.014999999999999999
sg21
F0.014999999999999999
sS'I:ap:o,I:dp:o'
p41
F0.0050000000000000001
sS'I:ap:o,no'
p42
F0.0050000000000000001
sS'I:ap:x,no'
p43
F0.0050000000000000001
sg9
F0.014999999999999999
sS'non-understanding'
p44
F0.055
sg25
F0.055
sS'I:dp:x,no'
p45
F0.01
sS'I:ap:o,I:dp:o,I:dp:x'
p46
F0.01
sS'yes'
p47
F0.01
sS'I:dp:x,I:dp:x'
p48
F0.0050000000000000001
sS'I:dp:o,I:tt:o'
p49
F0.0050000000000000001
sS'I:bn:o'
p50
F0.0050000000000000001
sS'I:dp:o,yes'
p51
F0.0050000000000000001
ssS'I:bn'
p52
(dp53
S'I:bn:o,I:dp:o'
p54
F0.080000000000000002
sS'I:bn:o,I:tt:o'
p55
F0.040000000000000001
sS'I:bn:o,I:dp:o,I:dp:x'
p56
F0.040000000000000001
sS'non-understanding'
p57
F0.080000000000000002
sg7
F0.40000000000000002
sg50
F0.35999999999999999
ssS'I:ap'
p58
(dp59
S'I:ap:o,I:ap:x'
p60
F0.02850877192982456
sg21
F0.84210526315789469
sS'non-understanding'
p61
F0.048245614035087717
sg19
F0.074561403508771926
sS'I:ap:x,I:ap:x'
p62
F0.0065789473684210523
ssS'non-understanding'
p63
(dp64
S'non-understanding'
p65
F1.0
ssS'yes'
p66
(dp67
S'I:dp:x,yes'
p68
F0.0014144271570014145
sg20
F0.014851485148514851
sg5
F0.0070721357850070717
sS'I:dp:o,I:dp:x'
p69
F0.00070721357850070724
sS'no'
p70
F0.0091937765205091938
sS'I:ap:x,I:dp:x'
p71
F0.00070721357850070724
sg21
F0.002828854314002829
sg19
F0.0091937765205091938
sS'I:ap:o,I:dp:o'
p72
F0.00070721357850070724
sS'non-understanding'
p73
F0.036775106082036775
sg25
F0.002828854314002829
sS'I:ap:o,yes'
p74
F0.00070721357850070724
sS'I:ap:o,I:dp:o,I:dp:x'
p75
F0.00070721357850070724
sS'yes'
p76
F0.90735502121640732
sS'I:dp:x,I:dp:x'
p77
F0.0021216407355021216
sg50
F0.0021216407355021216
sS'I:ap:x,yes'
p78
F0.00070721357850070724
ssS'I:bn,I:dp,I:tt'
p79
(dp80
S'I:bn:o,I:dp:x,I:dp:x,I:tt:o'
p81
F1.0
ssS'I:tt'
p82
(dp83
g21
F0.0021551724137931034
sg9
F0.86853448275862066
sg65
F0.092672413793103453
sS'I:tt:o,I:tt:o'
p84
F0.0021551724137931034
sg5
F0.034482758620689655
ss.