(dp0
S'I:dp'
p1
(dp2
S'I:bn:x,I:dp:o,I:dp:x'
p3
F0.018518518518518517
sS'I:dp:x'
p4
F0.29629629629629628
sS'I:ap:o,I:bn:x,I:dp:x,I:tt:o'
p5
F0.018518518518518517
sS'I:tt:x'
p6
F0.018518518518518517
sS'I:dp:o,I:dp:x'
p7
F0.018518518518518517
sS'I:bn:x'
p8
F0.16666666666666666
sS'I:bn:x,I:dp:x'
p9
F0.018518518518518517
sS'non-understanding'
p10
F0.25925925925925924
sS'I:dp:o'
p11
F0.12962962962962962
sS'I:bn:x,I:dp:x,I:dp:x'
p12
F0.018518518518518517
sS'I:dp:x,I:dp:x,no'
p13
F0.018518518518518517
sS'I:dp:x,I:dp:x'
p14
F0.018518518518518517
ssS'no'
p15
(dp16
g4
F0.036363636363636362
sS'I:ap:x,I:ap:x'
p17
F0.0090909090909090905
sS'I:bn:x,I:dp:x,no'
p18
F0.0090909090909090905
sg11
F0.036363636363636362
sS'no'
p19
F0.68181818181818177
sS'I:dp:x,no'
p20
F0.0090909090909090905
sS'I:dp:o,I:tt:x'
p21
F0.0090909090909090905
sS'I:ap:o,no'
p22
F0.0090909090909090905
sg10
F0.11818181818181818
sS'I:ap:x'
p23
F0.06363636363636363
sg8
F0.0090909090909090905
sS'I:dp:x,I:dp:x'
p24
F0.0090909090909090905
ssS'I:bn'
p25
(dp26
g4
F0.14285714285714285
sg8
F0.35714285714285715
sS'non-understanding'
p27
F0.14285714285714285
sS'I:bn:o'
p28
F0.21428571428571427
sS'no'
p29
F0.14285714285714285
ssS'I:bn,I:tt'
p30
(dp31
g11
F1.0
ssS'I:ap'
p32
(dp33
S'I:ap:o,I:ap:x'
p34
F0.050000000000000003
sS'I:ap:o'
p35
F0.11666666666666667
sS'non-understanding'
p36
F0.31666666666666665
sg23
F0.5
sS'I:ap:x,I:ap:x'
p37
F0.016666666666666666
ssS'I:tt'
p38
(dp39
g35
F0.033333333333333333
sS'I:tt:o'
p40
F0.5
sS'non-understanding'
p41
F0.29999999999999999
sg23
F0.033333333333333333
sg6
F0.13333333333333333
ssS'yes'
p42
(dp43
S'I:dp:x,yes'
p44
F0.015384615384615385
sg4
F0.015384615384615385
sS'I:ap:x,I:ap:x'
p45
F0.015384615384615385
sg6
F0.015384615384615385
sg19
F0.030769230769230771
sg8
F0.015384615384615385
sg23
F0.015384615384615385
sS'non-understanding'
p46
F0.12307692307692308
sg11
F0.015384615384615385
sS'I:ap:o,yes'
p47
F0.015384615384615385
sS'yes'
p48
F0.70769230769230773
sS'I:dp:x,I:dp:x'
p49
F0.015384615384615385
ssS'I:bn,I:dp,I:tt'
p50
(dp51
g4
F0.5
sg27
F0.5
ssS'non-understanding'
p52
(dp53
g4
F0.011111111111111112
sg35
F0.011111111111111112
sS'I:ap:x,no'
p54
F0.011111111111111112
sg10
F0.94444444444444442
sg23
F0.011111111111111112
sS'yes'
p55
F0.011111111111111112
ss.