(dp0
S'I:dp'
p1
(dp2
S'I:dp:x'
p3
F0.28421052631578947
sS'I:bn:x,I:dp:o'
p4
F0.021052631578947368
sS'I:ap:x'
p5
F0.010526315789473684
sS'I:dp:o,I:dp:x'
p6
F0.036842105263157891
sS'I:ap:o,I:tt:x'
p7
F0.005263157894736842
sS'I:bn:x'
p8
F0.10000000000000001
sS'I:bn:x,I:bn:x,I:dp:x'
p9
F0.005263157894736842
sS'I:tt:x'
p10
F0.005263157894736842
sS'I:bn:o,I:tt:o'
p11
F0.005263157894736842
sS'I:ap:o,I:bn:x,I:dp:x'
p12
F0.005263157894736842
sS'I:tt:o'
p13
F0.005263157894736842
sS'I:bn:x,I:dp:x'
p14
F0.042105263157894736
sS'non-understanding'
p15
F0.11578947368421053
sS'I:dp:o'
p16
F0.31052631578947371
sS'I:bn:x,I:dp:x,I:dp:x'
p17
F0.005263157894736842
sS'I:dp:x,I:tt:x'
p18
F0.005263157894736842
sS'I:dp:x,I:dp:x'
p19
F0.021052631578947368
sS'I:bn:x,I:dp:x,I:dp:x,I:dp:x,I:tt:x'
p20
F0.005263157894736842
sS'I:bn:x,I:tt:x'
p21
F0.010526315789473684
ssS'I:ap,I:bn,I:dp,I:tt'
p22
(dp23
S'I:bn:x,I:dp:x'
p24
F1.0
ssS'no'
p25
(dp26
g10
F0.0094637223974763408
sS'I:dp:o,no'
p27
F0.0063091482649842269
sg8
F0.028391167192429023
sS'I:ap:o,I:dp:o'
p28
F0.0031545741324921135
sS'I:dp:x,I:dp:x'
p29
F0.0063091482649842269
sg13
F0.0063091482649842269
sS'yes'
p30
F0.0031545741324921135
sS'I:ap:x,I:ap:x,I:ap:x,no'
p31
F0.0031545741324921135
sS'I:ap:x,I:ap:x'
p32
F0.0031545741324921135
sS'no'
p33
F0.67192429022082023
sS'I:dp:x,no'
p34
F0.0031545741324921135
sS'I:dp:x,I:tt:o'
p35
F0.0031545741324921135
sS'I:bn:x,I:dp:x'
p36
F0.0063091482649842269
sg5
F0.025236593059936908
sS'I:ap:o,no'
p37
F0.0063091482649842269
sg3
F0.047318611987381701
sS'I:ap:o'
p38
F0.0031545741324921135
sg16
F0.025236593059936908
sS'I:bn:x,no'
p39
F0.0031545741324921135
sS'I:ap:o,I:ap:x,I:ap:x'
p40
F0.0031545741324921135
sS'I:ap:x,no'
p41
F0.0063091482649842269
sS'I:ap:o,I:bn:x,I:dp:x'
p42
F0.0031545741324921135
sS'non-understanding'
p43
F0.11987381703470032
sS'I:bn:x,I:dp:x,no'
p44
F0.0031545741324921135
ssS'I:bn'
p45
(dp46
S'I:bn:x,I:dp:x'
p47
F0.071428571428571425
sg8
F0.6428571428571429
sS'I:bn:o,I:dp:x'
p48
F0.071428571428571425
sS'non-understanding'
p49
F0.071428571428571425
sS'I:bn:o'
p50
F0.14285714285714285
ssS'I:bn,I:tt'
p51
(dp52
g3
F1.0
ssS'I:bn,I:dp,I:tt'
p53
(dp54
g3
F1.0
ssS'I:ap'
p55
(dp56
S'I:ap:o,I:ap:x'
p57
F0.043243243243243246
sg38
F0.38378378378378381
sS'non-understanding'
p58
F0.086486486486486491
sg5
F0.4702702702702703
sS'I:ap:x,I:ap:x'
p59
F0.016216216216216217
ssS'I:tt'
p60
(dp61
g38
F0.0065789473684210523
sg10
F0.26973684210526316
sg13
F0.53289473684210531
sg43
F0.15789473684210525
sg5
F0.013157894736842105
sS'I:bn:x,I:tt:x,I:tt:x'
p62
F0.0065789473684210523
sS'yes'
p63
F0.0065789473684210523
sS'I:bn:x,I:tt:x'
p64
F0.0065789473684210523
ssS'I:ap,I:bn,I:dp'
p65
(dp66
g16
F1.0
ssS'yes'
p67
(dp68
S'I:ap:o,yes'
p69
F0.0027700831024930748
sg38
F0.0083102493074792248
sS'I:tt:x,no'
p70
F0.0027700831024930748
sg3
F0.044321329639889197
sg8
F0.013850415512465374
sS'no'
p71
F0.033240997229916899
sS'I:ap:o,I:bn:x'
p72
F0.0027700831024930748
sg13
F0.0027700831024930748
sS'I:bn:x,I:dp:x'
p73
F0.0027700831024930748
sS'non-understanding'
p74
F0.038781163434903045
sg16
F0.0055401662049861496
sS'I:bn:o,yes'
p75
F0.0027700831024930748
sg5
F0.01662049861495845
sS'yes'
p76
F0.81717451523545703
sS'I:dp:x,I:dp:x'
p77
F0.0027700831024930748
sg10
F0.0027700831024930748
ssS'I:ap,I:dp,I:tt'
p78
(dp79
g8
F0.5
sg16
F0.5
ssS'non-understanding'
p80
(dp81
g15
F0.98888888888888893
sg16
F0.011111111111111112
ss.