(dp0
S'I:dp'
p1
(dp2
S'I:bn:x,I:dp:o,I:dp:x'
p3
F0.0034364261168384879
sS'I:ap:o,I:bn:x,I:dp:o,I:dp:x,I:tt:o,I:tt:o'
p4
F0.00068728522336769765
sS'I:dp:o,I:tt:x'
p5
F0.00068728522336769765
sS'I:tt:x'
p6
F0.0034364261168384879
sS'I:dp:o,no'
p7
F0.00068728522336769765
sS'I:bn:x'
p8
F0.031615120274914088
sS'I:ap:o,I:dp:o'
p9
F0.013058419243986255
sS'I:tt:o'
p10
F0.0020618556701030928
sS'I:dp:o,I:tt:o'
p11
F0.0020618556701030928
sS'yes'
p12
F0.0013745704467353953
sS'I:ap:o,I:dp:x'
p13
F0.0020618556701030928
sS'I:ap:o'
p14
F0.0020618556701030928
sS'I:bn:x,I:dp:o'
p15
F0.019931271477663229
sS'I:dp:o,I:dp:x'
p16
F0.043986254295532649
sS'I:ap:o,I:dp:o,I:dp:x,I:tt:o'
p17
F0.00068728522336769765
sS'I:dp:x,I:tt:o'
p18
F0.0013745704467353953
sS'I:ap:o,I:dp:o,I:tt:o'
p19
F0.0027491408934707906
sS'I:dp:o,I:tt:o,I:tt:o'
p20
F0.00068728522336769765
sS'I:ap:x'
p21
F0.0013745704467353953
sS'I:ap:o,I:dp:o,I:dp:x'
p22
F0.0020618556701030928
sS'I:dp:x'
p23
F0.096219931271477668
sS'I:ap:x,I:dp:x'
p24
F0.0013745704467353953
sS'I:ap:o,I:dp:x,I:dp:x'
p25
F0.0020618556701030928
sS'I:bn:x,I:dp:x'
p26
F0.010996563573883162
sS'I:bn:x,I:dp:x,I:dp:x'
p27
F0.0013745704467353953
sS'I:ap:o,I:bn:x'
p28
F0.00068728522336769765
sS'I:ap:x,I:bn:x,I:dp:o,I:tt:o'
p29
F0.00068728522336769765
sS'I:ap:x,I:dp:o'
p30
F0.0013745704467353953
sS'I:bn:o,I:dp:o,I:dp:x'
p31
F0.00068728522336769765
sS'I:dp:o'
p32
F0.65773195876288659
sS'I:bn:x,I:bn:x'
p33
F0.00068728522336769765
sS'I:ap:o,I:ap:x,I:dp:o'
p34
F0.00068728522336769765
sS'I:bn:x,I:dp:o,I:dp:x,I:tt:x'
p35
F0.00068728522336769765
sS'I:bn:o,I:dp:o'
p36
F0.00068728522336769765
sS'I:dp:x,I:tt:x'
p37
F0.00068728522336769765
sS'I:ap:o,I:bn:x,I:dp:x'
p38
F0.0013745704467353953
sS'I:ap:o,I:ap:x,I:dp:x'
p39
F0.00068728522336769765
sS'non-understanding'
p40
F0.07903780068728522
sS'I:dp:o,I:dp:x,I:dp:x'
p41
F0.0013745704467353953
sS'I:dp:x,I:dp:x'
p42
F0.0048109965635738834
ssS'I:ap,I:dp,I:tt'
p43
(dp44
g21
F1.0
ssS'I:ap,I:bn,I:dp,I:tt'
p45
(dp46
S'I:ap:o,I:bn:o,I:dp:o,I:tt:o'
p47
F1.0
ssS'no'
p48
(dp49
S'I:tt:o,yes'
p50
F0.0020790020790020791
sg6
F0.0083160083160083165
sS'I:dp:o,no'
p51
F0.0020790020790020791
sg8
F0.012474012474012475
sS'I:ap:o,I:dp:o'
p52
F0.0041580041580041582
sg10
F0.010395010395010396
sS'I:dp:o,I:tt:o'
p53
F0.0020790020790020791
sS'yes'
p54
F0.0062370062370062374
sS'I:bn:o,no'
p55
F0.0041580041580041582
sg14
F0.016632016632016633
sS'I:dp:o,I:dp:x'
p56
F0.0083160083160083165
sS'no'
p57
F0.74844074844074848
sS'I:dp:o,I:dp:x,I:dp:x,no'
p58
F0.0020790020790020791
sS'I:dp:x,no'
p59
F0.0062370062370062374
sS'I:dp:x,I:tt:o'
p60
F0.0041580041580041582
sS'I:bn:x,I:dp:x'
p61
F0.0020790020790020791
sg21
F0.0062370062370062374
sS'I:ap:o,yes'
p62
F0.0020790020790020791
sS'I:ap:o,I:dp:o,I:dp:x'
p63
F0.0041580041580041582
sS'I:bn:o,I:dp:x,I:dp:x'
p64
F0.0020790020790020791
sg23
F0.010395010395010396
sg32
F0.043659043659043661
sS'I:dp:o,yes'
p65
F0.0020790020790020791
sS'I:dp:x,I:dp:x'
p66
F0.0041580041580041582
sS'I:ap:x,no'
p67
F0.0020790020790020791
sS'I:bn:o,I:dp:o'
p68
F0.0041580041580041582
sS'I:ap:o,no'
p69
F0.0041580041580041582
sS'non-understanding'
p70
F0.07068607068607069
sS'I:ap:o,I:bn:x,I:dp:o'
p71
F0.0020790020790020791
sS'I:bn:x,I:dp:x,no'
p72
F0.0020790020790020791
ssS'I:bn'
p73
(dp74
S'I:bn:x,I:dp:o,I:dp:x'
p75
F0.010309278350515464
sg23
F0.010309278350515464
sS'I:ap:x,I:dp:x'
p76
F0.010309278350515464
sS'I:dp:o,I:dp:x'
p77
F0.010309278350515464
sg8
F0.22680412371134021
sS'I:bn:o,I:tt:o'
p78
F0.010309278350515464
sS'I:bn:o'
p79
F0.51546391752577314
sS'I:bn:x,I:dp:x'
p80
F0.020618556701030927
sS'I:ap:o,I:bn:o,I:dp:o,I:tt:o'
p81
F0.030927835051546393
sS'I:bn:o,I:dp:o'
p82
F0.030927835051546393
sS'I:bn:o,I:dp:x'
p83
F0.020618556701030927
sS'non-understanding'
p84
F0.10309278350515463
ssS'I:bn,I:tt'
p85
(dp86
S'I:ap:o,I:dp:o,I:tt:o'
p87
F0.25
sS'I:ap:o,I:dp:o'
p88
F0.25
sg6
F0.25
sg32
F0.25
ssS'I:ap,I:dp'
p89
(dp90
S'I:ap:o,I:bn:o,I:dp:o'
p91
F1.0
ssS'I:ap'
p92
(dp93
S'I:ap:x,I:ap:x'
p94
F0.0040783034257748773
sS'I:ap:o,I:ap:x,I:ap:x'
p95
F0.00081566068515497557
sg14
F0.83360522022838501
sS'I:ap:o,I:ap:x'
p96
F0.041598694942903754
sS'non-understanding'
p97
F0.062805872756933112
sg21
F0.055464926590538338
sS'yes'
p98
F0.0016313213703099511
ssS'I:tt'
p99
(dp100
g14
F0.00076923076923076923
sg6
F0.025384615384615384
sS'no'
p101
F0.0038461538461538464
sS'I:tt:o,I:tt:o'
p102
F0.0030769230769230769
sg10
F0.84692307692307689
sS'non-understanding'
p103
F0.10384615384615385
sg32
F0.00076923076923076923
sS'yes'
p104
F0.015384615384615385
ssS'yes'
p105
(dp106
g6
F0.0047999999999999996
sS'I:dp:o,no'
p107
F0.00032000000000000003
sg8
F0.00032000000000000003
sS'I:ap:o,I:dp:o'
p108
F0.00032000000000000003
sS'I:bn:x,I:dp:o,I:dp:x,yes'
p109
F0.00032000000000000003
sg10
F0.0012800000000000001
sS'I:bn:x,yes'
p110
F0.00032000000000000003
sS'yes'
p111
F0.89568000000000003
sS'I:ap:o,I:dp:x'
p112
F0.00032000000000000003
sg79
F0.0028800000000000002
sS'I:ap:o,yes'
p113
F0.00032000000000000003
sg14
F0.0028800000000000002
sS'I:dp:o,I:dp:x'
p114
F0.00064000000000000005
sS'no'
p115
F0.0083199999999999993
sS'I:ap:o,I:ap:x'
p116
F0.00064000000000000005
sS'I:bn:x,I:dp:x'
p117
F0.00032000000000000003
sg21
F0.0092800000000000001
sS'I:ap:o,no'
p118
F0.00032000000000000003
sS'I:ap:o,I:dp:o,I:dp:x'
p119
F0.00032000000000000003
sS'I:ap:x,yes'
p120
F0.00064000000000000005
sS'I:dp:x,yes'
p121
F0.0016000000000000001
sg23
F0.014080000000000001
sS'I:ap:x,I:dp:x'
p122
F0.00032000000000000003
sS'I:ap:x,I:ap:x'
p123
F0.00032000000000000003
sg32
F0.0051200000000000004
sS'I:dp:o,yes'
p124
F0.00032000000000000003
sS'I:ap:x,no'
p125
F0.00032000000000000003
sS'I:ap:o,I:bn:x,I:dp:x'
p126
F0.00032000000000000003
sS'non-understanding'
p127
F0.046080000000000003
sS'I:dp:x,I:dp:x'
p128
F0.0012800000000000001
ssS'I:bn,I:dp,I:tt'
p129
(dp130
g23
F0.10000000000000001
sS'I:dp:o,I:tt:x'
p131
F0.10000000000000001
sg8
F0.20000000000000001
sS'I:ap:o,I:bn:o,I:dp:o,I:dp:x,I:tt:o'
p132
F0.10000000000000001
sS'I:bn:x,I:dp:x'
p133
F0.10000000000000001
sS'non-understanding'
p134
F0.10000000000000001
sg32
F0.20000000000000001
sS'I:bn:o,I:dp:x,I:dp:x,I:tt:o'
p135
F0.10000000000000001
ssS'non-understanding'
p136
(dp137
g10
F0.0021551724137931034
sg103
F0.99784482758620685
ss.