(dp0
S'HERRON'
p1
(dp2
S'CARNEGIE STREET'
p3
F0.25
sS'CHURCHILL'
p4
F0.75
ssS'CENTER AVENUE'
p5
(dp6
S'WILMERDING'
p7
F0.14285714285714285
sS'MILLVALE'
p8
F0.14285714285714285
sS'MEYRAN AVENUE'
p9
F0.14285714285714285
sS'TENTH AT ANN AVENUE'
p10
F0.14285714285714285
sS'CENTER AT LYSLE'
p11
F0.14285714285714285
sS'STRANMORE'
p12
F0.14285714285714285
sS'ROSS'
p13
F0.14285714285714285
ssS'SQUIRREL HILL'
p14
(dp15
S'BELL'
p16
F0.020833333333333332
sS'PARK'
p17
F0.020833333333333332
sS'MURRAY'
p18
F0.041666666666666664
sS'DOWNTOWN'
p19
F0.041666666666666664
sS'STATION'
p20
F0.020833333333333332
sS'EIGHTH'
p21
F0.020833333333333332
sS'BRADDOCK'
p22
F0.020833333333333332
sS'SIXTH'
p23
F0.020833333333333332
sS'PITT'
p24
F0.020833333333333332
sS'NORTH BRADDOCK'
p25
F0.020833333333333332
sS'MALL'
p26
F0.020833333333333332
sS'WOOD'
p27
F0.020833333333333332
sS'HILL'
p28
F0.3125
sS'MONROEVILLE'
p29
F0.0625
sS'NEVILLE'
p30
F0.020833333333333332
sS'SEVENTEENTH AT LIBERTY'
p31
F0.020833333333333332
sS'MORROWFIELD'
p32
F0.020833333333333332
sS'WESTWOOD'
p33
F0.020833333333333332
sS'SHADYSIDE'
p34
F0.020833333333333332
sS'CRAIG'
p35
F0.041666666666666664
sS'FORBES'
p36
F0.041666666666666664
sS'SCOTT'
p37
F0.020833333333333332
sS'FOURTH'
p38
F0.020833333333333332
sS'TENTH'
p39
F0.020833333333333332
sS"MACY'S"
p40
F0.020833333333333332
sS'ROSS'
p41
F0.0625
ssS'BELLEVUE'
p42
(dp43
S'NORTH'
p44
F0.090909090909090912
sS'BELL'
p45
F0.18181818181818182
sS'WALL'
p46
F0.090909090909090912
sS'TRENTON AT SOUTH'
p47
F0.090909090909090912
sS'MURRAY'
p48
F0.090909090909090912
sS'DOWNTOWN'
p49
F0.090909090909090912
sS'MALL'
p50
F0.090909090909090912
sS'HILTON'
p51
F0.090909090909090912
sS'MAGEE'
p52
F0.090909090909090912
sS'HIGHLAND'
p53
F0.090909090909090912
ssS'SOUTH HILLS JUNCTION'
p54
(dp55
S'BRADDOCK'
p56
F0.076923076923076927
sS'BELLEVUE'
p57
F0.076923076923076927
sS'THE HILTON'
p58
F0.076923076923076927
sS'DORMONT'
p59
F0.076923076923076927
sS'TENTH AT ANN'
p60
F0.076923076923076927
sS'HILL'
p61
F0.076923076923076927
sS'LIBRARY AT BELL'
p62
F0.076923076923076927
sS'OAKLAND'
p63
F0.076923076923076927
sS'SOUTH'
p64
F0.38461538461538464
ssS'KENNEDY'
p65
(dp66
S'AIRPORT'
p67
F0.25
sS'PITT'
p68
F0.25
sS'FIFTH AT CRAFT'
p69
F0.25
sS'FIFTH AND HALKET'
p70
F0.25
ssS'OAK'
p71
(dp72
S'HIGHLAND AND PENN'
p73
F0.090909090909090912
sS'WALL'
p74
F0.090909090909090912
sS'HOMEWOOD'
p75
F0.090909090909090912
sS'SEVENTH'
p76
F0.090909090909090912
sS'FRANKSTOWN'
p77
F0.090909090909090912
sS'WOOD'
p78
F0.090909090909090912
sS'MORGAN'
p79
F0.090909090909090912
sS'OAKLAND STREET'
p80
F0.090909090909090912
sS'OAKLAND'
p81
F0.18181818181818182
sS'ROSS'
p82
F0.090909090909090912
ssS'FRANKSTOWN AVENUE'
p83
(dp84
S'PENN AVENUE AND HIGHLAND'
p85
F0.25
sS'ROBINSON'
p86
F0.25
sS'SOUTH'
p87
F0.25
sS'FORBES AVE AND PRIDE'
p88
F0.25
ssS'CARNEGIE'
p89
(dp90
S'HAWKINS'
p91
F0.052631578947368418
sS'AMITY'
p92
F0.052631578947368418
sS'NORTH'
p93
F0.052631578947368418
sS'WALLACE'
p94
F0.052631578947368418
sS'KENNEDY'
p95
F0.052631578947368418
sS'WALL'
p96
F0.052631578947368418
sS'CRAIG'
p97
F0.052631578947368418
sS'CHARLES'
p98
F0.052631578947368418
sS'RANKIN'
p99
F0.052631578947368418
sS'BUSWAY'
p100
F0.052631578947368418
sS'THE ZOO'
p101
F0.052631578947368418
sS'BELL'
p102
F0.052631578947368418
sS'BAYARD'
p103
F0.052631578947368418
sS'HIGHLAND'
p104
F0.052631578947368418
sS'BIGELOW'
p105
F0.052631578947368418
sS'PENN'
p106
F0.052631578947368418
sS'MAIN'
p107
F0.052631578947368418
sS'SEVENTEENTH'
p108
F0.052631578947368418
sS'EIGHTH'
p109
F0.052631578947368418
ssS'HOMEWOOD AVENUE'
p110
(dp111
S'TENNYSON'
p112
F0.16666666666666666
sS'MALL'
p113
F0.16666666666666666
sS'HIGHLAND'
p114
F0.16666666666666666
sS'HOMEWOOD'
p115
F0.33333333333333331
sS'SOUTH'
p116
F0.16666666666666666
ssS'SWISSVALE STATION'
p117
(dp118
S'COAL'
p119
F0.20000000000000001
sS'STATION'
p120
F0.20000000000000001
sS'PERRYSVILLE'
p121
F0.20000000000000001
sS'FRIENDSHIP'
p122
F0.20000000000000001
sS'MAIN'
p123
F0.20000000000000001
ssS'CHESTERFIELD AT FIFTH'
p124
(dp125
S'MANCHESTER'
p126
F0.5
sS'PITT'
p127
F0.5
ssS'MURRAY AND FORBES'
p128
(dp129
S'FORBES'
p130
F1.0
ssS'MURRAY AND LORETTA'
p131
(dp132
S'GIANT EAGLE'
p133
F0.5
sS'GREENFIELD'
p134
F0.5
ssS'DOWNTOWN PITTSBURGH'
p135
(dp136
S'SIXTH AND SMITHFIELD'
p137
F0.020833333333333332
sS'WALL'
p138
F0.020833333333333332
sS'MARSHALL'
p139
F0.041666666666666664
sS'CARNEGIE'
p140
F0.020833333333333332
sS'FRANKSTOWN'
p141
F0.020833333333333332
sS'DOWNTOWN'
p142
F0.0625
sS'SOUTH SIDE'
p143
F0.020833333333333332
sS'ATWOOD'
p144
F0.020833333333333332
sS'LIBERTY AVENUE'
p145
F0.020833333333333332
sS'EIGHTH'
p146
F0.020833333333333332
sS'BRADDOCK'
p147
F0.020833333333333332
sS'MCKEESPORT'
p148
F0.020833333333333332
sS'MILLVALE'
p149
F0.020833333333333332
sS'CENTER'
p150
F0.0625
sS'TWENTY NINTH AND PENN'
p151
F0.020833333333333332
sS'ROSS STREET'
p152
F0.020833333333333332
sS'PITT'
p153
F0.041666666666666664
sS'COAL'
p154
F0.020833333333333332
sS'BAYARD'
p155
F0.020833333333333332
sS'PENN'
p156
F0.020833333333333332
sS'MOREWOOD AND FIFTH'
p157
F0.020833333333333332
sS'PITTSBURGH'
p158
F0.020833333333333332
sS'KENNEDY'
p159
F0.020833333333333332
sS'RALPH'
p160
F0.020833333333333332
sS'BLOOMFIELD'
p161
F0.020833333333333332
sS'MURRAY'
p162
F0.020833333333333332
sS'WATERFRONT'
p163
F0.020833333333333332
sS'CURRY'
p164
F0.020833333333333332
sS'FIFTH AND SMITHFIELD'
p165
F0.020833333333333332
sS'CHURCHILL'
p166
F0.020833333333333332
sS'WEST'
p167
F0.020833333333333332
sS'HUTCHINSON'
p168
F0.020833333333333332
sS'THE ZOO'
p169
F0.020833333333333332
sS'PINE'
p170
F0.020833333333333332
sS'FORBES'
p171
F0.020833333333333332
sS'FIFTH'
p172
F0.020833333333333332
sS'DYNAMO'
p173
F0.020833333333333332
sS'TENTH AND ANN'
p174
F0.020833333333333332
sS'MAIN'
p175
F0.020833333333333332
sS'TENTH'
p176
F0.020833333333333332
sS'YEW AND MILLVALE'
p177
F0.020833333333333332
sS'ROSS'
p178
F0.020833333333333332
ssS'WASHINGTON AND MONONGAHELA'
p179
(dp180
S'WASHINGTON AND NOBLE STREET'
p181
F1.0
ssS'COAL STREET'
p182
(dp183
S'WILKINSBURG'
p184
F1.0
ssS'EIGHTH'
p185
(dp186
S'WALL'
p187
F0.14285714285714285
sS'FORBES'
p188
F0.14285714285714285
sS'OAK'
p189
F0.14285714285714285
sS'PITT'
p190
F0.14285714285714285
sS'STANWIX STREET'
p191
F0.14285714285714285
sS'WEST PENN'
p192
F0.14285714285714285
sS'FIFTH'
p193
F0.14285714285714285
ssS'TEXAS'
p194
(dp195
S'PITT'
p196
F0.1111111111111111
sS'CARNEGIE'
p197
F0.1111111111111111
sS'CURRY STREET'
p198
F0.1111111111111111
sS'SOUTH'
p199
F0.1111111111111111
sS'FIFTY SIXTH'
p200
F0.1111111111111111
sS'DOWNTOWN PITTSBURGH'
p201
F0.1111111111111111
sS'WESTWOOD'
p202
F0.1111111111111111
sS'VERSAILLES'
p203
F0.1111111111111111
sS'MCKEESPORT'
p204
F0.1111111111111111
ssS'MCKEESPORT TRANSPORTATION CENTER'
p205
(dp206
S'EIGHTEENTH'
p207
F0.5
sS'VERONA'
p208
F0.5
ssS'BRADDOCK'
p209
(dp210
S'RODI'
p211
F0.088235294117647065
sS'BRIDGE'
p212
F0.029411764705882353
sS'FIFTH AT HUEY'
p213
F0.029411764705882353
sS'OAK'
p214
F0.029411764705882353
sS'RANKIN'
p215
F0.029411764705882353
sS'DOWNTOWN'
p216
F0.029411764705882353
sS'CLYDE'
p217
F0.029411764705882353
sS'SOUTH'
p218
F0.088235294117647065
sS'PLUM'
p219
F0.029411764705882353
sS'WALL'
p220
F0.029411764705882353
sS'HILL'
p221
F0.058823529411764705
sS'LINCOLN'
p222
F0.058823529411764705
sS'KENNEDY'
p223
F0.029411764705882353
sS'ZOO'
p224
F0.029411764705882353
sS'MCKEE'
p225
F0.029411764705882353
sS'SWISSVALE'
p226
F0.029411764705882353
sS'BRADDOCK AND FORBES'
p227
F0.029411764705882353
sS'FLEET'
p228
F0.029411764705882353
sS'BANK'
p229
F0.029411764705882353
sS'BELL AND ANN'
p230
F0.029411764705882353
sS'COURTHOUSE'
p231
F0.029411764705882353
sS'LAWRENCEVILLE'
p232
F0.029411764705882353
sS'HUTCHINSON'
p233
F0.058823529411764705
sS'FORBES'
p234
F0.029411764705882353
sS'ALLEGHENY'
p235
F0.029411764705882353
sS'MAIN'
p236
F0.058823529411764705
ssS'WOODSTOCK AVENUE'
p237
(dp238
S'SECOND AVENUE'
p239
F1.0
ssS'FIFTH AVENUE AND SHADY'
p240
(dp241
S'PENN AVENUE'
p242
F1.0
ssS'THE INTERNATIONAL AIRPORT'
p243
(dp244
S'PITTSBURGH INTERNATIONAL AIRPORT'
p245
F1.0
ssS'EIGHTH AVENUE'
p246
(dp247
S'NORTH'
p248
F0.125
sS'WALL'
p249
F0.25
sS'HOMEWOOD'
p250
F0.125
sS'PITT'
p251
F0.125
sS'PENN AND SHAW'
p252
F0.125
sS'EAST'
p253
F0.125
sS'HOMESTEAD'
p254
F0.125
ssS'PITT'
p255
(dp256
S'PITTSBURGH ZOO'
p257
F0.14285714285714285
sS'PITTSBURGH'
p258
F0.14285714285714285
sS'DOWNTOWN'
p259
F0.14285714285714285
sS'AIRPORT'
p260
F0.14285714285714285
sS'BAYARD'
p261
F0.14285714285714285
sS'NORTH'
p262
F0.14285714285714285
sS'VERSAILLES'
p263
F0.14285714285714285
ssS'THE MALL AT ROBINSON'
p264
(dp265
S'HEINZ HALL'
p266
F0.20000000000000001
sS'ROBINSON'
p267
F0.20000000000000001
sS'ANN AND BELL'
p268
F0.20000000000000001
sS'THE MALL'
p269
F0.40000000000000002
ssS'MAIN STREET'
p270
(dp271
S'FOURTH AVENUE'
p272
F1.0
ssS'TERRACE'
p273
(dp274
S'MARRIOTT'
p275
F1.0
ssS'EIGHTH AVENUE AND DICKSON'
p276
(dp277
S'MURDOCH'
p278
F1.0
ssS'MONROEVILLE'
p279
(dp280
S'NEGLEY'
p281
F0.038461538461538464
sS'WALL'
p282
F0.038461538461538464
sS'MURRAY'
p283
F0.038461538461538464
sS'DOWNTOWN'
p284
F0.038461538461538464
sS'THE ZOO'
p285
F0.038461538461538464
sS'HILTON'
p286
F0.038461538461538464
sS'UPTOWN'
p287
F0.076923076923076927
sS'EAST END'
p288
F0.038461538461538464
sS'OLIVER'
p289
F0.076923076923076927
sS'MILLVALE'
p290
F0.038461538461538464
sS'ANN AND EIGHTH'
p291
F0.038461538461538464
sS'PITT'
p292
F0.038461538461538464
sS'FORBES'
p293
F0.038461538461538464
sS'HILL'
p294
F0.038461538461538464
sS'NORTH SIDE'
p295
F0.038461538461538464
sS'WALLACE'
p296
F0.038461538461538464
sS'ELM'
p297
F0.038461538461538464
sS'SHADY'
p298
F0.038461538461538464
sS'MOREWOOD'
p299
F0.038461538461538464
sS'NORTH'
p300
F0.038461538461538464
sS'MONROEVILLE MALL'
p301
F0.11538461538461539
sS'WOOD'
p302
F0.038461538461538464
ssS'CENTRE AT CRAIG'
p303
(dp304
S'CENTRE AVENUE'
p305
F0.20000000000000001
sS'CENTRE AT NORTH'
p306
F0.20000000000000001
sS'NORTH'
p307
F0.20000000000000001
sS'FIFTH'
p308
F0.20000000000000001
sS'CRAIG AT FORBES'
p309
F0.20000000000000001
ssS'WATERWORKS MALL'
p310
(dp311
S'MURRAY AND FORBES'
p312
F0.25
sS'BRADDOCK'
p313
F0.25
sS'THE MALL'
p314
F0.25
sS'PITT'
p315
F0.25
ssS'STRIP DISTRICT'
p316
(dp317
S'STRANMORE'
p318
F1.0
ssS'FIFTH AND CRAIG'
p319
(dp320
S'EIGHTH AND ANN'
p321
F1.0
ssS'BEDFORD'
p322
(dp323
S'TENTH'
p324
F0.5
sS'EIGHTH'
p325
F0.5
ssS'BON AIR'
p326
(dp327
S'GRACE'
p328
F1.0
ssS'WEST AND PENN AVENUE'
p329
(dp330
S'MAIN'
p331
F0.5
sS'HUTCHINSON'
p332
F0.5
ssS'SPRING HILL'
p333
(dp334
S'SARAH'
p335
F0.076923076923076927
sS'SQUIRREL HILL'
p336
F0.076923076923076927
sS'GREENFIELD'
p337
F0.076923076923076927
sS'SPRING'
p338
F0.076923076923076927
sS'CARSON'
p339
F0.076923076923076927
sS'SWISSVALE'
p340
F0.076923076923076927
sS'FORBES'
p341
F0.076923076923076927
sS'HILL'
p342
F0.30769230769230771
sS'FOURTH'
p343
F0.076923076923076927
sS'SIXTH'
p344
F0.076923076923076927
ssS'FORTIETH STREET'
p345
(dp346
S'PENN'
p347
F0.25
sS'COLLEGE STREET'
p348
F0.25
sS'TWENTY SIXTH STREET AND PENN AVENUE'
p349
F0.25
sS'WALNUT'
p350
F0.25
ssS'CARSON STREET'
p351
(dp352
S'WALL'
p353
F0.20000000000000001
sS'SOUTH SIDE'
p354
F0.20000000000000001
sS'FORBES'
p355
F0.20000000000000001
sS'SHADY'
p356
F0.20000000000000001
sS'SOUTH'
p357
F0.20000000000000001
ssS'FIFTH AVE'
p358
(dp359
S'WALL'
p360
F0.14285714285714285
sS'THE MALL'
p361
F0.14285714285714285
sS'RANKIN'
p362
F0.14285714285714285
sS'MALL'
p363
F0.14285714285714285
sS'EIGHTEENTH'
p364
F0.2857142857142857
sS'EDGEWOOD AT ELM'
p365
F0.14285714285714285
ssS'EAST HILLS'
p366
(dp367
S'BEECHWOOD AND FORBES'
p368
F0.0625
sS'ALGER'
p369
F0.0625
sS'WAL-MART'
p370
F0.125
sS'SHADY'
p371
F0.0625
sS'PITT'
p372
F0.0625
sS'BUTLER'
p373
F0.0625
sS'MALL'
p374
F0.125
sS'WOOD'
p375
F0.0625
sS'FRANK AT HAZELWOOD'
p376
F0.0625
sS'KNOX'
p377
F0.0625
sS'NINETEENTH'
p378
F0.0625
sS'HIGHLAND'
p379
F0.0625
sS'ROBINSON'
p380
F0.0625
sS'EIGHTH'
p381
F0.0625
ssS'BELL AND JONES'
p382
(dp383
S'DOWNTOWN'
p384
F0.20000000000000001
sS'PENN'
p385
F0.20000000000000001
sS'WOOD AND HILL'
p386
F0.20000000000000001
sS'CENTRE AND AIKEN'
p387
F0.20000000000000001
sS'BELL'
p388
F0.20000000000000001
ssS'CARNEGIE MELLON'
p389
(dp390
S'RODI'
p391
F0.16666666666666666
sS'BRADDOCK'
p392
F0.16666666666666666
sS'CRAIG'
p393
F0.16666666666666666
sS'THE AIRPORT'
p394
F0.16666666666666666
sS'CURRY'
p395
F0.16666666666666666
sS'FIFTH AVENUE AND EVANS'
p396
F0.16666666666666666
ssS'SOUTH SIDE'
p397
(dp398
S'RODI'
p399
F0.090909090909090912
sS'OLIVER'
p400
F0.090909090909090912
sS'FOURTH'
p401
F0.090909090909090912
sS'TWENTY SECOND STREET'
p402
F0.090909090909090912
sS'VERONA'
p403
F0.090909090909090912
sS'SHADY'
p404
F0.090909090909090912
sS'MIDDLE'
p405
F0.090909090909090912
sS'MALL'
p406
F0.090909090909090912
sS'MORGAN'
p407
F0.090909090909090912
sS'POLISH HILL'
p408
F0.090909090909090912
sS'OAKLAND'
p409
F0.090909090909090912
ssS'HAMILTON'
p410
(dp411
S'PENN'
p412
F0.33333333333333331
sS'SCOTT'
p413
F0.33333333333333331
sS'LIBERTY'
p414
F0.33333333333333331
ssS'CHARLES AND BRIGHTON'
p415
(dp416
S'THE ZOO'
p417
F0.5
sS'GREENFIELD'
p418
F0.5
ssS'THE AIRPORT'
p419
(dp420
S'AIRPORT'
p421
F1.0
ssS'GIANT EAGLE'
p422
(dp423
S'MARKET AND FIFTH'
p424
F0.071428571428571425
sS'HERRON'
p425
F0.071428571428571425
sS'BELLEVUE'
p426
F0.21428571428571427
sS'ELM'
p427
F0.071428571428571425
sS'KELLY AT PEEBLES'
p428
F0.071428571428571425
sS'SHADY'
p429
F0.071428571428571425
sS'EAST HILLS'
p430
F0.071428571428571425
sS'PINE'
p431
F0.071428571428571425
sS'PENN AT SIXTEENTH'
p432
F0.071428571428571425
sS'MORGAN'
p433
F0.071428571428571425
sS'PENN'
p434
F0.071428571428571425
sS'TENTH'
p435
F0.071428571428571425
ssS'CHESTERFIELD AND FIFTH'
p436
(dp437
S'CHESTERFIELD AT FIFTH'
p438
F1.0
ssS'ROBINSON'
p439
(dp440
S'OLIVER'
p441
F0.083333333333333329
sS'PITT STREET'
p442
F0.083333333333333329
sS'MALL'
p443
F0.083333333333333329
sS'THE MALL'
p444
F0.083333333333333329
sS'AMANDA STREET'
p445
F0.083333333333333329
sS'PITT'
p446
F0.083333333333333329
sS'ROSS AND FIFTH'
p447
F0.083333333333333329
sS'HALKET AND FORBES'
p448
F0.083333333333333329
sS'FIFTH AND PRIDE'
p449
F0.16666666666666666
sS'POLISH HILL'
p450
F0.083333333333333329
sS'HIGHLAND'
p451
F0.083333333333333329
ssS'INGRAM STATION'
p452
(dp453
S'BAYARD'
p454
F1.0
ssS'BROWNSVILLE'
p455
(dp456
S'BRADDOCK'
p457
F0.14285714285714285
sS'SOUTH SIDE'
p458
F0.14285714285714285
sS'MALL'
p459
F0.14285714285714285
sS'HILL'
p460
F0.14285714285714285
sS'MILLTOWN AND HULTON'
p461
F0.14285714285714285
sS'HAZELWOOD'
p462
F0.14285714285714285
sS'GRACE'
p463
F0.14285714285714285
ssS'BRIGHTON'
p464
(dp465
S'NORTH'
p466
F0.10000000000000001
sS'CURRY AVENUE'
p467
F0.10000000000000001
sS'THIRTIETH AT PENN'
p468
F0.10000000000000001
sS'BUSWAY'
p469
F0.10000000000000001
sS'FORWARD'
p470
F0.10000000000000001
sS'MARRIOTT'
p471
F0.10000000000000001
sS'OAKLAND'
p472
F0.10000000000000001
sS'NORTH SIDE'
p473
F0.10000000000000001
sS'SOUTH'
p474
F0.10000000000000001
sS'CURRY AND BELL'
p475
F0.10000000000000001
ssS'MURRAY AVENUE'
p476
(dp477
S'COLLIER'
p478
F0.33333333333333331
sS'BRADDOCK'
p479
F0.33333333333333331
sS'SQUIRREL HILL'
p480
F0.33333333333333331
ssS'MOUNT OLIVER'
p481
(dp482
S'NOBLE'
p483
F0.043478260869565216
sS'OLIVER'
p484
F0.043478260869565216
sS'NORTH'
p485
F0.043478260869565216
sS'WALLACE'
p486
F0.043478260869565216
sS'BEACON AT EVANS'
p487
F0.043478260869565216
sS'WALL'
p488
F0.043478260869565216
sS'SMITHFIELD'
p489
F0.043478260869565216
sS'HOMEWOOD'
p490
F0.043478260869565216
sS'ELM'
p491
F0.086956521739130432
sS'DYNAMO'
p492
F0.043478260869565216
sS'MURDOCH'
p493
F0.043478260869565216
sS'PENN AVENUE AND SHADY'
p494
F0.043478260869565216
sS'BIGELOW'
p495
F0.043478260869565216
sS'MALL'
p496
F0.086956521739130432
sS'HAMILTON'
p497
F0.043478260869565216
sS'BUTLER'
p498
F0.043478260869565216
sS'SEVENTH AVENUE'
p499
F0.043478260869565216
sS'HIGHLAND'
p500
F0.043478260869565216
sS'MARSHALL'
p501
F0.043478260869565216
sS'BANK'
p502
F0.043478260869565216
sS'ROSS'
p503
F0.043478260869565216
ssS'WEST PENN HOSPITAL'
p504
(dp505
S'TENTH AND MILLVALE'
p506
F0.1111111111111111
sS'BRADDOCK AVENUE AT BIDDLE'
p507
F0.1111111111111111
sS'WALL'
p508
F0.22222222222222221
sS'SIXTH'
p509
F0.1111111111111111
sS'FIFTH AT LYSLE'
p510
F0.1111111111111111
sS'MAGEE'
p511
F0.1111111111111111
sS'LIBERTY AND MILLVALE'
p512
F0.1111111111111111
sS'ANN AT BELL'
p513
F0.1111111111111111
ssS'THE NORTH SIDE'
p514
(dp515
S'OHIO'
p516
F0.25
sS'WEST'
p517
F0.25
sS'OHIO STREET'
p518
F0.25
sS'FOURTH AVENUE'
p519
F0.25
ssS'LAWRENCEVILLE'
p520
(dp521
S'BRIDGE'
p522
F0.03125
sS'DOBSON'
p523
F0.0625
sS'PITTSBURGH'
p524
F0.0625
sS'PARK'
p525
F0.03125
sS'AIRPORT'
p526
F0.03125
sS'FIFTH AND HALKET'
p527
F0.03125
sS"SAM'S CLUB"
p528
F0.03125
sS'BRADDOCK AVE'
p529
F0.03125
sS'HOMEVILLE'
p530
F0.03125
sS'NORTH'
p531
F0.125
sS'MURRAY AVENUE AT LILAC'
p532
F0.03125
sS'MURRAY AVENUE'
p533
F0.03125
sS'WALL'
p534
F0.0625
sS'HENRIETTA AT BRADDOCK'
p535
F0.03125
sS'HILL'
p536
F0.09375
sS'ELLSWORTH'
p537
F0.03125
sS'NEVILLE'
p538
F0.03125
sS'FOURTH STREET'
p539
F0.03125
sS'ZOO'
p540
F0.03125
sS'OAKLAND'
p541
F0.03125
sS'THE ZOO'
p542
F0.03125
sS'FOURTH'
p543
F0.03125
sS'HIGHLAND'
p544
F0.03125
sS'WELFER'
p545
F0.03125
ssS'CRAIG'
p546
(dp547
S'FORBES'
p548
F0.40000000000000002
sS'OAK HILL'
p549
F0.20000000000000001
sS'FOURTH'
p550
F0.20000000000000001
sS'FIFTH'
p551
F0.20000000000000001
ssS'THE JUNCTION'
p552
(dp553
S'BELTZHOOVER'
p554
F0.090909090909090912
sS'JUNCTION'
p555
F0.090909090909090912
sS'WALLACE'
p556
F0.090909090909090912
sS'KNOX AVENUE'
p557
F0.18181818181818182
sS'WALL'
p558
F0.090909090909090912
sS'PLUM'
p559
F0.090909090909090912
sS'MAGEE'
p560
F0.090909090909090912
sS'MALL'
p561
F0.090909090909090912
sS'MONROEVILLE'
p562
F0.090909090909090912
sS'ROSS'
p563
F0.090909090909090912
ssS'MIFFLIN'
p564
(dp565
S'COAL'
p566
F0.33333333333333331
sS'EAST'
p567
F0.33333333333333331
sS'CHURCHILL'
p568
F0.33333333333333331
ssS'FRANKSTOWN'
p569
(dp570
S'NORTH BRADDOCK'
p571
F0.10344827586206896
sS'NEVILLE'
p572
F0.034482758620689655
sS'FRANKSTOWN AND MAIN'
p573
F0.10344827586206896
sS'FOURTH'
p574
F0.10344827586206896
sS'GRANT'
p575
F0.034482758620689655
sS'BAUM BOULEVARD'
p576
F0.034482758620689655
sS'HOMEWOOD'
p577
F0.20689655172413793
sS'FRANKSTOWN AVENUE'
p578
F0.034482758620689655
sS'LIBERTY'
p579
F0.10344827586206896
sS'BRUSHTON'
p580
F0.034482758620689655
sS'THE ZOO'
p581
F0.034482758620689655
sS'PENN AND MURTLAND'
p582
F0.034482758620689655
sS'MORGAN'
p583
F0.034482758620689655
sS'WEBSTER'
p584
F0.034482758620689655
sS'NORTH'
p585
F0.034482758620689655
sS'WALNUT'
p586
F0.034482758620689655
ssS'ATWOOD'
p587
(dp588
S'WOOD AND FIFTH'
p589
F1.0
ssS'WEST CARSON STREET'
p590
(dp591
S'BRIGHTON'
p592
F1.0
ssS'BUTLER STREET'
p593
(dp594
S'CRAIG'
p595
F0.14285714285714285
sS'COAL'
p596
F0.14285714285714285
sS'HILTON'
p597
F0.14285714285714285
sS'FOURTH'
p598
F0.2857142857142857
sS'FORWARD'
p599
F0.14285714285714285
sS'ANN AT BELL'
p600
F0.14285714285714285
ssS'PENN AVENUE AND FORTIETH STREET'
p601
(dp602
S'SHADY AND HIGHMONT'
p603
F0.33333333333333331
sS'HERRON'
p604
F0.33333333333333331
sS'CENTER'
p605
F0.33333333333333331
ssS'WILKINSBURG'
p606
(dp607
S'RODI'
p608
F0.0097087378640776691
sS'TRAFFORD'
p609
F0.038834951456310676
sS'EIGHTH AT DICKSON'
p610
F0.0097087378640776691
sS'BELL'
p611
F0.029126213592233011
sS'WALL'
p612
F0.067961165048543687
sS'BAUM BOULEVARD'
p613
F0.019417475728155338
sS'THIRTY SIXTH AT LIBERTY'
p614
F0.0097087378640776691
sS'MURRAY'
p615
F0.0097087378640776691
sS'HOMEWOOD AVENUE'
p616
F0.0097087378640776691
sS'DOWNTOWN'
p617
F0.038834951456310676
sS'AIRPORT'
p618
F0.0097087378640776691
sS'DOBSON AT BRERETON'
p619
F0.0097087378640776691
sS'HULTON AND TENTH'
p620
F0.0097087378640776691
sS'BROADWAY'
p621
F0.0097087378640776691
sS'PERRYSVILLE'
p622
F0.0097087378640776691
sS'SOUTH'
p623
F0.019417475728155338
sS'BELTZHOOVER'
p624
F0.0097087378640776691
sS'OLIVER'
p625
F0.019417475728155338
sS'NORTH'
p626
F0.0097087378640776691
sS'COAL'
p627
F0.019417475728155338
sS'WEST'
p628
F0.0097087378640776691
sS'REBECCA AND MILL'
p629
F0.0097087378640776691
sS'PITT'
p630
F0.019417475728155338
sS'THE BUS STATION'
p631
F0.0097087378640776691
sS'PITTSBURGH'
p632
F0.019417475728155338
sS'PEEBLES AND KELLY STREET'
p633
F0.0097087378640776691
sS'HILL'
p634
F0.019417475728155338
sS'MONROEVILLE'
p635
F0.0097087378640776691
sS'PENN'
p636
F0.019417475728155338
sS'MARRIOTT'
p637
F0.0097087378640776691
sS'ROSS'
p638
F0.019417475728155338
sS'LINCOLN'
p639
F0.029126213592233011
sS'OAK HILL'
p640
F0.0097087378640776691
sS'FOURTH'
p641
F0.0097087378640776691
sS'BESSEMER'
p642
F0.0097087378640776691
sS'ELM'
p643
F0.0097087378640776691
sS'STATION'
p644
F0.0097087378640776691
sS'SHADY'
p645
F0.0097087378640776691
sS'EAST HILLS'
p646
F0.019417475728155338
sS'LIBERTY'
p647
F0.029126213592233011
sS'EIGHTEENTH'
p648
F0.0097087378640776691
sS'NEVILLE'
p649
F0.0097087378640776691
sS'EIGHTH AND WEST'
p650
F0.0097087378640776691
sS'SWISSVALE'
p651
F0.0097087378640776691
sS'NORTH AND ARCH'
p652
F0.0097087378640776691
sS'FORWARD'
p653
F0.0097087378640776691
sS'MOREWOOD'
p654
F0.0097087378640776691
sS'SOUTH BRADDOCK AVENUE'
p655
F0.0097087378640776691
sS'WILMERDING'
p656
F0.019417475728155338
sS'PENN AND NINTH'
p657
F0.0097087378640776691
sS'AIKEN'
p658
F0.0097087378640776691
sS'REBECCA'
p659
F0.0097087378640776691
sS'WILKINS'
p660
F0.029126213592233011
sS'WALNUT'
p661
F0.0097087378640776691
sS'WAL-MART'
p662
F0.0097087378640776691
sS'FORBES'
p663
F0.048543689320388349
sS'MORGAN'
p664
F0.0097087378640776691
sS'BUS STATION'
p665
F0.0097087378640776691
sS'BIGELOW'
p666
F0.0097087378640776691
sS'MAIN'
p667
F0.0097087378640776691
sS'TENTH'
p668
F0.0097087378640776691
sS'HOMEWOOD'
p669
F0.048543689320388349
sS'VERSAILLES'
p670
F0.0097087378640776691
sS'MCKEESPORT'
p671
F0.0097087378640776691
ssS'FORBES AND MOREWOOD'
p672
(dp673
S'BUS STATION'
p674
F1.0
ssS'MAIN AND GRACE'
p675
(dp676
S'OAKLAND'
p677
F0.5
sS'ATWOOD'
p678
F0.5
ssS'PENN AND NEGLEY'
p679
(dp680
S'SARAH'
p681
F0.071428571428571425
sS'HERRON'
p682
F0.071428571428571425
sS'NORTH'
p683
F0.071428571428571425
sS'CENTER'
p684
F0.071428571428571425
sS'PENN AVENUE'
p685
F0.071428571428571425
sS'BRIGHTON AND RIDGE'
p686
F0.071428571428571425
sS'MIFFLIN'
p687
F0.071428571428571425
sS'COAL'
p688
F0.071428571428571425
sS'SOUTH SIDE'
p689
F0.14285714285714285
sS'NEGLEY'
p690
F0.14285714285714285
sS'HILL'
p691
F0.071428571428571425
sS'PENN'
p692
F0.071428571428571425
ssS'HOMEWOOD STATION'
p693
(dp694
S'PENN'
p695
F0.5
sS'HOMEWOOD'
p696
F0.5
ssS'EAST PITTSBURGH'
p697
(dp698
S'MAIN'
p699
F0.1111111111111111
sS'FIFTH'
p700
F0.1111111111111111
sS'EAST'
p701
F0.1111111111111111
sS'COAL'
p702
F0.1111111111111111
sS'HILL'
p703
F0.1111111111111111
sS'MURRAY AT LILAC'
p704
F0.1111111111111111
sS'EIGHTH'
p705
F0.22222222222222221
sS'SOUTH'
p706
F0.1111111111111111
ssS"MACY'S"
p707
(dp708
S'NINTH AT ANN'
p709
F1.0
ssS'ROSS'
p710
(dp711
S'DOWNTOWN'
p712
F0.25
sS'WALL'
p713
F0.25
sS'MAGEE'
p714
F0.25
sS'DOWNTOWN PITTSBURGH'
p715
F0.25
ssS'HIGHLAND PARK'
p716
(dp717
S'HERRON'
p718
F0.14285714285714285
sS'BRADDOCK'
p719
F0.071428571428571425
sS'SQUIRREL HILL'
p720
F0.071428571428571425
sS'NORTH'
p721
F0.071428571428571425
sS'WALL'
p722
F0.14285714285714285
sS'PARK'
p723
F0.071428571428571425
sS'OAK'
p724
F0.071428571428571425
sS'LIBRARY'
p725
F0.071428571428571425
sS'COAL'
p726
F0.071428571428571425
sS'MORNINGSIDE'
p727
F0.071428571428571425
sS'OAKLAND'
p728
F0.071428571428571425
sS'MAIN'
p729
F0.071428571428571425
ssS'SHERADEN'
p730
(dp731
S'DOWNTOWN'
p732
F0.16666666666666666
sS'BUS STATION'
p733
F0.33333333333333331
sS'FORBES'
p734
F0.16666666666666666
sS'FEDERAL'
p735
F0.16666666666666666
sS'PENN'
p736
F0.16666666666666666
ssS'BELL'
p737
(dp738
S'DYNAMO'
p739
F0.16666666666666666
sS'WALL'
p740
F0.33333333333333331
sS'SOUTH NEGLEY AVENUE'
p741
F0.16666666666666666
sS'SHADYSIDE'
p742
F0.16666666666666666
sS'FIFTH'
p743
F0.16666666666666666
ssS'WARRINGTON'
p744
(dp745
S'NORTH'
p746
F0.16666666666666666
sS'SHERADEN'
p747
F0.16666666666666666
sS'HAWKINS AND MIDDLE'
p748
F0.16666666666666666
sS'WALL'
p749
F0.16666666666666666
sS'FIFTH AVENUE'
p750
F0.16666666666666666
sS'CARNEGIE'
p751
F0.16666666666666666
ssS'PRESBY'
p752
(dp753
S'WALL'
p754
F1.0
ssS'BELTZHOOVER AVENUE AND CHARLES'
p755
(dp756
S'BRADDOCK'
p757
F0.5
sS'CHARLES'
p758
F0.5
ssS'MCKEE STREET'
p759
(dp760
S'COAL'
p761
F1.0
ssS'THIRTY NINTH STREET'
p762
(dp763
S'DORMONT'
p764
F1.0
ssS"CHILDREN'S HOSPITAL"
p765
(dp766
S'PLUM'
p767
F1.0
ssS'PIONEER'
p768
(dp769
S'KELLY'
p770
F1.0
ssS'WEST'
p771
(dp772
S'EIGHTEENTH STREET'
p773
F0.055555555555555552
sS'SQUIRREL HILL'
p774
F0.055555555555555552
sS'HUEY'
p775
F0.055555555555555552
sS'ELM'
p776
F0.055555555555555552
sS'CURRY AT BELL'
p777
F0.055555555555555552
sS'PITT'
p778
F0.055555555555555552
sS'MURRAY'
p779
F0.055555555555555552
sS'RANKIN'
p780
F0.055555555555555552
sS'BROOKLINE'
p781
F0.055555555555555552
sS'FORBES'
p782
F0.055555555555555552
sS'CEDAR'
p783
F0.055555555555555552
sS'PENN AT NINTH'
p784
F0.055555555555555552
sS'CRAIG AT FIFTH'
p785
F0.055555555555555552
sS'CRAFT'
p786
F0.055555555555555552
sS'MAIN'
p787
F0.055555555555555552
sS'TALBOT AT EIGHTH'
p788
F0.055555555555555552
sS'PLUM'
p789
F0.055555555555555552
sS'SOUTH'
p790
F0.055555555555555552
ssS'MANCHESTER'
p791
(dp792
S'PENN'
p793
F1.0
ssS'LIBERTY AVENUE'
p794
(dp795
S'WALLACE'
p796
F0.14285714285714285
sS'PITTSBURGH'
p797
F0.14285714285714285
sS'LIBERTY AND MAIN'
p798
F0.14285714285714285
sS'SEVENTH STREET'
p799
F0.14285714285714285
sS'MAIN STREET'
p800
F0.14285714285714285
sS'LIBERTY AT HERRON'
p801
F0.14285714285714285
sS'TENTH'
p802
F0.14285714285714285
ssS'FORBES AT MURRAY'
p803
(dp804
S'FORBES AND GIST'
p805
F0.20000000000000001
sS'FORBES AND CRAIG'
p806
F0.20000000000000001
sS'FORBES AND MURRAY'
p807
F0.59999999999999998
ssS'CMU'
p808
(dp809
S'MOUNT OLIVER'
p810
F0.1111111111111111
sS'SEVENTH'
p811
F0.1111111111111111
sS'RANKIN'
p812
F0.1111111111111111
sS'DORMONT'
p813
F0.1111111111111111
sS'COAL'
p814
F0.1111111111111111
sS'AIRPORT'
p815
F0.22222222222222221
sS'HILL'
p816
F0.1111111111111111
sS'BELLEFIELD'
p817
F0.1111111111111111
ssS'PENN AT HIGHLAND'
p818
(dp819
S'NORTH CRAIG STREET'
p820
F0.33333333333333331
sS'POINT BREEZE'
p821
F0.33333333333333331
sS'SEVENTH'
p822
F0.33333333333333331
ssS'EAST SIXTH STREET'
p823
(dp824
S'DOWNTOWN'
p825
F1.0
ssS'BELTZHOOVER'
p826
(dp827
S'PARK AVENUE'
p828
F0.20000000000000001
sS'BELLEFIELD'
p829
F0.20000000000000001
sS'NORTH AVENUE'
p830
F0.20000000000000001
sS'MARYLAND'
p831
F0.20000000000000001
sS'MEYRAN AVENUE'
p832
F0.20000000000000001
ssS'CARSON'
p833
(dp834
S'PITTSBURGH'
p835
F0.66666666666666663
sS'SECOND'
p836
F0.33333333333333331
ssS'MILLVALE'
p837
(dp838
S'MAIN AND PENN'
p839
F0.25
sS'PENN'
p840
F0.25
sS'SOUTH'
p841
F0.25
sS'WEST PENN'
p842
F0.25
ssS'CENTER'
p843
(dp844
S'LIBRARY STREET'
p845
F0.1111111111111111
sS'EIGHTH STREET'
p846
F0.1111111111111111
sS'PITTSBURGH'
p847
F0.33333333333333331
sS'TENTH AT ANN'
p848
F0.1111111111111111
sS'WOOD AND WALLACE'
p849
F0.1111111111111111
sS'EAST'
p850
F0.1111111111111111
sS'TENTH'
p851
F0.1111111111111111
ssS'SECOND AT GRANT'
p852
(dp853
S'MCKEESPORT TRANSPORTATION CENTER'
p854
F1.0
ssS'CRAIG AND PARK PLAZA'
p855
(dp856
S'CENTER'
p857
F0.18181818181818182
sS'BELL'
p858
F0.18181818181818182
sS'FEDERAL'
p859
F0.090909090909090912
sS'CRAIG'
p860
F0.090909090909090912
sS'COAL'
p861
F0.090909090909090912
sS'AIRPORT'
p862
F0.090909090909090912
sS'FIFTH'
p863
F0.090909090909090912
sS'CURRY'
p864
F0.090909090909090912
sS'SOUTH'
p865
F0.090909090909090912
ssS'ELEVENTH'
p866
(dp867
S'EIGHTH'
p868
F1.0
ssS'CENTRE AVENUE AND EWART'
p869
(dp870
S'CENTRE AVENUE AND KIRKPATRICK'
p871
F1.0
ssS'PINE'
p872
(dp873
S'PITTSBURGH'
p874
F1.0
ssS'WEST LIBERTY AVENUE'
p875
(dp876
S'COLLIER'
p877
F1.0
ssS'THE MALL'
p878
(dp879
S'ELM'
p880
F1.0
ssS'SECOND AND GRANT'
p881
(dp882
S'PENNSYLVANIA'
p883
F0.33333333333333331
sS'DUQUESNE'
p884
F0.33333333333333331
sS'GRACE'
p885
F0.33333333333333331
ssS'PENN AT NEGLEY'
p886
(dp887
S'BENNETT'
p888
F0.5
sS'NEGLEY AT BENNETT'
p889
F0.5
ssS'MALL'
p890
(dp891
S'DUQUESNE'
p892
F0.10000000000000001
sS'WALL'
p893
F0.10000000000000001
sS'PITT'
p894
F0.10000000000000001
sS'BLOOMFIELD'
p895
F0.10000000000000001
sS'MONROEVILLE MALL'
p896
F0.10000000000000001
sS'FORBES'
p897
F0.10000000000000001
sS'FOURTH'
p898
F0.10000000000000001
sS'MONROEVILLE'
p899
F0.10000000000000001
sS'GIANT EAGLE'
p900
F0.10000000000000001
sS'EAST'
p901
F0.10000000000000001
ssS'CARNEGIE MELLON UNIVERSITY'
p902
(dp903
S'SIXTH'
p904
F0.25
sS'NEVILLE'
p905
F0.25
sS'SHADY AND FORBES'
p906
F0.25
sS'CARNEGIE'
p907
F0.25
ssS'HILL'
p908
(dp909
S'SQUIRREL HILL'
p910
F0.25
sS'NORTH'
p911
F0.125
sS'WALL'
p912
F0.125
sS'MIFFLIN'
p913
F0.125
sS'WILKINS'
p914
F0.125
sS'OAK HILL'
p915
F0.125
sS'MAIN'
p916
F0.125
ssS'NEGLEY AVENUE'
p917
(dp918
S'TALBOT'
p919
F0.33333333333333331
sS'SHADYSIDE'
p920
F0.33333333333333331
sS'SOUTH BRADDOCK'
p921
F0.33333333333333331
ssS'FIFTH AND THACKERAY'
p922
(dp923
S'FORBES AND FIFTH'
p924
F1.0
ssS'EAST BUSWAY'
p925
(dp926
S'BRIDGE'
p927
F0.071428571428571425
sS'BUS STATION'
p928
F0.071428571428571425
sS'HOMEWOOD'
p929
F0.35714285714285715
sS'BEECHWOOD'
p930
F0.071428571428571425
sS'SOUTH BRADDOCK'
p931
F0.071428571428571425
sS'WOOD'
p932
F0.071428571428571425
sS'FOURTH'
p933
F0.14285714285714285
sS'EIGHTH'
p934
F0.071428571428571425
sS'SOUTH'
p935
F0.071428571428571425
ssS'PINE AVENUE'
p936
(dp937
S'PENN AND TWENTY NINTH'
p938
F1.0
ssS'DUQUESNE'
p939
(dp940
S'EDGEWOOD'
p941
F0.021276595744680851
sS'BRIDGE'
p942
F0.063829787234042548
sS'SQUIRREL HILL'
p943
F0.021276595744680851
sS'WALL'
p944
F0.021276595744680851
sS'CARNEGIE'
p945
F0.021276595744680851
sS'DOWNTOWN'
p946
F0.021276595744680851
sS'HILTON'
p947
F0.021276595744680851
sS'EIGHTH'
p948
F0.021276595744680851
sS'SOUTH'
p949
F0.021276595744680851
sS'HOMEVILLE'
p950
F0.021276595744680851
sS'NORTH'
p951
F0.021276595744680851
sS'HOMEWOOD'
p952
F0.021276595744680851
sS'SECOND AND GRANT'
p953
F0.021276595744680851
sS'PITT'
p954
F0.042553191489361701
sS'KENNYWOOD'
p955
F0.021276595744680851
sS'COAL'
p956
F0.042553191489361701
sS'GRACE'
p957
F0.021276595744680851
sS'FIFTH'
p958
F0.021276595744680851
sS'NEVILLE'
p959
F0.042553191489361701
sS'BRADDOCK'
p960
F0.021276595744680851
sS'FORWARD'
p961
F0.021276595744680851
sS'MILLVALE'
p962
F0.021276595744680851
sS'MURRAY STREET'
p963
F0.021276595744680851
sS'DUQUESNE AND MAGEE'
p964
F0.021276595744680851
sS'THE HILTON'
p965
F0.021276595744680851
sS'PENNSYLVANIA'
p966
F0.063829787234042548
sS'ANN'
p967
F0.021276595744680851
sS'AMITY'
p968
F0.021276595744680851
sS'PITCAIRN'
p969
F0.021276595744680851
sS'SCOTT'
p970
F0.021276595744680851
sS'MORGAN'
p971
F0.042553191489361701
sS'BIGELOW'
p972
F0.021276595744680851
sS'MAIN'
p973
F0.021276595744680851
sS'TENTH'
p974
F0.021276595744680851
sS'MCKEESPORT'
p975
F0.10638297872340426
ssS'ROSS STREET'
p976
(dp977
S'PENN AND SIXTEENTH'
p978
F0.5
sS'TRAFFORD'
p979
F0.5
ssS'FOURTH STREET'
p980
(dp981
S'BRADDOCK'
p982
F0.5
sS'FIFTH AT NEVILLE'
p983
F0.5
ssS'SHADY'
p984
(dp985
S'PENN'
p986
F0.25
sS'EAST LIBERTY'
p987
F0.25
sS'NEGLEY'
p988
F0.25
sS'THE WATERFRONT'
p989
F0.25
ssS'SWISSVALE AVENUE'
p990
(dp991
S'MAIN AT WEST'
p992
F1.0
ssS'WASHINGTON'
p993
(dp994
S'WALL'
p995
F0.20000000000000001
sS'COAL'
p996
F0.20000000000000001
sS'MAIN'
p997
F0.20000000000000001
sS'EAST END'
p998
F0.20000000000000001
sS'PARK'
p999
F0.20000000000000001
ssS'LIBERTY'
p1000
(dp1001
S'BRIDGE'
p1002
F0.125
sS'CENTER'
p1003
F0.125
sS'SHERADEN'
p1004
F0.0625
sS'BEACON AT EVANS'
p1005
F0.125
sS'WALL'
p1006
F0.125
sS'MIFFLIN'
p1007
F0.0625
sS'BRUSHTON'
p1008
F0.0625
sS'DOWNTOWN'
p1009
F0.0625
sS'SCOTT'
p1010
F0.0625
sS'FOURTH'
p1011
F0.0625
sS'PENN AT FORTIETH'
p1012
F0.0625
sS'WEBSTER'
p1013
F0.0625
ssS'ZOO'
p1014
(dp1015
S'EAST LIBERTY'
p1016
F1.0
ssS'SMITHFIELD STREET'
p1017
(dp1018
S'DOWNTOWN'
p1019
F0.5
sS'ZOO'
p1020
F0.5
ssS'SWISSVALE'
p1021
(dp1022
S'FOREST HILLS'
p1023
F0.014925373134328358
sS'WALL'
p1024
F0.089552238805970144
sS'EDGEWOOD AVENUE'
p1025
F0.029850746268656716
sS'DOWNTOWN'
p1026
F0.014925373134328358
sS'EAST COMMONS'
p1027
F0.014925373134328358
sS'STATION'
p1028
F0.059701492537313432
sS'PENN AT MAIN'
p1029
F0.014925373134328358
sS'BELL STATION'
p1030
F0.014925373134328358
sS'EIGHTH'
p1031
F0.014925373134328358
sS'SOUTH'
p1032
F0.014925373134328358
sS'BUSWAY'
p1033
F0.014925373134328358
sS'PLUM'
p1034
F0.014925373134328358
sS'PITT'
p1035
F0.014925373134328358
sS'TENNYSON'
p1036
F0.014925373134328358
sS'NORTH BRADDOCK'
p1037
F0.014925373134328358
sS'PITTSBURGH'
p1038
F0.014925373134328358
sS'WOOD'
p1039
F0.029850746268656716
sS'HILL'
p1040
F0.1044776119402985
sS'MONROEVILLE'
p1041
F0.014925373134328358
sS'EAST'
p1042
F0.014925373134328358
sS'FIFTH'
p1043
F0.014925373134328358
sS'GIST'
p1044
F0.014925373134328358
sS'ELM'
p1045
F0.014925373134328358
sS'STRIP'
p1046
F0.014925373134328358
sS'RALPH'
p1047
F0.014925373134328358
sS'ZOO'
p1048
F0.044776119402985072
sS'MIDDLE'
p1049
F0.014925373134328358
sS'HULTON'
p1050
F0.014925373134328358
sS'BAUSMAN'
p1051
F0.014925373134328358
sS'BRIGHTON'
p1052
F0.014925373134328358
sS'NOBLE'
p1053
F0.014925373134328358
sS'NEVILLE AT FIFTH'
p1054
F0.014925373134328358
sS'SIXTH STREET'
p1055
F0.014925373134328358
sS'SMITHFIELD STREET'
p1056
F0.014925373134328358
sS'LAWRENCEVILLE'
p1057
F0.029850746268656716
sS'TENTH'
p1058
F0.014925373134328358
sS'HAWKINS AND OVERLAND'
p1059
F0.014925373134328358
sS'FRANKSTOWN'
p1060
F0.044776119402985072
sS'ROBINSON STREET'
p1061
F0.014925373134328358
sS'FORBES'
p1062
F0.029850746268656716
sS'FOURTH'
p1063
F0.014925373134328358
sS'POLISH HILL'
p1064
F0.014925373134328358
sS'OAKLAND'
p1065
F0.014925373134328358
sS'EAST PITTSBURGH'
p1066
F0.014925373134328358
sS'PENN STATION'
p1067
F0.014925373134328358
ssS'POINT BREEZE'
p1068
(dp1069
S'HOMEWOOD'
p1070
F0.5
sS'WOOD'
p1071
F0.5
ssS'FIFTH AVENUE AND SHADY AVENUE'
p1072
(dp1073
S'PITTSBURGH'
p1074
F0.5
sS'SHADYSIDE'
p1075
F0.5
ssS'MILL AT FRANKLIN'
p1076
(dp1077
S'WEST'
p1078
F1.0
ssS'HUEY'
p1079
(dp1080
S'MAIN AT MARION'
p1081
F0.5
sS'MOREWOOD AND FIFTH'
p1082
F0.5
ssS'WILMERDING'
p1083
(dp1084
S'MURRAY STREET'
p1085
F0.037037037037037035
sS'MAIN'
p1086
F0.037037037037037035
sS'DUQUESNE'
p1087
F0.037037037037037035
sS'FOURTH'
p1088
F0.037037037037037035
sS'WAL-MART'
p1089
F0.22222222222222221
sS'PITTSBURGH'
p1090
F0.037037037037037035
sS'PLUM'
p1091
F0.037037037037037035
sS'THACKERY'
p1092
F0.037037037037037035
sS'LIBRARY'
p1093
F0.037037037037037035
sS'WALL'
p1094
F0.1111111111111111
sS'MURRAY'
p1095
F0.037037037037037035
sS'WILKINSBURG'
p1096
F0.037037037037037035
sS'PINE'
p1097
F0.037037037037037035
sS'MORGAN'
p1098
F0.07407407407407407
sS'OAKLAND'
p1099
F0.07407407407407407
sS'PERRYSVILLE'
p1100
F0.037037037037037035
sS'HOMEWOOD'
p1101
F0.037037037037037035
sS'HILL'
p1102
F0.037037037037037035
ssS'TWENTY SIXTH AT LIBERTY'
p1103
(dp1104
S'TALBOT'
p1105
F0.5
sS'MAGEE'
p1106
F0.5
ssS'SIXTH STREET'
p1107
(dp1108
S'WALL'
p1109
F1.0
ssS'OHIO STREET'
p1110
(dp1111
S'CRAFT'
p1112
F0.25
sS'BAUSMAN AT BERND'
p1113
F0.25
sS'MORGAN'
p1114
F0.25
sS'EAST OHIO STREET AND CHESTNUT'
p1115
F0.25
ssS'TRAFFORD'
p1116
(dp1117
S'SEVENTEENTH'
p1118
F0.045454545454545456
sS'OAKLAND'
p1119
F0.045454545454545456
sS'DUQUESNE'
p1120
F0.045454545454545456
sS'CENTER'
p1121
F0.045454545454545456
sS'WALLACE'
p1122
F0.045454545454545456
sS'BELL'
p1123
F0.045454545454545456
sS'PITTSBURGH'
p1124
F0.045454545454545456
sS'SIXTH'
p1125
F0.045454545454545456
sS'AIKEN'
p1126
F0.045454545454545456
sS'RALPH'
p1127
F0.045454545454545456
sS'WALL'
p1128
F0.13636363636363635
sS'SWISSVALE'
p1129
F0.045454545454545456
sS'MORGAN'
p1130
F0.045454545454545456
sS'SPRING'
p1131
F0.045454545454545456
sS'FIFTH AT WOOD'
p1132
F0.045454545454545456
sS'TENTH AND ANN'
p1133
F0.045454545454545456
sS'WHITAKER'
p1134
F0.045454545454545456
sS'CURRY'
p1135
F0.045454545454545456
sS'SOUTH'
p1136
F0.045454545454545456
sS'ROSS'
p1137
F0.045454545454545456
ssS'SOUTH'
p1138
(dp1139
S'WALL'
p1140
F0.050000000000000003
sS'EAST BUSWAY'
p1141
F0.050000000000000003
sS'JUNCTION'
p1142
F0.050000000000000003
sS'THE JUNCTION'
p1143
F0.050000000000000003
sS'PITTSBURGH'
p1144
F0.050000000000000003
sS'SOUTH HILLS JUNCTION'
p1145
F0.050000000000000003
sS'NORTH BRADDOCK'
p1146
F0.050000000000000003
sS'HIGH'
p1147
F0.050000000000000003
sS'HEINZ HALL'
p1148
F0.050000000000000003
sS'SOUTH SIDE'
p1149
F0.10000000000000001
sS'SOUTH AND PITT'
p1150
F0.050000000000000003
sS'SCOTT'
p1151
F0.050000000000000003
sS'TWENTIETH'
p1152
F0.050000000000000003
sS'CRAIG'
p1153
F0.050000000000000003
sS'EAST END'
p1154
F0.050000000000000003
sS'OAKMONT'
p1155
F0.050000000000000003
sS'MAIN'
p1156
F0.050000000000000003
sS'FIFTH AT MAGEE'
p1157
F0.050000000000000003
sS'TWENTY FIRST STREET'
p1158
F0.050000000000000003
ssS'MONROEVILLE MALL'
p1159
(dp1160
S'WALL'
p1161
F1.0
ssS'MURRAY AND PHILLIPS'
p1162
(dp1163
S'MURDOCH AND FORBES'
p1164
F1.0
ssS'HIGHLAND AVENUE'
p1165
(dp1166
S'HIGHLAND'
p1167
F1.0
ssS'WOOD'
p1168
(dp1169
S'HAY STREET'
p1170
F0.0625
sS'GRANT'
p1171
F0.0625
sS'MIFFLIN'
p1172
F0.0625
sS'CRAIG AT FIFTH AVENUE'
p1173
F0.0625
sS'FIFTH AVE'
p1174
F0.0625
sS'ANN AND TENTH'
p1175
F0.0625
sS'TENTH AT ANN'
p1176
F0.125
sS'THE AIRPORT'
p1177
F0.0625
sS'FORWARD'
p1178
F0.0625
sS'TENTH AND ANN'
p1179
F0.0625
sS'OAKLAND'
p1180
F0.0625
sS'CENTRE AVENUE'
p1181
F0.0625
sS'MORNINGSIDE'
p1182
F0.0625
sS'BRIGHTON'
p1183
F0.125
ssS'WILKINSBURG STATION'
p1184
(dp1185
S'WALL'
p1186
F0.22222222222222221
sS'HOMEWOOD'
p1187
F0.1111111111111111
sS'MURRAY'
p1188
F0.1111111111111111
sS'DOWNTOWN'
p1189
F0.1111111111111111
sS'COAL'
p1190
F0.1111111111111111
sS'STATION'
p1191
F0.1111111111111111
sS'CRAFT'
p1192
F0.1111111111111111
sS'TEXAS'
p1193
F0.1111111111111111
ssS'FOURTH'
p1194
(dp1195
S'NORTH'
p1196
F0.083333333333333329
sS'KENNEDY'
p1197
F0.083333333333333329
sS'LAWRENCEVILLE'
p1198
F0.083333333333333329
sS'FORBES AND BRADDOCK'
p1199
F0.083333333333333329
sS'MIFFLIN'
p1200
F0.083333333333333329
sS'CAMP AND DUQUESNE'
p1201
F0.083333333333333329
sS'PITT'
p1202
F0.083333333333333329
sS'WALL'
p1203
F0.083333333333333329
sS'FIFTH AT OAKLAND'
p1204
F0.083333333333333329
sS'DUQUESNE'
p1205
F0.083333333333333329
sS"MACY'S"
p1206
F0.083333333333333329
sS'MCKEESPORT'
p1207
F0.083333333333333329
ssS'DYNAMO'
p1208
(dp1209
S'CRAIG'
p1210
F0.33333333333333331
sS'HOMEWOOD'
p1211
F0.33333333333333331
sS'EAST'
p1212
F0.33333333333333331
ssS'OAKLAND'
p1213
(dp1214
S'RODI'
p1215
F0.0095238095238095247
sS'MCKEESPORT'
p1216
F0.0095238095238095247
sS'SQUIRREL HILL'
p1217
F0.0095238095238095247
sS'BELLEVUE'
p1218
F0.0095238095238095247
sS'SHERADEN'
p1219
F0.019047619047619049
sS'BELTZHOOVER'
p1220
F0.0095238095238095247
sS'WALL'
p1221
F0.11428571428571428
sS'THE ZOO'
p1222
F0.0095238095238095247
sS'OAK'
p1223
F0.019047619047619049
sS'RANKIN'
p1224
F0.0095238095238095247
sS'DOWNTOWN'
p1225
F0.0095238095238095247
sS'HULTON'
p1226
F0.0095238095238095247
sS'AIRPORT'
p1227
F0.019047619047619049
sS'JEFFERSON'
p1228
F0.0095238095238095247
sS'HILTON'
p1229
F0.019047619047619049
sS'DOWNTOWN PITTSBURGH'
p1230
F0.0095238095238095247
sS'UPTOWN'
p1231
F0.0095238095238095247
sS'OAKMONT'
p1232
F0.0095238095238095247
sS'EIGHTH'
p1233
F0.019047619047619049
sS'SOUTH'
p1234
F0.038095238095238099
sS'WATERFRONT'
p1235
F0.0095238095238095247
sS'WILKINSBURG'
p1236
F0.0095238095238095247
sS'BRADDOCK'
p1237
F0.0095238095238095247
sS'OLIVER'
p1238
F0.019047619047619049
sS'EAST END'
p1239
F0.0095238095238095247
sS'CRAIG STREET'
p1240
F0.0095238095238095247
sS'FORBES'
p1241
F0.019047619047619049
sS'COAL'
p1242
F0.028571428571428571
sS'INDIANA'
p1243
F0.0095238095238095247
sS'CARNEGIE MELLON UNIVERSITY'
p1244
F0.0095238095238095247
sS'LORETTA STREET'
p1245
F0.0095238095238095247
sS'HILL'
p1246
F0.019047619047619049
sS'WOOD'
p1247
F0.0095238095238095247
sS'COLLIER'
p1248
F0.0095238095238095247
sS'EAST'
p1249
F0.0095238095238095247
sS'NORTH SIDE'
p1250
F0.0095238095238095247
sS'FIFTH'
p1251
F0.0095238095238095247
sS'BRIDGE'
p1252
F0.0095238095238095247
sS'NEVILLE'
p1253
F0.0095238095238095247
sS'OAK HILL'
p1254
F0.0095238095238095247
sS'MORGAN'
p1255
F0.0095238095238095247
sS'TEXAS'
p1256
F0.0095238095238095247
sS'ELM'
p1257
F0.0095238095238095247
sS'DUQUESNE'
p1258
F0.0095238095238095247
sS'PARK'
p1259
F0.0095238095238095247
sS'STRIP'
p1260
F0.0095238095238095247
sS'HOMEVILLE'
p1261
F0.0095238095238095247
sS'DORMONT'
p1262
F0.0095238095238095247
sS'AVALON'
p1263
F0.0095238095238095247
sS'FORBES AND CRAIG'
p1264
F0.0095238095238095247
sS'PENN'
p1265
F0.0095238095238095247
sS'NORTH AT WOOD STREET'
p1266
F0.0095238095238095247
sS'NORTH'
p1267
F0.028571428571428571
sS'SHADYSIDE'
p1268
F0.0095238095238095247
sS'EIGHTH STREET'
p1269
F0.0095238095238095247
sS'WEST PENN HOSPITAL'
p1270
F0.0095238095238095247
sS'NINTH AND PENN'
p1271
F0.0095238095238095247
sS'LAWRENCEVILLE'
p1272
F0.0095238095238095247
sS'CRAIG'
p1273
F0.0095238095238095247
sS'MIFFLIN'
p1274
F0.0095238095238095247
sS'FRANKSTOWN'
p1275
F0.019047619047619049
sS'WILKINS'
p1276
F0.0095238095238095247
sS'STATION'
p1277
F0.019047619047619049
sS'SCOTT'
p1278
F0.0095238095238095247
sS'FOURTH'
p1279
F0.028571428571428571
sS'BUS STATION'
p1280
F0.0095238095238095247
sS'DYNAMO'
p1281
F0.0095238095238095247
sS'NINETEENTH'
p1282
F0.0095238095238095247
sS'MAIN'
p1283
F0.0095238095238095247
sS'TENTH'
p1284
F0.019047619047619049
sS"MACY'S"
p1285
F0.0095238095238095247
sS'ROSS'
p1286
F0.028571428571428571
ssS'VERSAILLES'
p1287
(dp1288
S'WALL'
p1289
F0.058823529411764705
sS'MALL'
p1290
F0.11764705882352941
sS'NORTH'
p1291
F0.70588235294117652
sS'SHADY'
p1292
F0.058823529411764705
sS'FOURTH'
p1293
F0.058823529411764705
ssS'EDGEWOOD'
p1294
(dp1295
S'TOWNSHIP'
p1296
F0.5
sS'TOWN CENTER'
p1297
F0.25
sS'FRANKSTOWN'
p1298
F0.25
ssS'WEBSTER AVENUE'
p1299
(dp1300
S'WALL'
p1301
F0.40000000000000002
sS'WEST'
p1302
F0.20000000000000001
sS'FORBES'
p1303
F0.20000000000000001
sS'SHERADEN'
p1304
F0.20000000000000001
ssS'CRAIG AT CENTRE'
p1305
(dp1306
S'CRAIG'
p1307
F1.0
ssS'JUNCTION'
p1308
(dp1309
S'DOWNTOWN'
p1310
F0.33333333333333331
sS'SOUTH HILLS JUNCTION'
p1311
F0.16666666666666666
sS'OAK'
p1312
F0.16666666666666666
sS'SOUTH'
p1313
F0.33333333333333331
ssS'OVERBROOK'
p1314
(dp1315
S'WAL-MART'
p1316
F0.20000000000000001
sS'NEVILLE'
p1317
F0.20000000000000001
sS'OLIVER'
p1318
F0.20000000000000001
sS'FOURTH'
p1319
F0.20000000000000001
sS'TWENTY SIXTH'
p1320
F0.20000000000000001
ssS'FOX CHAPEL'
p1321
(dp1322
S'WAL-MART'
p1323
F0.25
sS'MARYLAND'
p1324
F0.25
sS'ANN'
p1325
F0.25
sS'MAGEE'
p1326
F0.25
ssS'LINCOLN AT LINCOLN'
p1327
(dp1328
S'ATWOOD STREET'
p1329
F0.20000000000000001
sS'DOWNTOWN'
p1330
F0.20000000000000001
sS'LINCOLN'
p1331
F0.20000000000000001
sS'MAIN'
p1332
F0.20000000000000001
sS'PENN AND EAST END'
p1333
F0.20000000000000001
ssS'MERCY HOSPITAL'
p1334
(dp1335
S'OAKLAND'
p1336
F1.0
ssS'RANKIN'
p1337
(dp1338
S'HAWKINS'
p1339
F0.1111111111111111
sS'OAKLAND'
p1340
F0.22222222222222221
sS'SHERADEN'
p1341
F0.1111111111111111
sS'LINCOLN'
p1342
F0.1111111111111111
sS'HILL'
p1343
F0.1111111111111111
sS'EIGHTH AND ANN'
p1344
F0.1111111111111111
sS'TENTH'
p1345
F0.1111111111111111
sS'MAIN'
p1346
F0.1111111111111111
ssS'MURRAY'
p1347
(dp1348
S'BURROWS STREET'
p1349
F1.0
ssS'KELLY AND PITT STREET'
p1350
(dp1351
S'KELLY STREET'
p1352
F0.16666666666666666
sS'HOMEWOOD'
p1353
F0.16666666666666666
sS'HIGHLAND'
p1354
F0.16666666666666666
sS'FIFTH'
p1355
F0.33333333333333331
sS'SOUTH'
p1356
F0.16666666666666666
ssS'DOWNTOWN'
p1357
(dp1358
S'TRAFFORD'
p1359
F0.0051020408163265302
sS'OAK'
p1360
F0.015306122448979591
sS'HILTON'
p1361
F0.0051020408163265302
sS'DOWNTOWN PITTSBURGH'
p1362
F0.015306122448979591
sS'EIGHTH'
p1363
F0.020408163265306121
sS'TEXAS'
p1364
F0.01020408163265306
sS'BRADDOCK'
p1365
F0.0051020408163265302
sS'PLUM'
p1366
F0.0051020408163265302
sS'SOUTH AVENUE'
p1367
F0.0051020408163265302
sS'PITT'
p1368
F0.045918367346938778
sS'KENNYWOOD'
p1369
F0.0051020408163265302
sS'WHITAKER'
p1370
F0.0051020408163265302
sS'KENNEDY'
p1371
F0.0051020408163265302
sS'PARK'
p1372
F0.01020408163265306
sS'THE AIRPORT'
p1373
F0.0051020408163265302
sS'BRIGHTON'
p1374
F0.0051020408163265302
sS'CENTRE AND AIKEN'
p1375
F0.0051020408163265302
sS'CRAIG'
p1376
F0.0051020408163265302
sS'MIFFLIN'
p1377
F0.01020408163265306
sS'THE ZOO'
p1378
F0.0051020408163265302
sS'CARSON'
p1379
F0.0051020408163265302
sS'MAIN'
p1380
F0.01020408163265306
sS'EAST PITTSBURGH'
p1381
F0.0051020408163265302
sS'WELFER'
p1382
F0.0051020408163265302
sS'ROSS'
p1383
F0.01020408163265306
sS'HIGHLAND PARK'
p1384
F0.0051020408163265302
sS'AMITY STREET'
p1385
F0.0051020408163265302
sS'BELL'
p1386
F0.0051020408163265302
sS'PENN CENTER'
p1387
F0.0051020408163265302
sS'CMU'
p1388
F0.0051020408163265302
sS'EAST END'
p1389
F0.0051020408163265302
sS'BRIGHTON AND WESTERN'
p1390
F0.0051020408163265302
sS'MILLVALE'
p1391
F0.0051020408163265302
sS'CENTER'
p1392
F0.035714285714285712
sS'BENNETT'
p1393
F0.0051020408163265302
sS'MALL'
p1394
F0.0051020408163265302
sS'HILL'
p1395
F0.025510204081632654
sS'SIXTH AVENUE'
p1396
F0.0051020408163265302
sS'FOURTH STREET'
p1397
F0.0051020408163265302
sS'SHADY'
p1398
F0.0051020408163265302
sS'ANN AND TENTH'
p1399
F0.0051020408163265302
sS'ZOO'
p1400
F0.01020408163265306
sS'SMITHFIELD STREET'
p1401
F0.0051020408163265302
sS'LIBERTY'
p1402
F0.0051020408163265302
sS'SEVENTH AVENUE'
p1403
F0.0051020408163265302
sS'SIXTH STREET'
p1404
F0.0051020408163265302
sS'BUS STATION'
p1405
F0.0051020408163265302
sS'SOUTH'
p1406
F0.020408163265306121
sS'WOOD'
p1407
F0.01020408163265306
sS'OAKLAND'
p1408
F0.015306122448979591
sS'VERSAILLES'
p1409
F0.0051020408163265302
sS'HERRON'
p1410
F0.01020408163265306
sS'FIFTH STREET'
p1411
F0.0051020408163265302
sS'RANKIN'
p1412
F0.0051020408163265302
sS'MURRAY'
p1413
F0.01020408163265306
sS'AIRPORT'
p1414
F0.01020408163265306
sS'STATION'
p1415
F0.025510204081632654
sS'UPTOWN'
p1416
F0.01020408163265306
sS'FOURTH AND BELL'
p1417
F0.0051020408163265302
sS'OLIVER'
p1418
F0.01020408163265306
sS'TENNYSON'
p1419
F0.01020408163265306
sS'WALL'
p1420
F0.066326530612244902
sS'WALLACE AND WOOD'
p1421
F0.0051020408163265302
sS'PENN'
p1422
F0.0051020408163265302
sS'EAST'
p1423
F0.015306122448979591
sS'ELLSWORTH'
p1424
F0.0051020408163265302
sS'LINCOLN'
p1425
F0.01020408163265306
sS'OAK HILL'
p1426
F0.01020408163265306
sS'CENTURY THREE'
p1427
F0.0051020408163265302
sS'FEDERAL'
p1428
F0.0051020408163265302
sS'CENTER STREET'
p1429
F0.0051020408163265302
sS'EIGHTEENTH'
p1430
F0.0051020408163265302
sS'CURRY'
p1431
F0.0051020408163265302
sS'FORBES AND MURRAY'
p1432
F0.0051020408163265302
sS'SECOND STREET AND GRANT'
p1433
F0.0051020408163265302
sS'FIFTH AND MARKET'
p1434
F0.0051020408163265302
sS'SOUTH BRADDOCK'
p1435
F0.0051020408163265302
sS'FORBES'
p1436
F0.015306122448979591
sS'POLISH HILL'
p1437
F0.01020408163265306
sS'ALLEGHENY'
p1438
F0.0051020408163265302
sS'MARYLAND AVENUE'
p1439
F0.0051020408163265302
sS'ANN'
p1440
F0.0051020408163265302
sS'MCKEESPORT'
p1441
F0.01020408163265306
sS'RODI'
p1442
F0.01020408163265306
sS'EAST LIBERTY'
p1443
F0.0051020408163265302
sS'FIFTH AND ELM'
p1444
F0.0051020408163265302
sS'PITTSBURGH'
p1445
F0.030612244897959183
sS'WOOD STREET'
p1446
F0.01020408163265306
sS'PINE'
p1447
F0.0051020408163265302
sS'FIFTH AT CARSON'
p1448
F0.0051020408163265302
sS'NORTH'
p1449
F0.015306122448979591
sS'SPRING HILL'
p1450
F0.0051020408163265302
sS'COAL'
p1451
F0.020408163265306121
sS'FIFTH AVENUE AT STEVENSON'
p1452
F0.0051020408163265302
sS'NORTH SIDE'
p1453
F0.0051020408163265302
sS'FIFTH'
p1454
F0.0051020408163265302
sS'HOMESTEAD'
p1455
F0.0051020408163265302
sS'FIFTH AVENUE'
p1456
F0.01020408163265306
sS'CRAFTON'
p1457
F0.0051020408163265302
sS'SHADY AT PENN AVENUE'
p1458
F0.0051020408163265302
sS'MCKEE'
p1459
F0.0051020408163265302
sS'STANWIX STREET'
p1460
F0.0051020408163265302
sS'FORWARD'
p1461
F0.01020408163265306
sS'INDIANA'
p1462
F0.0051020408163265302
sS'THE SOUTH SIDE'
p1463
F0.0051020408163265302
sS'CHURCHILL'
p1464
F0.0051020408163265302
sS'AIKEN'
p1465
F0.0051020408163265302
sS'WEST'
p1466
F0.015306122448979591
sS'WIGHTMAN'
p1467
F0.0051020408163265302
sS'ROBINSON STREET'
p1468
F0.0051020408163265302
sS'TENTH'
p1469
F0.015306122448979591
ssS'ROBINSON TOWNE CENTER'
p1470
(dp1471
S'FOURTH AND BELL'
p1472
F0.5
sS'CENTER'
p1473
F0.5
ssS'AIRPORT'
p1474
(dp1475
S'RODI'
p1476
F0.052631578947368418
sS'BRIDGE'
p1477
F0.052631578947368418
sS'CRAIG'
p1478
F0.052631578947368418
sS'NORTH'
p1479
F0.052631578947368418
sS'NEGLEY'
p1480
F0.052631578947368418
sS'BELL'
p1481
F0.052631578947368418
sS'SIXTH'
p1482
F0.052631578947368418
sS'MAGEE'
p1483
F0.052631578947368418
sS'THE BUS STATION'
p1484
F0.052631578947368418
sS'WAL-MART'
p1485
F0.10526315789473684
sS'MONROEVILLE MALL'
p1486
F0.052631578947368418
sS'HILL'
p1487
F0.052631578947368418
sS'FOURTH'
p1488
F0.052631578947368418
sS'WOOD AT HILL'
p1489
F0.052631578947368418
sS'FIFTH STREET'
p1490
F0.052631578947368418
sS'MAIN'
p1491
F0.052631578947368418
sS'SOUTH'
p1492
F0.052631578947368418
sS'HOMESTEAD'
p1493
F0.052631578947368418
ssS'STATION'
p1494
(dp1495
S'WAL-MART'
p1496
F0.14285714285714285
sS'PITTSBURGH'
p1497
F0.14285714285714285
sS'PLUM'
p1498
F0.14285714285714285
sS'BUSWAY'
p1499
F0.14285714285714285
sS'WILKINSBURG'
p1500
F0.2857142857142857
sS'WILKINSBURG STATION'
p1501
F0.14285714285714285
ssS'HAZELWOOD'
p1502
(dp1503
S'CENTER'
p1504
F0.125
sS'WALL'
p1505
F0.125
sS'SECOND AVENUE'
p1506
F0.125
sS'MIFFLIN'
p1507
F0.125
sS'PITT'
p1508
F0.125
sS'WOOD'
p1509
F0.125
sS'MAIN'
p1510
F0.25
ssS'UPTOWN'
p1511
(dp1512
S'MONTEREY'
p1513
F0.076923076923076927
sS'ELIZABETH'
p1514
F0.076923076923076927
sS'BELL'
p1515
F0.076923076923076927
sS'LAWRENCEVILLE'
p1516
F0.076923076923076927
sS'COAL AT SWISSVALE'
p1517
F0.076923076923076927
sS'MCKEE'
p1518
F0.076923076923076927
sS'CENTER'
p1519
F0.076923076923076927
sS'WOOD'
p1520
F0.076923076923076927
sS'HILL'
p1521
F0.23076923076923078
sS'PENN'
p1522
F0.076923076923076927
sS'MCKEESPORT'
p1523
F0.076923076923076927
ssS'OAKMONT'
p1524
(dp1525
S'LINCOLN'
p1526
F0.20000000000000001
sS'BON AIR'
p1527
F0.20000000000000001
sS'OAK'
p1528
F0.20000000000000001
sS'SWISSVALE'
p1529
F0.20000000000000001
sS'HOMESTEAD'
p1530
F0.20000000000000001
ssS'HAWKINS AVENUE'
p1531
(dp1532
S'PENN'
p1533
F1.0
ssS'SWISSVALE BUS STATION'
p1534
(dp1535
S'SIXTH'
p1536
F0.33333333333333331
sS'SWISSVALE'
p1537
F0.33333333333333331
sS'BELL'
p1538
F0.33333333333333331
ssS'HAY STREET'
p1539
(dp1540
S'LINCOLN'
p1541
F0.13333333333333333
sS'DUQUESNE'
p1542
F0.066666666666666666
sS'PITT STREET'
p1543
F0.066666666666666666
sS'HOMEWOOD'
p1544
F0.066666666666666666
sS'RANKIN'
p1545
F0.066666666666666666
sS'MAIN AND PENN'
p1546
F0.066666666666666666
sS'MANNING'
p1547
F0.066666666666666666
sS'MALL'
p1548
F0.066666666666666666
sS'PENN AND MAIN'
p1549
F0.066666666666666666
sS'PENN'
p1550
F0.066666666666666666
sS'MAIN'
p1551
F0.13333333333333333
sS'NOBLE STREET'
p1552
F0.066666666666666666
sS'MARY ANN STREET'
p1553
F0.066666666666666666
ssS'OLIVER'
p1554
(dp1555
S'FRANKLIN'
p1556
F0.33333333333333331
sS'SOUTH'
p1557
F0.33333333333333331
sS'ELM'
p1558
F0.33333333333333331
ssS'THE BUSWAY'
p1559
(dp1560
S'NEVILLE'
p1561
F0.16666666666666666
sS'SHERADEN'
p1562
F0.16666666666666666
sS'HOMEWOOD'
p1563
F0.16666666666666666
sS'WARRINGTON'
p1564
F0.16666666666666666
sS'WOOD'
p1565
F0.16666666666666666
sS'WILKINSBURG'
p1566
F0.16666666666666666
ssS'BUSWAY'
p1567
(dp1568
S'SHERADEN'
p1569
F0.14285714285714285
sS'STATION'
p1570
F0.14285714285714285
sS'RANKIN'
p1571
F0.14285714285714285
sS'ROSEDALE'
p1572
F0.14285714285714285
sS'SWISSVALE'
p1573
F0.14285714285714285
sS'WOOD'
p1574
F0.14285714285714285
sS'MAIN'
p1575
F0.14285714285714285
ssS'KIRKPATRICK'
p1576
(dp1577
S'HOMESTEAD'
p1578
F1.0
ssS'FOURTH AVENUE'
p1579
(dp1580
S'SHADY'
p1581
F1.0
ssS'NORTH BRADDOCK'
p1582
(dp1583
S'JONES'
p1584
F0.047619047619047616
sS'BRADDOCK'
p1585
F0.14285714285714285
sS'NORTH'
p1586
F0.14285714285714285
sS'SHERADEN'
p1587
F0.047619047619047616
sS'WALL'
p1588
F0.19047619047619047
sS'ARLINGTON'
p1589
F0.047619047619047616
sS'HOMEWOOD'
p1590
F0.047619047619047616
sS'PITT'
p1591
F0.047619047619047616
sS'MURRAY AVENUE'
p1592
F0.047619047619047616
sS'PERRYSVILLE'
p1593
F0.047619047619047616
sS'CEDAR'
p1594
F0.047619047619047616
sS'FOURTH'
p1595
F0.047619047619047616
sS'EAST PITTSBURGH'
p1596
F0.047619047619047616
sS'MURDOCH'
p1597
F0.047619047619047616
ssS'WALL'
p1598
(dp1599
S'HERRON'
p1600
F0.047619047619047616
sS'DOWNTOWN'
p1601
F0.047619047619047616
sS'LINCOLN'
p1602
F0.14285714285714285
sS'CHURCHILL'
p1603
F0.047619047619047616
sS'DUQUESNE'
p1604
F0.095238095238095233
sS'FORBES'
p1605
F0.047619047619047616
sS'BELL STATION'
p1606
F0.047619047619047616
sS'HOMEWOOD'
p1607
F0.047619047619047616
sS'WOOD STREET'
p1608
F0.047619047619047616
sS'EAST HILLS'
p1609
F0.047619047619047616
sS'MCKEE'
p1610
F0.047619047619047616
sS'COAL'
p1611
F0.047619047619047616
sS'MALL'
p1612
F0.047619047619047616
sS'WOOD'
p1613
F0.047619047619047616
sS'SHADY AVENUE'
p1614
F0.047619047619047616
sS'UPTOWN'
p1615
F0.047619047619047616
sS'PERRYSVILLE'
p1616
F0.047619047619047616
sS'ELIZABETH'
p1617
F0.047619047619047616
ssS'ELECTRIC AVENUE'
p1618
(dp1619
S'DYNAMO'
p1620
F0.25
sS'PITTSBURGH'
p1621
F0.5
sS'OAK'
p1622
F0.25
ssS'CRAFT'
p1623
(dp1624
S'BUSWAY'
p1625
F0.5
sS'NINETEENTH'
p1626
F0.5
ssS'BRADDOCK AVENUE'
p1627
(dp1628
S'NORTH'
p1629
F0.14285714285714285
sS'KNOX AVENUE'
p1630
F0.14285714285714285
sS'FORTIETH STREET'
p1631
F0.14285714285714285
sS'HOMEWOOD'
p1632
F0.14285714285714285
sS'FRANKSTOWN'
p1633
F0.14285714285714285
sS'NORTH BRADDOCK'
p1634
F0.14285714285714285
sS'VERSAILLES'
p1635
F0.14285714285714285
ssS'BAYARD'
p1636
(dp1637
S'DOWNTOWN'
p1638
F0.33333333333333331
sS'PENN'
p1639
F0.33333333333333331
sS'NEVILLE'
p1640
F0.33333333333333331
ssS'FORBES AT BRADDOCK'
p1641
(dp1642
S'BRADDOCK'
p1643
F1.0
ssS'PENN'
p1644
(dp1645
S'WHITAKER'
p1646
F0.071428571428571425
sS'ANN'
p1647
F0.071428571428571425
sS'MCCANDLESS'
p1648
F0.071428571428571425
sS'CARSON'
p1649
F0.21428571428571427
sS'PENN AND MAIN'
p1650
F0.071428571428571425
sS'WILKINSBURG'
p1651
F0.071428571428571425
sS'HILL'
p1652
F0.071428571428571425
sS'SHADY AND BRAEBURN'
p1653
F0.071428571428571425
sS'SEVENTH AVENUE'
p1654
F0.071428571428571425
sS'NINETEENTH'
p1655
F0.071428571428571425
sS'MAIN'
p1656
F0.071428571428571425
sS'EIGHTH'
p1657
F0.071428571428571425
ssS'EAST'
p1658
(dp1659
S'HIGHLAND PARK'
p1660
F0.066666666666666666
sS'EAST LIBERTY'
p1661
F0.066666666666666666
sS'MILLVALE'
p1662
F0.066666666666666666
sS'CRAIG'
p1663
F0.066666666666666666
sS'FIFTH AVE'
p1664
F0.066666666666666666
sS'WILKINS'
p1665
F0.066666666666666666
sS'DOWNTOWN'
p1666
F0.066666666666666666
sS'FORBES AND CRAIG'
p1667
F0.066666666666666666
sS'FORBES'
p1668
F0.066666666666666666
sS'NORTH'
p1669
F0.066666666666666666
sS'OAKLAND'
p1670
F0.066666666666666666
sS'ROBINSON'
p1671
F0.066666666666666666
sS'WELFER AND MURRAY'
p1672
F0.066666666666666666
sS'SOUTH'
p1673
F0.13333333333333333
ssS'GRACE'
p1674
(dp1675
S'FOURTH STREET'
p1676
F0.5
sS'FORBES'
p1677
F0.5
ssS'FOREST HILLS'
p1678
(dp1679
S'NORTH'
p1680
F0.14285714285714285
sS'BAUM BOULEVARD'
p1681
F0.14285714285714285
sS'COAL'
p1682
F0.14285714285714285
sS'THE ZOO'
p1683
F0.14285714285714285
sS'HILL'
p1684
F0.14285714285714285
sS'FOURTH'
p1685
F0.14285714285714285
sS'SOUTH'
p1686
F0.14285714285714285
ssS'CENTURY THREE'
p1687
(dp1688
S'CARSON'
p1689
F0.33333333333333331
sS'WAL-MART'
p1690
F0.33333333333333331
sS'HAWKINS'
p1691
F0.33333333333333331
ssS'WALLACE'
p1692
(dp1693
S'MURRAY STREET'
p1694
F0.20000000000000001
sS'BELTZHOOVER'
p1695
F0.20000000000000001
sS'OXFORD DRIVE'
p1696
F0.20000000000000001
sS'WILKINS'
p1697
F0.20000000000000001
sS'VERSAILLES'
p1698
F0.20000000000000001
ssS'ELM'
p1699
(dp1700
S'WALL'
p1701
F0.20000000000000001
sS'DOWNTOWN'
p1702
F0.20000000000000001
sS'BENNETT'
p1703
F0.20000000000000001
sS'TRAFFORD'
p1704
F0.20000000000000001
sS'PITT'
p1705
F0.20000000000000001
ssS'FEDERAL'
p1706
(dp1707
S'DOBSON'
p1708
F1.0
ssS'HAMILTON AVENUE'
p1709
(dp1710
S'HOMEWOOD'
p1711
F0.5
sS'ALIQUIPPA'
p1712
F0.25
sS'KENNYWOOD'
p1713
F0.25
ssS'SHADYSIDE HOSPITAL'
p1714
(dp1715
S'FORBES AVENUE'
p1716
F0.33333333333333331
sS'CENTER'
p1717
F0.33333333333333331
sS'HOMESTEAD'
p1718
F0.33333333333333331
ssS'STRIP'
p1719
(dp1720
S'WEBSTER'
p1721
F1.0
ssS'CENTURY THREE MALL'
p1722
(dp1723
S'PLUM'
p1724
F0.20000000000000001
sS'FORBES'
p1725
F0.20000000000000001
sS'MALL'
p1726
F0.20000000000000001
sS'FIFTH'
p1727
F0.20000000000000001
sS'TWENTY SIXTH'
p1728
F0.20000000000000001
ssS'BLOOMFIELD'
p1729
(dp1730
S'HIGHLAND PARK'
p1731
F0.040000000000000001
sS'DOBSON'
p1732
F0.040000000000000001
sS'FOREST HILLS'
p1733
F0.040000000000000001
sS'HILTON'
p1734
F0.080000000000000002
sS'LIBERTY AVENUE'
p1735
F0.040000000000000001
sS'EIGHTH'
p1736
F0.040000000000000001
sS'SOUTH'
p1737
F0.040000000000000001
sS'NORTH'
p1738
F0.080000000000000002
sS'HOMEWOOD'
p1739
F0.040000000000000001
sS'BELL'
p1740
F0.040000000000000001
sS'NORTH BRADDOCK'
p1741
F0.040000000000000001
sS'HILL'
p1742
F0.040000000000000001
sS'MILLVALE AVENUE'
p1743
F0.040000000000000001
sS'BEACON AND MURRAY'
p1744
F0.040000000000000001
sS'FOURTH'
p1745
F0.040000000000000001
sS'ELM'
p1746
F0.040000000000000001
sS'LIBERTY'
p1747
F0.040000000000000001
sS'PENN'
p1748
F0.040000000000000001
sS'THE HILTON'
p1749
F0.040000000000000001
sS'PINE'
p1750
F0.040000000000000001
sS'FORBES'
p1751
F0.040000000000000001
sS'LIBERTY AND MILLVALE'
p1752
F0.040000000000000001
sS'ROSS'
p1753
F0.040000000000000001
ssS'LINCOLN HIGHWAY'
p1754
(dp1755
S'LINCOLN'
p1756
F1.0
ssS'KENNYWOOD MALL'
p1757
(dp1758
S'MALL'
p1759
F0.5
sS'KENNYWOOD'
p1760
F0.5
ssS'WEST PENN'
p1761
(dp1762
S'PENN'
p1763
F0.25
sS'AIRPORT'
p1764
F0.25
sS'SWISSVALE'
p1765
F0.25
sS'MALL'
p1766
F0.25
ssS'WATERFRONT'
p1767
(dp1768
S'HAMPTON'
p1769
F0.050000000000000003
sS'SQUIRREL HILL'
p1770
F0.050000000000000003
sS'STANTON'
p1771
F0.050000000000000003
sS'WALLACE'
p1772
F0.050000000000000003
sS'WALL'
p1773
F0.10000000000000001
sS'FORBES AVE'
p1774
F0.050000000000000003
sS'SHADY'
p1775
F0.050000000000000003
sS'WEST PENN'
p1776
F0.050000000000000003
sS'PARK'
p1777
F0.050000000000000003
sS'PITT'
p1778
F0.050000000000000003
sS'MURRAY'
p1779
F0.050000000000000003
sS'ROSEDALE'
p1780
F0.050000000000000003
sS'MALL'
p1781
F0.050000000000000003
sS'WOOD'
p1782
F0.10000000000000001
sS'HILL'
p1783
F0.050000000000000003
sS'THE WATERFRONT'
p1784
F0.050000000000000003
sS'HAZELWOOD'
p1785
F0.050000000000000003
sS'NORTH SIDE'
p1786
F0.050000000000000003
ssS'PENN AVENUE AND HIGHLAND'
p1787
(dp1788
S'PENN AND HIGHLAND'
p1789
F0.14285714285714285
sS'KELLY AT HAY'
p1790
F0.14285714285714285
sS'PENN AVENUE'
p1791
F0.14285714285714285
sS'PENN AVENUE AT HIGHLAND'
p1792
F0.14285714285714285
sS'THE ZOO'
p1793
F0.14285714285714285
sS'HILL'
p1794
F0.14285714285714285
sS'WALLACE AVENUE'
p1795
F0.14285714285714285
ssS'TOWNSHIP'
p1796
(dp1797
S'PLUM'
p1798
F0.5
sS'SCOTT'
p1799
F0.5
ssS'SHADYSIDE'
p1800
(dp1801
S'HERRON'
p1802
F0.058823529411764705
sS'ARDMORE BOULEVARD AT BRYN MAWR'
p1803
F0.058823529411764705
sS'SHERADEN'
p1804
F0.058823529411764705
sS'ELM'
p1805
F0.058823529411764705
sS'WALL'
p1806
F0.058823529411764705
sS'BAUM BOULEVARD'
p1807
F0.058823529411764705
sS'SHADY'
p1808
F0.11764705882352941
sS'PITT'
p1809
F0.11764705882352941
sS'SOUTH EIGHTEENTH'
p1810
F0.11764705882352941
sS'CRAFT'
p1811
F0.058823529411764705
sS'NEGLEY'
p1812
F0.058823529411764705
sS'WELFER'
p1813
F0.058823529411764705
sS'CENTER'
p1814
F0.11764705882352941
ssS'FORBES AND MURRAY'
p1815
(dp1816
S'JONES'
p1817
F0.076923076923076927
sS'EVANS AT FIFTH'
p1818
F0.076923076923076927
sS'COURTHOUSE'
p1819
F0.076923076923076927
sS'LAWRENCEVILLE'
p1820
F0.076923076923076927
sS'CURRY'
p1821
F0.076923076923076927
sS'MURRAY'
p1822
F0.076923076923076927
sS'WALL'
p1823
F0.076923076923076927
sS'FORBES'
p1824
F0.15384615384615385
sS'HILL'
p1825
F0.076923076923076927
sS'SEVENTEENTH'
p1826
F0.076923076923076927
sS'EIGHTH'
p1827
F0.076923076923076927
sS'CHURCHILL'
p1828
F0.076923076923076927
ssS'CHESTNUT STREET'
p1829
(dp1830
S'EAST'
p1831
F1.0
ssS'CRAIG AND FIFTH'
p1832
(dp1833
S'EIGHTH STREET'
p1834
F1.0
ssS'THE STRIP'
p1835
(dp1836
S'OAKLAND'
p1837
F1.0
ssS'THE HILTON'
p1838
(dp1839
S'WESTWOOD'
p1840
F0.33333333333333331
sS'THE MALL'
p1841
F0.33333333333333331
sS'MCKEESPORT'
p1842
F0.33333333333333331
ssS'CENTRE AVENUE'
p1843
(dp1844
S'AIKEN'
p1845
F0.5
sS'STRANMORE'
p1846
F0.5
ssS'ARLINGTON AVENUE'
p1847
(dp1848
S'WARRINGTON AVENUE'
p1849
F0.5
sS'RALPH'
p1850
F0.5
ssS'ELLSWORTH'
p1851
(dp1852
S'ELM'
p1853
F1.0
ssS'BELLEFIELD'
p1854
(dp1855
S'HERRON'
p1856
F1.0
ssS'FORBES'
p1857
(dp1858
S'MCKEESPORT'
p1859
F0.052631578947368418
sS'MOREWOOD'
p1860
F0.052631578947368418
sS'COURTHOUSE'
p1861
F0.052631578947368418
sS'WALLACE'
p1862
F0.10526315789473684
sS'COAL'
p1863
F0.052631578947368418
sS'WALL'
p1864
F0.10526315789473684
sS'BELL'
p1865
F0.052631578947368418
sS'MURRAY'
p1866
F0.052631578947368418
sS'DOWNTOWN'
p1867
F0.052631578947368418
sS'ALGER STREET'
p1868
F0.052631578947368418
sS'MONROEVILLE'
p1869
F0.052631578947368418
sS'MURRAY AND FORBES'
p1870
F0.052631578947368418
sS'MOUND'
p1871
F0.052631578947368418
sS'FORBES AND MURRAY'
p1872
F0.10526315789473684
sS'GRAHAM'
p1873
F0.052631578947368418
sS'HOMESTEAD'
p1874
F0.052631578947368418
ssS'SCOTT'
p1875
(dp1876
S'WALL'
p1877
F0.20000000000000001
sS'BRADDOCK'
p1878
F0.20000000000000001
sS'NORTH'
p1879
F0.20000000000000001
sS'AIRPORT'
p1880
F0.20000000000000001
sS'FOURTH'
p1881
F0.20000000000000001
ssS'WEST CARSON'
p1882
(dp1883
S'PARK'
p1884
F1.0
ssS'EIGHTH AND GRANT'
p1885
(dp1886
S'WALL'
p1887
F0.5
sS'LAWRENCEVILLE'
p1888
F0.25
sS'WALLACE'
p1889
F0.25
ssS'POLISH HILL'
p1890
(dp1891
S'THIRTY NINTH'
p1892
F0.25
sS'ELM'
p1893
F0.25
sS'PITT'
p1894
F0.125
sS'MURRAY'
p1895
F0.125
sS'SOUTH SIDE'
p1896
F0.125
sS'PENN'
p1897
F0.125
ssS'WILKINS AND SHADY'
p1898
(dp1899
S'WALL'
p1900
F0.5
sS'OAKLAND'
p1901
F0.5
ssS'ALLEGHENY'
p1902
(dp1903
S'COAL'
p1904
F1.0
ssS'LIBERTY AT HERRON'
p1905
(dp1906
S'FRANKLIN AT CENTER'
p1907
F0.5
sS'NORTH SIDE'
p1908
F0.5
ssS'FORBES AVENUE AT MURRAY'
p1909
(dp1910
S'FORBES AND CRAIG'
p1911
F1.0
ssS'ALLEGHENY RIVER BOULEVARD'
p1912
(dp1913
S'WALL'
p1914
F0.33333333333333331
sS'PENN'
p1915
F0.33333333333333331
sS'CEDAR'
p1916
F0.33333333333333331
ssS'MCKEESPORT'
p1917
(dp1918
S'RODI'
p1919
F0.009433962264150943
sS'NEGLEY'
p1920
F0.009433962264150943
sS'FOREST HILLS'
p1921
F0.009433962264150943
sS'WALL'
p1922
F0.04716981132075472
sS'PARK'
p1923
F0.018867924528301886
sS'LINCOLN'
p1924
F0.009433962264150943
sS'MURRAY'
p1925
F0.009433962264150943
sS'DOWNTOWN'
p1926
F0.009433962264150943
sS'BELL'
p1927
F0.009433962264150943
sS'DOWNTOWN PITTSBURGH'
p1928
F0.009433962264150943
sS'CMU'
p1929
F0.009433962264150943
sS'GRANT'
p1930
F0.009433962264150943
sS'DOBSON STREET'
p1931
F0.009433962264150943
sS'MCKEESPORT TRANSPORTATION CENTER'
p1932
F0.018867924528301886
sS'PENN HILL CENTER'
p1933
F0.018867924528301886
sS'BRADDOCK'
p1934
F0.009433962264150943
sS'OLIVER'
p1935
F0.018867924528301886
sS'NORTH'
p1936
F0.037735849056603772
sS'CENTER'
p1937
F0.028301886792452831
sS'COAL'
p1938
F0.018867924528301886
sS'SIXTH'
p1939
F0.018867924528301886
sS'HOMEWOOD'
p1940
F0.009433962264150943
sS"KAUFMANN'S"
p1941
F0.009433962264150943
sS'PITT'
p1942
F0.028301886792452831
sS'PITTSBURGH'
p1943
F0.009433962264150943
sS'MALL'
p1944
F0.009433962264150943
sS'CRAFT'
p1945
F0.018867924528301886
sS'HILL'
p1946
F0.018867924528301886
sS'STRIP'
p1947
F0.009433962264150943
sS'WHITAKER'
p1948
F0.009433962264150943
sS'NORTH SIDE'
p1949
F0.009433962264150943
sS'STRANMORE'
p1950
F0.009433962264150943
sS'JONES'
p1951
F0.009433962264150943
sS'NEVILLE'
p1952
F0.009433962264150943
sS'WALLACE'
p1953
F0.009433962264150943
sS'CENTRE'
p1954
F0.009433962264150943
sS'FEDERAL'
p1955
F0.009433962264150943
sS'SHADY'
p1956
F0.009433962264150943
sS'FIFTH AVENUE'
p1957
F0.009433962264150943
sS'ZOO'
p1958
F0.009433962264150943
sS'MCKEE'
p1959
F0.037735849056603772
sS'ELM'
p1960
F0.009433962264150943
sS'WOOD'
p1961
F0.037735849056603772
sS'THE AIRPORT'
p1962
F0.018867924528301886
sS'MCKEE AT FORBES'
p1963
F0.009433962264150943
sS'SPAHR'
p1964
F0.009433962264150943
sS'TRANSPORTATION CENTER'
p1965
F0.018867924528301886
sS'HIGH'
p1966
F0.009433962264150943
sS'EAST'
p1967
F0.056603773584905662
sS'COURTHOUSE'
p1968
F0.018867924528301886
sS'PENNSYLVANIA'
p1969
F0.028301886792452831
sS'WEST'
p1970
F0.009433962264150943
sS'VERONA'
p1971
F0.018867924528301886
sS'AIRPORT'
p1972
F0.009433962264150943
sS'HEINZ HALL'
p1973
F0.009433962264150943
sS'FORBES'
p1974
F0.018867924528301886
sS'FRANKLIN'
p1975
F0.009433962264150943
sS'FOURTH'
p1976
F0.084905660377358486
sS'BIGELOW'
p1977
F0.009433962264150943
sS'NINETEENTH'
p1978
F0.009433962264150943
sS"MACY'S"
p1979
F0.009433962264150943
ssS'RODI'
p1980
(dp1981
S'MOUNT OLIVER'
p1982
F0.33333333333333331
sS'PERRYSVILLE'
p1983
F0.33333333333333331
sS'PIONEER'
p1984
F0.33333333333333331
ssS'BRIDGE'
p1985
(dp1986
S'LINCOLN'
p1987
F0.1111111111111111
sS'AIKEN'
p1988
F0.1111111111111111
sS'FOREST HILLS'
p1989
F0.1111111111111111
sS'RALPH'
p1990
F0.1111111111111111
sS'PARK'
p1991
F0.1111111111111111
sS'SWISSVALE'
p1992
F0.1111111111111111
sS'HILL'
p1993
F0.1111111111111111
sS'OAKLAND'
p1994
F0.1111111111111111
sS'PENN STATION'
p1995
F0.1111111111111111
ssS'EAST LIBERTY'
p1996
(dp1997
S'HERRON'
p1998
F0.022222222222222223
sS'VERONA'
p1999
F0.022222222222222223
sS'SIXTH AT LIBERTY'
p2000
F0.022222222222222223
sS'AIRPORT'
p2001
F0.022222222222222223
sS'SOUTH'
p2002
F0.044444444444444446
sS'HOMEVILLE'
p2003
F0.022222222222222223
sS'OLIVER'
p2004
F0.022222222222222223
sS'FRANKLIN AT CENTER'
p2005
F0.022222222222222223
sS'HOMEWOOD'
p2006
F0.022222222222222223
sS'BENNETT'
p2007
F0.022222222222222223
sS'PITT'
p2008
F0.022222222222222223
sS'COAL'
p2009
F0.044444444444444446
sS'MALL'
p2010
F0.022222222222222223
sS'MARSHALL'
p2011
F0.022222222222222223
sS'STRIP'
p2012
F0.022222222222222223
sS'PENN'
p2013
F0.022222222222222223
sS'EAST'
p2014
F0.022222222222222223
sS'GRACE'
p2015
F0.022222222222222223
sS'PENN AVENUE'
p2016
F0.022222222222222223
sS'SHADY'
p2017
F0.044444444444444446
sS'HILL AVENUE'
p2018
F0.022222222222222223
sS'BEECHWOOD'
p2019
F0.022222222222222223
sS'RALPH'
p2020
F0.022222222222222223
sS'FIFTH AND CRAFT'
p2021
F0.022222222222222223
sS'LIBERTY'
p2022
F0.022222222222222223
sS'EAST HILLS'
p2023
F0.022222222222222223
sS'CHURCHILL'
p2024
F0.044444444444444446
sS'AIKEN'
p2025
F0.022222222222222223
sS'BUS STATION'
p2026
F0.022222222222222223
sS'HUTCHINSON'
p2027
F0.022222222222222223
sS'SOUTH SIDE'
p2028
F0.022222222222222223
sS'HIGHLAND AVENUE'
p2029
F0.022222222222222223
sS'WOOD'
p2030
F0.022222222222222223
sS'WILKINSBURG'
p2031
F0.022222222222222223
sS'MCCANDLESS'
p2032
F0.022222222222222223
sS'NINETEENTH'
p2033
F0.022222222222222223
sS'HIGHLAND'
p2034
F0.066666666666666666
sS'TENTH'
p2035
F0.022222222222222223
sS"MACY'S"
p2036
F0.022222222222222223
ssS'DOBSON'
p2037
(dp2038
S'HILL'
p2039
F0.5
sS'SHERADEN'
p2040
F0.5
ssS'NEGLEY'
p2041
(dp2042
S'HERRON'
p2043
F0.0625
sS'BRIDGE'
p2044
F0.0625
sS'LINCOLN'
p2045
F0.0625
sS'CENTER'
p2046
F0.0625
sS'SHERADEN'
p2047
F0.0625
sS'FIFTH'
p2048
F0.0625
sS'STANTON AND NEGLEY'
p2049
F0.0625
sS'CENTRE'
p2050
F0.0625
sS'LIBERTY'
p2051
F0.0625
sS'ELLSWORTH'
p2052
F0.0625
sS'CARSON'
p2053
F0.0625
sS'BAYARD'
p2054
F0.0625
sS'PENN'
p2055
F0.0625
sS'MORNINGSIDE'
p2056
F0.0625
sS"MACY'S"
p2057
F0.0625
sS'BAUSMAN'
p2058
F0.0625
ssS'BEACON AT EVANS'
p2059
(dp2060
S'BEACON AND EVANS'
p2061
F1.0
ssS'PITTSBURGH'
p2062
(dp2063
S'HERRON'
p2064
F0.020833333333333332
sS'BENNETT'
p2065
F0.020833333333333332
sS'BELLEVUE'
p2066
F0.020833333333333332
sS'WALL'
p2067
F0.041666666666666664
sS'TALBOT'
p2068
F0.020833333333333332
sS'THE ZOO'
p2069
F0.020833333333333332
sS'SECOND AVENUE'
p2070
F0.020833333333333332
sS'DOWNTOWN PITTSBURGH'
p2071
F0.041666666666666664
sS'EIGHTH'
p2072
F0.0625
sS'SOUTH'
p2073
F0.041666666666666664
sS'HOMEVILLE'
p2074
F0.020833333333333332
sS'PITTSBURGH ZOO'
p2075
F0.020833333333333332
sS'HOTEL'
p2076
F0.020833333333333332
sS'COAL'
p2077
F0.020833333333333332
sS'EAST'
p2078
F0.041666666666666664
sS'MARY ANN STREET'
p2079
F0.020833333333333332
sS'NORTH SECOND STREET'
p2080
F0.020833333333333332
sS'DUQUESNE'
p2081
F0.020833333333333332
sS'KNOX AVENUE'
p2082
F0.020833333333333332
sS'SHADY'
p2083
F0.020833333333333332
sS'BRADDOCK'
p2084
F0.020833333333333332
sS'LIBERTY'
p2085
F0.083333333333333329
sS'ELM'
p2086
F0.020833333333333332
sS'DOWNTOWN'
p2087
F0.041666666666666664
sS'MOUNT OLIVER'
p2088
F0.020833333333333332
sS'PENNSYLVANIA'
p2089
F0.0625
sS'FOURTH AND MOUND'
p2090
F0.020833333333333332
sS'CARSON'
p2091
F0.020833333333333332
sS'TENTH AT ANN'
p2092
F0.020833333333333332
sS'WOOD'
p2093
F0.020833333333333332
sS'FIFTH'
p2094
F0.020833333333333332
sS'FOURTH'
p2095
F0.020833333333333332
sS'POLISH HILL'
p2096
F0.020833333333333332
sS'SEVENTH AND PENN'
p2097
F0.020833333333333332
sS'HOMESTEAD'
p2098
F0.020833333333333332
sS'TENTH'
p2099
F0.020833333333333332
ssS'BAUM BOULEVARD'
p2100
(dp2101
S'BELL'
p2102
F0.10000000000000001
sS'WALL'
p2103
F0.20000000000000001
sS'WILKINS'
p2104
F0.10000000000000001
sS'COAL'
p2105
F0.10000000000000001
sS'SWISSVALE'
p2106
F0.10000000000000001
sS'FORBES'
p2107
F0.10000000000000001
sS'WOOD'
p2108
F0.10000000000000001
sS'LAWRENCEVILLE'
p2109
F0.20000000000000001
ssS'WOOD STREET'
p2110
(dp2111
S'HAY STREET'
p2112
F0.125
sS'EAST END'
p2113
F0.125
sS'ELM'
p2114
F0.125
sS'PITTSBURGH'
p2115
F0.125
sS'OAK'
p2116
F0.125
sS'DOWNTOWN'
p2117
F0.25
sS'SOUTH'
p2118
F0.125
ssS'NEGLEY AT MARGARETTA'
p2119
(dp2120
S'OVERBROOK'
p2121
F1.0
ssS'TURTLE CREEK'
p2122
(dp2123
S'BRIDGE'
p2124
F0.047619047619047616
sS'HOMEVILLE'
p2125
F0.047619047619047616
sS'OAKLAND'
p2126
F0.047619047619047616
sS'WALL'
p2127
F0.23809523809523808
sS'WEST'
p2128
F0.047619047619047616
sS'EAST'
p2129
F0.047619047619047616
sS'OAK'
p2130
F0.047619047619047616
sS'BUTLER STREET'
p2131
F0.047619047619047616
sS'EAST HILLS'
p2132
F0.047619047619047616
sS'PITTSBURGH'
p2133
F0.047619047619047616
sS'WAL-MART'
p2134
F0.047619047619047616
sS'MALL'
p2135
F0.047619047619047616
sS'WILKINSBURG'
p2136
F0.047619047619047616
sS'HILL'
p2137
F0.047619047619047616
sS'FOURTH'
p2138
F0.047619047619047616
sS'CRAIG'
p2139
F0.047619047619047616
sS'LINCOLN AVENUE'
p2140
F0.047619047619047616
ssS'EAST LIBERTY STATION'
p2141
(dp2142
S'WALL'
p2143
F1.0
ssS'SECOND AVENUE'
p2144
(dp2145
S'DOBSON'
p2146
F0.125
sS'SECOND AT KENNEDY'
p2147
F0.125
sS'ELM'
p2148
F0.125
sS'EIGHTEENTH'
p2149
F0.125
sS'HAZELWOOD'
p2150
F0.125
sS'ALLEGHENY'
p2151
F0.125
sS'SOUTH'
p2152
F0.25
ssS'WILKINS'
p2153
(dp2154
S'FOURTH'
p2155
F1.0
ssS'THE WATERFRONT'
p2156
(dp2157
S'BRIDGE'
p2158
F0.25
sS'FORBES'
p2159
F0.25
sS'WELFER'
p2160
F0.25
sS'WATERFRONT AT TERMINUS'
p2161
F0.25
ssS'OAK HILL'
p2162
(dp2163
S'NEVILLE'
p2164
F0.0625
sS'SQUIRREL HILL'
p2165
F0.0625
sS'NORTH'
p2166
F0.0625
sS'COAL'
p2167
F0.0625
sS'WALL'
p2168
F0.25
sS'PARK'
p2169
F0.125
sS'HOMEVILLE'
p2170
F0.0625
sS'DORMONT'
p2171
F0.0625
sS'FEDERAL'
p2172
F0.0625
sS'BELLEVUE'
p2173
F0.0625
sS'OAKLAND'
p2174
F0.0625
sS'CURRY'
p2175
F0.0625
ssS'SIXTEENTH STREET'
p2176
(dp2177
S'PENN STATION'
p2178
F1.0
ssS'FIFTH AT MARYLAND'
p2179
(dp2180
S'MOUNT OLIVER'
p2181
F0.33333333333333331
sS'EIGHTH'
p2182
F0.33333333333333331
sS'FIFTH AND HUEY'
p2183
F0.33333333333333331
ssS'PITTSBURGH INTERNATIONAL AIRPORT'
p2184
(dp2185
S'BRADDOCK'
p2186
F0.0625
sS'EAST END'
p2187
F0.0625
sS'FIFTH'
p2188
F0.0625
sS'PITTSBURGH'
p2189
F0.0625
sS'PERRYSVILLE'
p2190
F0.0625
sS'LIBERTY AND MAIN'
p2191
F0.0625
sS'MAGEE'
p2192
F0.0625
sS'ZOO'
p2193
F0.0625
sS'WILKINSBURG'
p2194
F0.0625
sS'PINE'
p2195
F0.0625
sS'MORGAN'
p2196
F0.0625
sS'THE AIRPORT'
p2197
F0.0625
sS'BIGELOW'
p2198
F0.0625
sS'INTERNATIONAL AIRPORT'
p2199
F0.0625
sS'PITT'
p2200
F0.0625
sS'HOMESTEAD'
p2201
F0.0625
ssS'EAST END'
p2202
(dp2203
S'BUS STATION'
p2204
F0.5
sS'HERRON AVENUE AND LIBERTY'
p2205
F0.5
ssS'PENN AVENUE'
p2206
(dp2207
S'HERRON'
p2208
F0.083333333333333329
sS'WILMERDING'
p2209
F0.083333333333333329
sS'TWENTY SECOND STREET'
p2210
F0.083333333333333329
sS'FEDERAL'
p2211
F0.083333333333333329
sS'HOMEWOOD'
p2212
F0.083333333333333329
sS'BRIGHTON AND RIDGE'
p2213
F0.083333333333333329
sS'EAST BOULEVARD'
p2214
F0.083333333333333329
sS'HENRIETTA AT BRADDOCK'
p2215
F0.083333333333333329
sS'JONES AVENUE'
p2216
F0.083333333333333329
sS'PENN'
p2217
F0.16666666666666666
sS'SECOND STREET AND GRANT'
p2218
F0.083333333333333329
ssS'PARK PLAZA AT CRAIG'
p2219
(dp2220
S'DOWNTOWN'
p2221
F0.20000000000000001
sS'BRADDOCK'
p2222
F0.20000000000000001
sS'FOURTH'
p2223
F0.20000000000000001
sS'BELL'
p2224
F0.40000000000000002
ssS'ANN AND EIGHTH'
p2225
(dp2226
S'OAKLAND'
p2227
F1.0
ssS'SIXTH'
p2228
(dp2229
S'PENN'
p2230
F1.0
ssS'GRANT'
p2231
(dp2232
S'VERSAILLES AVENUE'
p2233
F1.0
ssS'BROOKLINE'
p2234
(dp2235
S'PITT'
p2236
F0.5
sS'BRIGHTON'
p2237
F0.5
ssS'COAL'
p2238
(dp2239
S'KENMAWR AND RANKIN'
p2240
F1.0
ssS'PENN AND DALLAS'
p2241
(dp2242
S'HOMEWOOD'
p2243
F0.5
sS'MANCHESTER'
p2244
F0.5
ssS'BURROWS STREET'
p2245
(dp2246
S'MALL'
p2247
F0.33333333333333331
sS'THIRTY NINTH'
p2248
F0.16666666666666666
sS'BELL'
p2249
F0.16666666666666666
sS'SHERADEN'
p2250
F0.16666666666666666
sS'NORTH BRADDOCK'
p2251
F0.16666666666666666
ssS'CARNEGIE STREET'
p2252
(dp2253
S'NORTH'
p2254
F0.5
sS'CARNEGIE'
p2255
F0.5
ssS'MARYLAND'
p2256
(dp2257
S'WALL'
p2258
F0.33333333333333331
sS'AIRPORT'
p2259
F0.33333333333333331
sS'ANN'
p2260
F0.33333333333333331
ssS'NORTH SIDE'
p2261
(dp2262
S'SARAH'
p2263
F0.16666666666666666
sS'CENTER STREET'
p2264
F0.16666666666666666
sS'JANE STREET'
p2265
F0.16666666666666666
sS'NORTH'
p2266
F0.33333333333333331
sS'BRADDOCK AT GREENDALE'
p2267
F0.16666666666666666
ssS'SMITHFIELD'
p2268
(dp2269
S'SIXTH'
p2270
F1.0
ssS'FIFTH'
p2271
(dp2272
S'TWENTIETH'
p2273
F0.052631578947368418
sS'CHESTERFIELD AND FIFTH'
p2274
F0.052631578947368418
sS'OAK HILL'
p2275
F0.052631578947368418
sS'WALL'
p2276
F0.21052631578947367
sS'PITT'
p2277
F0.052631578947368418
sS'PITTSBURGH'
p2278
F0.052631578947368418
sS'FORBES'
p2279
F0.052631578947368418
sS'SOUTH'
p2280
F0.052631578947368418
sS'SMITHFIELD AND FIFTH'
p2281
F0.052631578947368418
sS'PITTSBURGH ZOO'
p2282
F0.10526315789473684
sS'HOMESTEAD'
p2283
F0.052631578947368418
sS'CURRY'
p2284
F0.052631578947368418
sS'SMITHFIELD'
p2285
F0.052631578947368418
sS'BROWNSVILLE'
p2286
F0.052631578947368418
sS'MCKEESPORT'
p2287
F0.052631578947368418
ssS'HOMESTEAD'
p2288
(dp2289
S'RODI'
p2290
F0.013698630136986301
sS'HERRON'
p2291
F0.054794520547945202
sS'HUEY AND LYSLE'
p2292
F0.013698630136986301
sS'BELL'
p2293
F0.013698630136986301
sS'WALL'
p2294
F0.1095890410958904
sS'RANKIN'
p2295
F0.013698630136986301
sS'MURRAY'
p2296
F0.027397260273972601
sS'HOMEVILLE'
p2297
F0.027397260273972601
sS'DOWNTOWN'
p2298
F0.013698630136986301
sS'HAZELWOOD'
p2299
F0.027397260273972601
sS'THE ZOO'
p2300
F0.013698630136986301
sS'HIGHLAND AT PENN'
p2301
F0.013698630136986301
sS'THE WATERFRONT'
p2302
F0.013698630136986301
sS'ANN AT NINTH'
p2303
F0.013698630136986301
sS'EIGHTH'
p2304
F0.013698630136986301
sS'BRADDOCK'
p2305
F0.013698630136986301
sS'OLIVER'
p2306
F0.013698630136986301
sS'EAST END'
p2307
F0.027397260273972601
sS'EIGHTH AVENUE'
p2308
F0.027397260273972601
sS'BRIGHTON AND RIDGE'
p2309
F0.013698630136986301
sS'PITT'
p2310
F0.013698630136986301
sS'COAL'
p2311
F0.013698630136986301
sS'PENN'
p2312
F0.054794520547945202
sS'ELM STREET'
p2313
F0.013698630136986301
sS'ELLSWORTH'
p2314
F0.013698630136986301
sS'BRIDGE'
p2315
F0.013698630136986301
sS'EDGEWOOD'
p2316
F0.013698630136986301
sS'MORGAN'
p2317
F0.013698630136986301
sS'WALLACE'
p2318
F0.013698630136986301
sS'SHADY'
p2319
F0.013698630136986301
sS'POLISH HILL'
p2320
F0.013698630136986301
sS'EAST HILLS'
p2321
F0.013698630136986301
sS'CARNEGIE'
p2322
F0.013698630136986301
sS'WATERFRONT'
p2323
F0.013698630136986301
sS'NORTH'
p2324
F0.027397260273972601
sS'PRESBY'
p2325
F0.013698630136986301
sS'WILMERDING'
p2326
F0.013698630136986301
sS'OAKLAND'
p2327
F0.013698630136986301
sS'PENNSYLVANIA'
p2328
F0.013698630136986301
sS'WEST'
p2329
F0.041095890410958902
sS'PINE'
p2330
F0.013698630136986301
sS'WALNUT'
p2331
F0.013698630136986301
sS'CARSON'
p2332
F0.013698630136986301
sS'WAL-MART'
p2333
F0.013698630136986301
sS'WOOD'
p2334
F0.013698630136986301
sS'BLACKRIDGE'
p2335
F0.013698630136986301
sS'GIANT EAGLE'
p2336
F0.013698630136986301
sS'FOURTH'
p2337
F0.013698630136986301
sS'GRANT STREET'
p2338
F0.013698630136986301
sS'HIGHLAND'
p2339
F0.027397260273972601
sS'MCKEESPORT'
p2340
F0.013698630136986301
ssS'NEVILLE'
p2341
(dp2342
S'CMU'
p2343
F0.5
sS'KENNEDY'
p2344
F0.5
ssS'GREENFIELD'
p2345
(dp2346
S'GIANT EAGLE'
p2347
F0.25
sS'CMU'
p2348
F0.25
sS'HILTON'
p2349
F0.5
ssS'NEGLEY AND ELLSWORTH'
p2350
(dp2351
S'SOUTH NEGLEY AND ELLSWORTH'
p2352
F1.0
ssS'MCKINLEY STREET'
p2353
(dp2354
S'SOUTH SIDE'
p2355
F0.5
sS'MOUNT OLIVER'
p2356
F0.5
ssS'FIFTH AVENUE'
p2357
(dp2358
S'EDGEWOOD'
p2359
F0.10000000000000001
sS'OLIVER'
p2360
F0.10000000000000001
sS'BESSEMER'
p2361
F0.10000000000000001
sS'PITTSBURGH'
p2362
F0.10000000000000001
sS'LIBERTY AT MILLVALE'
p2363
F0.10000000000000001
sS'MIFFLIN'
p2364
F0.10000000000000001
sS'TWENTIETH'
p2365
F0.10000000000000001
sS'EIGHTH'
p2366
F0.10000000000000001
sS'FIFTH'
p2367
F0.20000000000000001
ssS'FORBES AND SHADY'
p2368
(dp2369
S'WALL'
p2370
F0.5
sS'EAST'
p2371
F0.5
ssS'CRAFTON'
p2372
(dp2373
S'BUS STATION'
p2374
F0.33333333333333331
sS'ANN AT NINTH'
p2375
F0.33333333333333331
sS'BUSWAY'
p2376
F0.33333333333333331
ssS'DYNAMO WAY'
p2377
(dp2378
S'THE MALL'
p2379
F0.5
sS'WALLACE'
p2380
F0.5
ssS'MCKEE'
p2381
(dp2382
S'TRANSPORTATION CENTER'
p2383
F0.1111111111111111
sS'WEST'
p2384
F0.1111111111111111
sS'PITT'
p2385
F0.1111111111111111
sS'MAGEE'
p2386
F0.1111111111111111
sS'AIRPORT'
p2387
F0.22222222222222221
sS'EAST'
p2388
F0.1111111111111111
sS'FIFTH'
p2389
F0.1111111111111111
sS'MCKEESPORT'
p2390
F0.1111111111111111
ssS'SAINT CLAIR'
p2391
(dp2392
S'ELIZABETH'
p2393
F0.14285714285714285
sS'BRYANT STREET AND SAINT CLAIR AVENUE'
p2394
F0.14285714285714285
sS'TENTH STREET'
p2395
F0.14285714285714285
sS'HULTON'
p2396
F0.14285714285714285
sS'PENN'
p2397
F0.14285714285714285
sS'CURRY'
p2398
F0.2857142857142857
ssS'NORTH AND ARCH'
p2399
(dp2400
S'NEVILLE'
p2401
F1.0
ssS'MURRAY AVENUE AND FLEMINGTON STREET'
p2402
(dp2403
S'LIBRARY AVENUE'
p2404
F1.0
ssS'HOBART'
p2405
(dp2406
S'OLIVER'
p2407
F0.5
sS'EAST END'
p2408
F0.5
ssS'NORTH'
p2409
(dp2410
S'BRADDOCK'
p2411
F0.041666666666666664
sS'CENTER'
p2412
F0.125
sS'CENTURY THREE'
p2413
F0.041666666666666664
sS'CENTRE'
p2414
F0.041666666666666664
sS'WALL'
p2415
F0.041666666666666664
sS'CEDAR'
p2416
F0.041666666666666664
sS'PARK'
p2417
F0.041666666666666664
sS'TURTLE CREEK'
p2418
F0.041666666666666664
sS'GRACE'
p2419
F0.041666666666666664
sS'DOWNTOWN'
p2420
F0.041666666666666664
sS'SCOTT'
p2421
F0.083333333333333329
sS'STRIP'
p2422
F0.041666666666666664
sS'BIGELOW'
p2423
F0.041666666666666664
sS'PENN'
p2424
F0.041666666666666664
sS'CURRY'
p2425
F0.041666666666666664
sS'MURDOCH'
p2426
F0.125
sS'VERSAILLES'
p2427
F0.083333333333333329
sS'HOMESTEAD'
p2428
F0.041666666666666664
ssS'LINCOLN AVENUE'
p2429
(dp2430
S'LINCOLN'
p2431
F0.16666666666666666
sS'DUQUESNE'
p2432
F0.16666666666666666
sS'CENTER'
p2433
F0.16666666666666666
sS'SHERADEN'
p2434
F0.16666666666666666
sS'LINCOLN AND ROWAN'
p2435
F0.16666666666666666
sS'LIBERTY'
p2436
F0.16666666666666666
ssS'FORBES AND PRIDE'
p2437
(dp2438
S'DOWNTOWN'
p2439
F1.0
ssS'FIFTH AND BIGELOW'
p2440
(dp2441
S'HERRON'
p2442
F0.25
sS'BIGELOW'
p2443
F0.25
sS'PITT AND SOUTH'
p2444
F0.25
sS'WALNUT'
p2445
F0.25
ssS'FIFTH AND SMITHFIELD'
p2446
(dp2447
S'SHERADEN'
p2448
F1.0
ssS'HIGH'
p2449
(dp2450
S'KELLY'
p2451
F1.0
ssS'EAST HILLS AVENUE'
p2452
(dp2453
S'HOMEWOOD'
p2454
F1.0
ssS'CHURCHILL'
p2455
(dp2456
S'DUQUESNE'
p2457
F0.076923076923076927
sS'ELM'
p2458
F0.15384615384615385
sS'WALL'
p2459
F0.15384615384615385
sS'SPRING HILL'
p2460
F0.076923076923076927
sS'MIFFLIN'
p2461
F0.076923076923076927
sS'THE MALL'
p2462
F0.076923076923076927
sS'TENNYSON'
p2463
F0.076923076923076927
sS'WALNUT'
p2464
F0.076923076923076927
sS'HILL'
p2465
F0.076923076923076927
sS'BELL STATION'
p2466
F0.076923076923076927
sS'PENN'
p2467
F0.076923076923076927
ssS'LILAC'
p2468
(dp2469
S'WALL'
p2470
F0.5
sS'PARK'
p2471
F0.5
ssS'WEBSTER'
p2472
(dp2473
S'SQUIRREL HILL'
p2474
F0.33333333333333331
sS'BLACKRIDGE'
p2475
F0.33333333333333331
sS'RANKIN'
p2476
F0.33333333333333331
ssS'HIGHLAND'
p2477
(dp2478
S'HERRON'
p2479
F0.25
sS'PENN'
p2480
F0.25
sS'NEVILLE'
p2481
F0.25
sS'MARYLAND'
p2482
F0.25
ssS'REBECCA AND COAL'
p2483
(dp2484
S'FORBES AND CRAIG'
p2485
F1.0
ssS'SEVENTH'
p2486
(dp2487
S'EAST END'
p2488
F1.0
ssS'SIXTH AND WOOD STREET'
p2489
(dp2490
S'FIFTH AND WOOD'
p2491
F1.0
ssS'EAST OHIO STREET'
p2492
(dp2493
S'CENTER'
p2494
F0.14285714285714285
sS'BELL'
p2495
F0.14285714285714285
sS'EIGHTEENTH'
p2496
F0.14285714285714285
sS'MCKEE STREET'
p2497
F0.14285714285714285
sS'MAGEE'
p2498
F0.14285714285714285
sS'EAST OHIO'
p2499
F0.14285714285714285
sS'AIKEN'
p2500
F0.14285714285714285
ssS'WATERFRONT DRIVE'
p2501
(dp2502
S'LAWRENCEVILLE'
p2503
F1.0
ssS'FIFTH AND ATWOOD'
p2504
(dp2505
S'WALL'
p2506
F1.0
ssS'SEVENTH AND PENN'
p2507
(dp2508
S'TALBOT'
p2509
F0.5
sS'BELL'
p2510
F0.5
ssS'BUS STATION'
p2511
(dp2512
S'NEVILLE'
p2513
F0.33333333333333331
sS'EAST LIBERTY'
p2514
F0.33333333333333331
sS'WEST PENN'
p2515
F0.33333333333333331
ssS'REBECCA'
p2516
(dp2517
S'WALL'
p2518
F1.0
ss.