(dp0
S'multi3'
p1
(lp2
sS'multi2'
p3
(lp4
F0.41782999999999998
aF0.099010000000000001
aF0.037679999999999998
asS'multi5'
p5
(lp6
sS'multi4'
p7
(lp8
sS'bn'
p9
(lp10
F0.41320000000000001
aF0.51587000000000005
aF0.60985999999999996
aF0.65061000000000002
asS'ap'
p11
(lp12
F0.53657999999999995
aF0.81791999999999998
aF0.22789000000000001
aF0.43901000000000001
aF0.84606000000000003
aF0.39388000000000001
aF0.64439000000000002
aF0.45340000000000003
aF0.60436999999999996
aF0.75600999999999996
aF0.53615000000000002
aF0.53966000000000003
aF0.72391000000000005
aF0.82438
aF0.77863000000000004
aF0.68693000000000004
aF0.84597
aF0.84018000000000004
aF0.86523000000000005
aF0.40437000000000001
aF0.46111000000000002
aF0.74385000000000001
aF0.40039000000000002
aF0.49891999999999997
aF0.66185000000000005
aF0.18207000000000001
aF0.86656
aF0.66586000000000001
aF0.76902000000000004
aF0.68503999999999998
asS'single'
p13
(lp14
F0.41320000000000001
aF0.51587000000000005
aF0.60985999999999996
aF0.65061000000000002
aF0.69281000000000004
aF0.1913
aF0.62934999999999997
aF0.85131000000000001
aF0.66901999999999995
aF0.84499000000000002
aF0.31408999999999998
aF0.6341
aF0.45343
aF0.52024000000000004
aF0.56794999999999995
aF0.39789000000000002
aF0.59880999999999995
aF0.58159000000000005
aF0.36906
aF0.70030000000000003
aF0.57899
aF0.64159999999999995
aF0.84096000000000004
aF0.64500999999999997
aF0.33937
aF0.57287999999999994
aF0.40461999999999998
aF0.59870999999999996
aF0.77524000000000004
aF0.78000999999999998
aF0.45412000000000002
aF0.40754000000000001
aF0.53657999999999995
aF0.81791999999999998
aF0.22789000000000001
aF0.43901000000000001
aF0.84606000000000003
aF0.39388000000000001
aF0.64439000000000002
aF0.45340000000000003
aF0.60436999999999996
aF0.75600999999999996
aF0.53615000000000002
aF0.53966000000000003
aF0.72391000000000005
aF0.82438
aF0.77863000000000004
aF0.68693000000000004
aF0.84597
aF0.84018000000000004
aF0.86523000000000005
aF0.40437000000000001
aF0.46111000000000002
aF0.74385000000000001
aF0.40039000000000002
aF0.49891999999999997
aF0.66185000000000005
aF0.18207000000000001
aF0.86656
aF0.66586000000000001
aF0.76902000000000004
aF0.68503999999999998
aF0.54361999999999999
aF0.91386999999999996
aF0.78303999999999996
aF0.90266000000000002
aF0.78739999999999999
aF0.71067999999999998
aF0.90317999999999998
aF0.53283000000000003
aF0.59499999999999997
aF0.88890999999999998
aF0.88900000000000001
aF0.77871999999999997
aF0.74131999999999998
aF0.79056999999999999
aF0.90861999999999998
aF0.37909999999999999
aF0.78088000000000002
aF0.86229999999999996
aF0.87909000000000004
aF0.59963
aF0.65636000000000005
aF0.066180000000000003
aF0.88009000000000004
aF0.14971999999999999
aF0.88409000000000004
aF0.93455999999999995
aF0.13288
aF0.91059000000000001
aF0.87968000000000002
aF0.42301
aF0.82894000000000001
aF0.90761999999999998
aF0.90320999999999996
aF0.83865999999999996
aF0.85024999999999995
aF0.84841
aF0.85351999999999995
aF0.91298999999999997
aF0.90361999999999998
aF0.91078000000000003
aF0.92896999999999996
aF0.88322000000000001
aF0.90925
aF0.85555999999999999
aF0.68325000000000002
aF0.69038999999999995
aF0.71045000000000003
aF0.85160000000000002
aF0.79462999999999995
aF0.77825
aF0.89312000000000002
aF0.8992
aF0.90286999999999995
aF0.90015000000000001
aF0.90690000000000004
aF0.90651000000000004
aF0.82804
aF0.83533000000000002
aF0.81459999999999999
aF0.76529999999999998
aF0.78190999999999999
aF0.81660999999999995
aF0.92781999999999998
aF0.88232999999999995
aF0.86939
aF0.89532999999999996
aF0.89844999999999997
aF0.91542000000000001
aF0.91461000000000003
aF0.88639000000000001
aF0.88900000000000001
aF0.88861999999999997
aF0.72738999999999998
aF0.83118999999999998
aF0.78802000000000005
aF0.93625999999999998
aF0.93896999999999997
aF0.93747000000000003
aF0.93899999999999995
aF0.94067999999999996
aF0.93830999999999998
aF0.94120000000000004
aF0.83321999999999996
aF0.83745000000000003
aF0.78690000000000004
aF0.93664999999999998
aF0.79322999999999999
aF0.92100000000000004
aF0.92959999999999998
aF0.93020999999999998
aF0.93276999999999999
aF0.91078000000000003
aF0.81242000000000003
aF0.88922000000000001
aF0.89656999999999998
aF0.93345999999999996
aF0.86055000000000004
aF0.92140999999999995
aF0.92566000000000004
aF0.85287999999999997
aF0.89817999999999998
aF0.89907000000000004
aF0.90093000000000001
aF0.93622000000000005
aF0.94196000000000002
aF0.93825000000000003
aF0.93830999999999998
aF0.93154999999999999
aF0.93223999999999996
aF0.93330999999999997
aF0.69235999999999998
aF0.91764000000000001
aF0.91971999999999998
aF0.92018999999999995
aF0.91285000000000005
aF0.90327999999999997
aF0.92744000000000004
aF0.81879999999999997
aF0.92098000000000002
aF0.91376999999999997
aF0.91840999999999995
aF0.91529000000000005
aF0.50292000000000003
aF0.56862000000000001
aF0.62144999999999995
aF0.78222999999999998
aF0.54074999999999995
aF0.57050000000000001
aF0.75605
aF0.77173999999999998
aF0.74009000000000003
aF0.79310000000000003
aF0.71855000000000002
aF0.75483
aF0.78632000000000002
aF0.77761000000000002
aF0.79869000000000001
aF0.77236000000000005
aF0.79052999999999995
aF0.79079999999999995
aF0.79723999999999995
aF0.79310999999999998
aF0.79396
aF0.79164000000000001
aF0.78493999999999997
aF0.69481999999999999
aF0.76695999999999998
aF0.77983999999999998
aF0.64276
aF0.3841
aF0.58845999999999998
aF0.72223999999999999
aF0.67627999999999999
aF0.62109000000000003
aF0.67701999999999996
aF0.72443000000000002
aF0.70099
aF0.71248999999999996
aF0.53520999999999996
aF0.75451999999999997
aF0.71541999999999994
aF0.66700000000000004
aF0.60289999999999999
aF0.61073999999999995
aF0.6825
aF0.76275999999999999
aF0.73314999999999997
aF0.74067000000000005
aF0.75155000000000005
aF0.75517999999999996
aF0.77654000000000001
aF0.69918999999999998
aF0.68396000000000001
aF0.69137000000000004
aF0.54344000000000003
aF0.78520000000000001
aF0.79310999999999998
aF0.79988000000000004
aF0.80044000000000004
aF0.79525000000000001
aF0.79137999999999997
aF0.02768
aF0.80376999999999998
aF0.79052999999999995
aF0.79491000000000001
aF0.79723999999999995
aF0.78561000000000003
aF0.79569999999999996
aF0.79305999999999999
aF0.79554999999999998
aF0.68306999999999995
aF0.81105000000000005
aF0.67466999999999999
aF0.77753000000000005
aF0.55693000000000004
aF0.63621000000000005
aF0.51197999999999999
aF0.52320999999999995
aF0.79310000000000003
aF0.73394999999999999
aF0.69708999999999999
aF0.71750999999999998
aF0.71382000000000001
aF0.71309999999999996
aF0.71889000000000003
aF0.72904999999999998
aF0.74304999999999999
aF0.75738000000000005
aF0.38641999999999999
aF0.44029000000000001
aF0.50751999999999997
aF0.62346999999999997
aF0.39939999999999998
aF0.80356000000000005
aF0.81215999999999999
aF0.81664000000000003
aF0.81940999999999997
aF0.81701999999999997
aF0.81301000000000001
aF0.78520000000000001
aF0.61806000000000005
aF0.78090999999999999
aF0.59916999999999998
aF0.77331000000000005
aF0.66498999999999997
aF0.73433000000000004
aF0.74611000000000005
aF0.75212999999999997
aF0.26794000000000001
aF0.71886000000000005
aF0.61106000000000005
aF0.76573000000000002
aF0.75993999999999995
aF0.76695000000000002
aF0.76571
aF0.6825
aF0.060359999999999997
aF0.42079
aF0.73599000000000003
aF0.70726999999999995
aF0.72775999999999996
asS'yes'
p15
(lp16
F0.83865999999999996
aF0.85024999999999995
aF0.84841
aF0.85351999999999995
aF0.91298999999999997
aF0.90361999999999998
aF0.91078000000000003
aF0.92896999999999996
aF0.88322000000000001
aF0.90925
aF0.85555999999999999
aF0.68325000000000002
aF0.69038999999999995
aF0.71045000000000003
aF0.85160000000000002
aF0.79462999999999995
aF0.77825
aF0.89312000000000002
aF0.8992
aF0.90286999999999995
aF0.90015000000000001
aF0.90690000000000004
aF0.90651000000000004
aF0.82804
aF0.83533000000000002
aF0.81459999999999999
aF0.76529999999999998
aF0.78190999999999999
aF0.81660999999999995
aF0.92781999999999998
aF0.88232999999999995
aF0.86939
aF0.89532999999999996
aF0.89844999999999997
aF0.91542000000000001
aF0.91461000000000003
aF0.88639000000000001
aF0.88900000000000001
aF0.88861999999999997
aF0.72738999999999998
aF0.83118999999999998
aF0.78802000000000005
aF0.93625999999999998
aF0.93896999999999997
aF0.93747000000000003
aF0.93899999999999995
aF0.94067999999999996
aF0.93830999999999998
aF0.94120000000000004
aF0.83321999999999996
aF0.83745000000000003
aF0.78690000000000004
aF0.93664999999999998
aF0.79322999999999999
aF0.92100000000000004
aF0.92959999999999998
aF0.93020999999999998
aF0.93276999999999999
aF0.91078000000000003
aF0.81242000000000003
aF0.88922000000000001
aF0.89656999999999998
aF0.93345999999999996
aF0.86055000000000004
aF0.92140999999999995
aF0.92566000000000004
aF0.85287999999999997
aF0.89817999999999998
aF0.89907000000000004
aF0.90093000000000001
aF0.93622000000000005
aF0.94196000000000002
aF0.93825000000000003
aF0.93830999999999998
aF0.93154999999999999
aF0.93223999999999996
aF0.93330999999999997
aF0.69235999999999998
aF0.91764000000000001
aF0.91971999999999998
aF0.92018999999999995
aF0.91285000000000005
aF0.90327999999999997
aF0.92744000000000004
aF0.81879999999999997
aF0.92098000000000002
aF0.91376999999999997
aF0.91840999999999995
aF0.91529000000000005
asS'total'
p17
(lp18
F0.41320000000000001
aF0.51587000000000005
aF0.60985999999999996
aF0.65061000000000002
aF0.69281000000000004
aF0.1913
aF0.62934999999999997
aF0.85131000000000001
aF0.66901999999999995
aF0.84499000000000002
aF0.31408999999999998
aF0.6341
aF0.45343
aF0.52024000000000004
aF0.56794999999999995
aF0.39789000000000002
aF0.59880999999999995
aF0.58159000000000005
aF0.36906
aF0.70030000000000003
aF0.57899
aF0.64159999999999995
aF0.84096000000000004
aF0.64500999999999997
aF0.33937
aF0.57287999999999994
aF0.40461999999999998
aF0.59870999999999996
aF0.77524000000000004
aF0.78000999999999998
aF0.45412000000000002
aF0.40754000000000001
aF0.53657999999999995
aF0.81791999999999998
aF0.22789000000000001
aF0.43901000000000001
aF0.84606000000000003
aF0.39388000000000001
aF0.64439000000000002
aF0.45340000000000003
aF0.60436999999999996
aF0.75600999999999996
aF0.53615000000000002
aF0.53966000000000003
aF0.72391000000000005
aF0.82438
aF0.77863000000000004
aF0.68693000000000004
aF0.84597
aF0.84018000000000004
aF0.86523000000000005
aF0.40437000000000001
aF0.46111000000000002
aF0.74385000000000001
aF0.40039000000000002
aF0.49891999999999997
aF0.66185000000000005
aF0.18207000000000001
aF0.86656
aF0.66586000000000001
aF0.76902000000000004
aF0.68503999999999998
aF0.54361999999999999
aF0.91386999999999996
aF0.78303999999999996
aF0.90266000000000002
aF0.78739999999999999
aF0.71067999999999998
aF0.90317999999999998
aF0.53283000000000003
aF0.59499999999999997
aF0.88890999999999998
aF0.88900000000000001
aF0.77871999999999997
aF0.74131999999999998
aF0.79056999999999999
aF0.90861999999999998
aF0.37909999999999999
aF0.78088000000000002
aF0.86229999999999996
aF0.87909000000000004
aF0.59963
aF0.65636000000000005
aF0.066180000000000003
aF0.88009000000000004
aF0.14971999999999999
aF0.88409000000000004
aF0.93455999999999995
aF0.13288
aF0.91059000000000001
aF0.87968000000000002
aF0.42301
aF0.82894000000000001
aF0.90761999999999998
aF0.90320999999999996
aF0.83865999999999996
aF0.85024999999999995
aF0.84841
aF0.85351999999999995
aF0.91298999999999997
aF0.90361999999999998
aF0.91078000000000003
aF0.92896999999999996
aF0.88322000000000001
aF0.90925
aF0.85555999999999999
aF0.68325000000000002
aF0.69038999999999995
aF0.71045000000000003
aF0.85160000000000002
aF0.79462999999999995
aF0.77825
aF0.89312000000000002
aF0.8992
aF0.90286999999999995
aF0.90015000000000001
aF0.90690000000000004
aF0.90651000000000004
aF0.82804
aF0.83533000000000002
aF0.81459999999999999
aF0.76529999999999998
aF0.78190999999999999
aF0.81660999999999995
aF0.92781999999999998
aF0.88232999999999995
aF0.86939
aF0.89532999999999996
aF0.89844999999999997
aF0.91542000000000001
aF0.91461000000000003
aF0.88639000000000001
aF0.88900000000000001
aF0.88861999999999997
aF0.72738999999999998
aF0.83118999999999998
aF0.78802000000000005
aF0.93625999999999998
aF0.93896999999999997
aF0.93747000000000003
aF0.93899999999999995
aF0.94067999999999996
aF0.93830999999999998
aF0.94120000000000004
aF0.83321999999999996
aF0.83745000000000003
aF0.78690000000000004
aF0.93664999999999998
aF0.79322999999999999
aF0.92100000000000004
aF0.92959999999999998
aF0.93020999999999998
aF0.93276999999999999
aF0.91078000000000003
aF0.81242000000000003
aF0.88922000000000001
aF0.89656999999999998
aF0.93345999999999996
aF0.86055000000000004
aF0.92140999999999995
aF0.92566000000000004
aF0.85287999999999997
aF0.89817999999999998
aF0.89907000000000004
aF0.90093000000000001
aF0.93622000000000005
aF0.94196000000000002
aF0.93825000000000003
aF0.93830999999999998
aF0.93154999999999999
aF0.93223999999999996
aF0.93330999999999997
aF0.69235999999999998
aF0.91764000000000001
aF0.91971999999999998
aF0.92018999999999995
aF0.91285000000000005
aF0.90327999999999997
aF0.92744000000000004
aF0.81879999999999997
aF0.92098000000000002
aF0.91376999999999997
aF0.91840999999999995
aF0.91529000000000005
aF0.50292000000000003
aF0.56862000000000001
aF0.62144999999999995
aF0.78222999999999998
aF0.54074999999999995
aF0.57050000000000001
aF0.75605
aF0.77173999999999998
aF0.74009000000000003
aF0.79310000000000003
aF0.71855000000000002
aF0.75483
aF0.78632000000000002
aF0.77761000000000002
aF0.79869000000000001
aF0.77236000000000005
aF0.79052999999999995
aF0.79079999999999995
aF0.79723999999999995
aF0.79310999999999998
aF0.79396
aF0.79164000000000001
aF0.78493999999999997
aF0.69481999999999999
aF0.76695999999999998
aF0.77983999999999998
aF0.64276
aF0.3841
aF0.58845999999999998
aF0.72223999999999999
aF0.67627999999999999
aF0.62109000000000003
aF0.67701999999999996
aF0.72443000000000002
aF0.70099
aF0.71248999999999996
aF0.53520999999999996
aF0.75451999999999997
aF0.71541999999999994
aF0.66700000000000004
aF0.60289999999999999
aF0.61073999999999995
aF0.6825
aF0.76275999999999999
aF0.73314999999999997
aF0.74067000000000005
aF0.75155000000000005
aF0.75517999999999996
aF0.77654000000000001
aF0.69918999999999998
aF0.68396000000000001
aF0.69137000000000004
aF0.54344000000000003
aF0.78520000000000001
aF0.79310999999999998
aF0.79988000000000004
aF0.80044000000000004
aF0.79525000000000001
aF0.79137999999999997
aF0.02768
aF0.80376999999999998
aF0.79052999999999995
aF0.79491000000000001
aF0.79723999999999995
aF0.78561000000000003
aF0.79569999999999996
aF0.79305999999999999
aF0.79554999999999998
aF0.68306999999999995
aF0.81105000000000005
aF0.67466999999999999
aF0.77753000000000005
aF0.55693000000000004
aF0.63621000000000005
aF0.51197999999999999
aF0.52320999999999995
aF0.79310000000000003
aF0.73394999999999999
aF0.69708999999999999
aF0.71750999999999998
aF0.71382000000000001
aF0.71309999999999996
aF0.71889000000000003
aF0.72904999999999998
aF0.74304999999999999
aF0.75738000000000005
aF0.38641999999999999
aF0.44029000000000001
aF0.50751999999999997
aF0.62346999999999997
aF0.39939999999999998
aF0.80356000000000005
aF0.81215999999999999
aF0.81664000000000003
aF0.81940999999999997
aF0.81701999999999997
aF0.81301000000000001
aF0.78520000000000001
aF0.61806000000000005
aF0.78090999999999999
aF0.59916999999999998
aF0.77331000000000005
aF0.66498999999999997
aF0.73433000000000004
aF0.74611000000000005
aF0.75212999999999997
aF0.26794000000000001
aF0.71886000000000005
aF0.61106000000000005
aF0.76573000000000002
aF0.75993999999999995
aF0.76695000000000002
aF0.76571
aF0.6825
aF0.060359999999999997
aF0.42079
aF0.73599000000000003
aF0.70726999999999995
aF0.72775999999999996
aF0.41782999999999998
aF0.099010000000000001
aF0.037679999999999998
asS'dp'
p19
(lp20
F0.69281000000000004
aF0.1913
aF0.62934999999999997
aF0.85131000000000001
aF0.66901999999999995
aF0.84499000000000002
aF0.31408999999999998
aF0.6341
aF0.45343
aF0.52024000000000004
aF0.56794999999999995
aF0.39789000000000002
aF0.59880999999999995
aF0.58159000000000005
aF0.36906
aF0.70030000000000003
aF0.57899
aF0.64159999999999995
aF0.84096000000000004
aF0.64500999999999997
aF0.33937
aF0.57287999999999994
aF0.40461999999999998
aF0.59870999999999996
aF0.77524000000000004
aF0.78000999999999998
aF0.45412000000000002
aF0.40754000000000001
asS'multi'
p21
(lp22
F0.41782999999999998
aF0.099010000000000001
aF0.037679999999999998
asS'no'
p23
(lp24
F0.50292000000000003
aF0.56862000000000001
aF0.62144999999999995
aF0.78222999999999998
aF0.54074999999999995
aF0.57050000000000001
aF0.75605
aF0.77173999999999998
aF0.74009000000000003
aF0.79310000000000003
aF0.71855000000000002
aF0.75483
aF0.78632000000000002
aF0.77761000000000002
aF0.79869000000000001
aF0.77236000000000005
aF0.79052999999999995
aF0.79079999999999995
aF0.79723999999999995
aF0.79310999999999998
aF0.79396
aF0.79164000000000001
aF0.78493999999999997
aF0.69481999999999999
aF0.76695999999999998
aF0.77983999999999998
aF0.64276
aF0.3841
aF0.58845999999999998
aF0.72223999999999999
aF0.67627999999999999
aF0.62109000000000003
aF0.67701999999999996
aF0.72443000000000002
aF0.70099
aF0.71248999999999996
aF0.53520999999999996
aF0.75451999999999997
aF0.71541999999999994
aF0.66700000000000004
aF0.60289999999999999
aF0.61073999999999995
aF0.6825
aF0.76275999999999999
aF0.73314999999999997
aF0.74067000000000005
aF0.75155000000000005
aF0.75517999999999996
aF0.77654000000000001
aF0.69918999999999998
aF0.68396000000000001
aF0.69137000000000004
aF0.54344000000000003
aF0.78520000000000001
aF0.79310999999999998
aF0.79988000000000004
aF0.80044000000000004
aF0.79525000000000001
aF0.79137999999999997
aF0.02768
aF0.80376999999999998
aF0.79052999999999995
aF0.79491000000000001
aF0.79723999999999995
aF0.78561000000000003
aF0.79569999999999996
aF0.79305999999999999
aF0.79554999999999998
aF0.68306999999999995
aF0.81105000000000005
aF0.67466999999999999
aF0.77753000000000005
aF0.55693000000000004
aF0.63621000000000005
aF0.51197999999999999
aF0.52320999999999995
aF0.79310000000000003
aF0.73394999999999999
aF0.69708999999999999
aF0.71750999999999998
aF0.71382000000000001
aF0.71309999999999996
aF0.71889000000000003
aF0.72904999999999998
aF0.74304999999999999
aF0.75738000000000005
aF0.38641999999999999
aF0.44029000000000001
aF0.50751999999999997
aF0.62346999999999997
aF0.39939999999999998
aF0.80356000000000005
aF0.81215999999999999
aF0.81664000000000003
aF0.81940999999999997
aF0.81701999999999997
aF0.81301000000000001
aF0.78520000000000001
aF0.61806000000000005
aF0.78090999999999999
aF0.59916999999999998
aF0.77331000000000005
aF0.66498999999999997
aF0.73433000000000004
aF0.74611000000000005
aF0.75212999999999997
aF0.26794000000000001
aF0.71886000000000005
aF0.61106000000000005
aF0.76573000000000002
aF0.75993999999999995
aF0.76695000000000002
aF0.76571
aF0.6825
aF0.060359999999999997
aF0.42079
aF0.73599000000000003
aF0.70726999999999995
aF0.72775999999999996
asS'tt'
p25
(lp26
F0.54361999999999999
aF0.91386999999999996
aF0.78303999999999996
aF0.90266000000000002
aF0.78739999999999999
aF0.71067999999999998
aF0.90317999999999998
aF0.53283000000000003
aF0.59499999999999997
aF0.88890999999999998
aF0.88900000000000001
aF0.77871999999999997
aF0.74131999999999998
aF0.79056999999999999
aF0.90861999999999998
aF0.37909999999999999
aF0.78088000000000002
aF0.86229999999999996
aF0.87909000000000004
aF0.59963
aF0.65636000000000005
aF0.066180000000000003
aF0.88009000000000004
aF0.14971999999999999
aF0.88409000000000004
aF0.93455999999999995
aF0.13288
aF0.91059000000000001
aF0.87968000000000002
aF0.42301
aF0.82894000000000001
aF0.90761999999999998
aF0.90320999999999996
as.