(dp0
S'multi3'
p1
(lp2
sS'multi2'
p3
(lp4
F0.03116
asS'multi5'
p5
(lp6
sS'multi4'
p7
(lp8
sS'bn'
p9
(lp10
F0.39106000000000002
aF0.42959999999999998
aF0.42024
aF0.43312
aF0.42936999999999997
aF0.54378000000000004
aF0.37098999999999999
asS'ap'
p11
(lp12
F0.79542000000000002
aF0.80584
aF0.78854999999999997
aF0.45023999999999997
asS'single'
p13
(lp14
F0.39106000000000002
aF0.42959999999999998
aF0.42024
aF0.43312
aF0.42936999999999997
aF0.54378000000000004
aF0.37098999999999999
aF0.45996999999999999
aF0.32227
aF0.79186999999999996
aF0.83126999999999995
aF0.62597000000000003
aF0.79542000000000002
aF0.80584
aF0.78854999999999997
aF0.45023999999999997
aF0.87068999999999996
aF0.42601
aF0.92976000000000003
aF0.78676000000000001
aF0.91722000000000004
aF0.93057000000000001
aF0.90898000000000001
aF0.91059999999999997
aF0.90734999999999999
aF0.91008
aF0.93759000000000003
aF0.93174000000000001
aF0.93428999999999995
aF0.93544000000000005
aF0.93962999999999997
aF0.88802999999999999
aF0.72387999999999997
aF0.80964000000000003
aF0.79176999999999997
aF0.73311999999999999
aF0.80267999999999995
aF0.81149000000000004
aF0.62033000000000005
aF0.76992000000000005
aF0.68725999999999998
aF0.75007000000000001
aF0.73355000000000004
aF0.71331
aF0.73089999999999999
aF0.79705999999999999
aF0.80044000000000004
aF0.79151000000000005
aF0.78441000000000005
aF0.79386999999999996
aF0.7923
aF0.79474999999999996
asS'yes'
p15
(lp16
F0.91722000000000004
aF0.93057000000000001
aF0.90898000000000001
aF0.91059999999999997
aF0.90734999999999999
aF0.91008
aF0.93759000000000003
aF0.93174000000000001
aF0.93428999999999995
aF0.93544000000000005
aF0.93962999999999997
aF0.88802999999999999
aF0.72387999999999997
aF0.80964000000000003
asS'total'
p17
(lp18
F0.39106000000000002
aF0.42959999999999998
aF0.42024
aF0.43312
aF0.42936999999999997
aF0.54378000000000004
aF0.37098999999999999
aF0.45996999999999999
aF0.32227
aF0.79186999999999996
aF0.83126999999999995
aF0.62597000000000003
aF0.79542000000000002
aF0.80584
aF0.78854999999999997
aF0.45023999999999997
aF0.87068999999999996
aF0.42601
aF0.92976000000000003
aF0.78676000000000001
aF0.91722000000000004
aF0.93057000000000001
aF0.90898000000000001
aF0.91059999999999997
aF0.90734999999999999
aF0.91008
aF0.93759000000000003
aF0.93174000000000001
aF0.93428999999999995
aF0.93544000000000005
aF0.93962999999999997
aF0.88802999999999999
aF0.72387999999999997
aF0.80964000000000003
aF0.79176999999999997
aF0.73311999999999999
aF0.80267999999999995
aF0.81149000000000004
aF0.62033000000000005
aF0.76992000000000005
aF0.68725999999999998
aF0.75007000000000001
aF0.73355000000000004
aF0.71331
aF0.73089999999999999
aF0.79705999999999999
aF0.80044000000000004
aF0.79151000000000005
aF0.78441000000000005
aF0.79386999999999996
aF0.7923
aF0.79474999999999996
aF0.03116
asS'dp'
p19
(lp20
F0.45996999999999999
aF0.32227
aF0.79186999999999996
aF0.83126999999999995
aF0.62597000000000003
asS'multi'
p21
(lp22
F0.03116
asS'no'
p23
(lp24
F0.79176999999999997
aF0.73311999999999999
aF0.80267999999999995
aF0.81149000000000004
aF0.62033000000000005
aF0.76992000000000005
aF0.68725999999999998
aF0.75007000000000001
aF0.73355000000000004
aF0.71331
aF0.73089999999999999
aF0.79705999999999999
aF0.80044000000000004
aF0.79151000000000005
aF0.78441000000000005
aF0.79386999999999996
aF0.7923
aF0.79474999999999996
asS'tt'
p25
(lp26
F0.87068999999999996
aF0.42601
aF0.92976000000000003
aF0.78676000000000001
as.