(dp0
S'multi3'
p1
(lp2
sS'multi2'
p3
(lp4
F0.60031000000000001
aF0.20718
asS'multi5'
p5
(lp6
sS'multi4'
p7
(lp8
sS'bn'
p9
(lp10
sS'ap'
p11
(lp12
F0.86582999999999999
aF0.1139
aF0.50183
asS'single'
p13
(lp14
F0.44903999999999999
aF0.65190000000000003
aF0.45282
aF0.86582999999999999
aF0.1139
aF0.50183
aF0.77420999999999995
aF0.63246000000000002
aF0.75839999999999996
aF0.84679000000000004
aF0.78020999999999996
aF0.92401
aF0.85760000000000003
aF0.84599999999999997
aF0.59701000000000004
aF0.93759000000000003
aF0.84777000000000002
aF0.76026000000000005
aF0.91878000000000004
aF0.92373000000000005
aF0.91310000000000002
aF0.79544999999999999
aF0.088239999999999999
aF0.75483
aF0.64383000000000001
aF0.67390000000000005
aF0.70842000000000005
aF0.72072000000000003
aF0.73297999999999996
aF0.74543999999999999
aF0.73477000000000003
aF0.74114000000000002
asS'yes'
p15
(lp16
F0.92401
aF0.85760000000000003
aF0.84599999999999997
aF0.59701000000000004
aF0.93759000000000003
aF0.84777000000000002
aF0.76026000000000005
aF0.91878000000000004
aF0.92373000000000005
aF0.91310000000000002
asS'total'
p17
(lp18
F0.44903999999999999
aF0.65190000000000003
aF0.45282
aF0.86582999999999999
aF0.1139
aF0.50183
aF0.77420999999999995
aF0.63246000000000002
aF0.75839999999999996
aF0.84679000000000004
aF0.78020999999999996
aF0.92401
aF0.85760000000000003
aF0.84599999999999997
aF0.59701000000000004
aF0.93759000000000003
aF0.84777000000000002
aF0.76026000000000005
aF0.91878000000000004
aF0.92373000000000005
aF0.91310000000000002
aF0.79544999999999999
aF0.088239999999999999
aF0.75483
aF0.64383000000000001
aF0.67390000000000005
aF0.70842000000000005
aF0.72072000000000003
aF0.73297999999999996
aF0.74543999999999999
aF0.73477000000000003
aF0.74114000000000002
aF0.60031000000000001
aF0.20718
asS'dp'
p19
(lp20
F0.44903999999999999
aF0.65190000000000003
aF0.45282
asS'multi'
p21
(lp22
F0.60031000000000001
aF0.20718
asS'no'
p23
(lp24
F0.79544999999999999
aF0.088239999999999999
aF0.75483
aF0.64383000000000001
aF0.67390000000000005
aF0.70842000000000005
aF0.72072000000000003
aF0.73297999999999996
aF0.74543999999999999
aF0.73477000000000003
aF0.74114000000000002
asS'tt'
p25
(lp26
F0.77420999999999995
aF0.63246000000000002
aF0.75839999999999996
aF0.84679000000000004
aF0.78020999999999996
as.