(dp0
S'multi3'
p1
(dp2
F0.029999999999999999
F1.0
ssS'multi2'
p3
(dp4
F0.080000000000000002
F0.055555555555555552
sF0.57999999999999996
F0.055555555555555552
sF0.28000000000000003
F0.1111111111111111
sF0.20000000000000001
F0.055555555555555552
sF0.029999999999999999
F0.055555555555555552
sF0.13
F0.055555555555555552
sF0.11
F0.055555555555555552
sF0.12
F0.055555555555555552
sF0.82999999999999996
F0.055555555555555552
sF0.19
F0.055555555555555552
sF0.16
F0.055555555555555552
sF0.20999999999999999
F0.055555555555555552
sF0.070000000000000007
F0.1111111111111111
sF0.23000000000000001
F0.055555555555555552
sF0.56000000000000005
F0.055555555555555552
sF0.32000000000000001
F0.055555555555555552
ssS'multi'
p5
(dp6
F0.080000000000000002
F0.052631578947368418
sF0.57999999999999996
F0.052631578947368418
sF0.28000000000000003
F0.10526315789473684
sF0.20000000000000001
F0.052631578947368418
sF0.029999999999999999
F0.10526315789473684
sF0.13
F0.052631578947368418
sF0.11
F0.052631578947368418
sF0.12
F0.052631578947368418
sF0.82999999999999996
F0.052631578947368418
sF0.19
F0.052631578947368418
sF0.16
F0.052631578947368418
sF0.20999999999999999
F0.052631578947368418
sF0.070000000000000007
F0.10526315789473684
sF0.23000000000000001
F0.052631578947368418
sF0.56000000000000005
F0.052631578947368418
sF0.32000000000000001
F0.052631578947368418
ssS'multi5'
p7
(dp8
sS'multi4'
p9
(dp10
sS'bn'
p11
(dp12
F0.60999999999999999
F0.15384615384615385
sF0.57999999999999996
F0.076923076923076927
sF0.52000000000000002
F0.15384615384615385
sF0.44
F0.076923076923076927
sF0.54000000000000004
F0.076923076923076927
sF0.45000000000000001
F0.23076923076923078
sF0.58999999999999997
F0.076923076923076927
sF0.63
F0.076923076923076927
sF0.53000000000000003
F0.076923076923076927
ssS'no'
p13
(dp14
F0.5
F0.0086956521739130436
sF0.68999999999999995
F0.026086956521739129
sF0.63
F0.034782608695652174
sF0.56999999999999995
F0.0086956521739130436
sF0.69999999999999996
F0.0086956521739130436
sF0.64000000000000001
F0.017391304347826087
sF0.77000000000000002
F0.052173913043478258
sF0.70999999999999996
F0.0086956521739130436
sF0.65000000000000002
F0.017391304347826087
sF0.41999999999999998
F0.0086956521739130436
sF0.53000000000000003
F0.0086956521739130436
sF0.71999999999999997
F0.017391304347826087
sF0.66000000000000003
F0.034782608695652174
sF0.59999999999999998
F0.0086956521739130436
sF0.79000000000000004
F0.20000000000000001
sF0.72999999999999998
F0.0086956521739130436
sF0.67000000000000004
F0.043478260869565216
sF0.81000000000000005
F0.017391304347826087
sF0.42999999999999999
F0.0086956521739130436
sF0.80000000000000004
F0.1391304347826087
sF0.73999999999999999
F0.052173913043478258
sF0.78000000000000003
F0.24347826086956523
sF0.68000000000000005
F0.0086956521739130436
sF0.52000000000000002
F0.0086956521739130436
sF0.56000000000000005
F0.0086956521739130436
ssS'ap'
p15
(dp16
F0.75
F0.012722646310432569
sF0.25
F0.0050890585241730284
sF0.37
F0.0025445292620865142
sF0.68999999999999995
F0.0050890585241730284
sF0.63
F0.0025445292620865142
sF0.60999999999999999
F0.0050890585241730284
sF0.71999999999999997
F0.020356234096692113
sF0.81999999999999995
F0.030534351145038167
sF0.17999999999999999
F0.0025445292620865142
sF0.76000000000000001
F0.010178117048346057
sF0.47999999999999998
F0.0025445292620865142
sF0.48999999999999999
F0.0025445292620865142
sF0.34999999999999998
F0.0025445292620865142
sF0.69999999999999996
F0.0050890585241730284
sF0.41999999999999998
F0.0025445292620865142
sF0.64000000000000001
F0.0076335877862595417
sF0.46999999999999997
F0.0025445292620865142
sF0.68000000000000005
F0.0050890585241730284
sF0.82999999999999996
F0.11450381679389313
sF0.12
F0.0025445292620865142
sF0.77000000000000002
F0.017811704834605598
sF0.46000000000000002
F0.0025445292620865142
sF0.70999999999999996
F0.015267175572519083
sF0.65000000000000002
F0.017811704834605598
sF0.16
F0.0025445292620865142
sF0.58999999999999997
F0.0025445292620865142
sF0.78000000000000003
F0.020356234096692113
sF0.31
F0.0025445292620865142
sF0.35999999999999999
F0.0050890585241730284
sF0.54000000000000004
F0.0050890585241730284
sF0.66000000000000003
F0.0076335877862595417
sF0.59999999999999998
F0.0050890585241730284
sF0.84999999999999998
F0.20356234096692111
sF0.10000000000000001
F0.0025445292620865142
sF0.83999999999999997
F0.20865139949109415
sF0.28999999999999998
F0.0025445292620865142
sF0.72999999999999998
F0.025445292620865138
sF0.56999999999999995
F0.015267175572519083
sF0.67000000000000004
F0.0050890585241730284
sF0.56000000000000005
F0.0025445292620865142
sF0.85999999999999999
F0.050890585241730277
sF0.32000000000000001
F0.0025445292620865142
sF0.55000000000000004
F0.0076335877862595417
sF0.80000000000000004
F0.020356234096692113
sF0.79000000000000004
F0.033078880407124679
sF0.45000000000000001
F0.0025445292620865142
sF0.73999999999999999
F0.025445292620865138
sF0.38
F0.0050890585241730284
sF0.53000000000000003
F0.0025445292620865142
sF0.34000000000000002
F0.0050890585241730284
sF0.059999999999999998
F0.0025445292620865142
sF0.87
F0.0025445292620865142
sF0.20999999999999999
F0.0025445292620865142
sF0.62
F0.0050890585241730284
sF0.19
F0.0025445292620865142
sF0.81000000000000005
F0.012722646310432569
sF0.39000000000000001
F0.0025445292620865142
ssS'single'
p17
(dp18
F0.25
F0.0011792452830188679
sF0.75
F0.0023584905660377358
sF0.5
F0.00039308176100628933
sF0.89000000000000001
F0.011399371069182389
sF0.51000000000000001
F0.00039308176100628933
sF0.47999999999999998
F0.0035377358490566039
sF0.12
F0.0015723270440251573
sF0.26000000000000001
F0.0011792452830188679
sF0.67000000000000004
F0.002751572327044025
sF0.68999999999999995
F0.0031446540880503146
sF0.78000000000000003
F0.018081761006289308
sF0.29999999999999999
F0.0015723270440251573
sF0.58999999999999997
F0.0078616352201257862
sF0.46000000000000002
F0.0078616352201257862
sF0.40000000000000002
F0.00039308176100628933
sF0.10000000000000001
F0.00039308176100628933
sF0.55000000000000004
F0.0031446540880503146
sF0.90000000000000002
F0.036949685534591194
sF0.39000000000000001
F0.0019654088050314465
sF0.70999999999999996
F0.0047169811320754715
sF0.19
F0.00039308176100628933
sF0.22
F0.0015723270440251573
sF0.85999999999999999
F0.022405660377358489
sF0.71999999999999997
F0.0039308176100628931
sF0.56999999999999995
F0.0035377358490566039
sF0.83999999999999997
F0.042845911949685532
sF0.68000000000000005
F0.0015723270440251573
sF0.57999999999999996
F0.0023584905660377358
sF0.81999999999999995
F0.013364779874213837
sF0.16
F0.00039308176100628933
sF0.41999999999999998
F0.0031446540880503146
sF0.76000000000000001
F0.0031446540880503146
sF0.14000000000000001
F0.0011792452830188679
sF0.84999999999999998
F0.041273584905660375
sF0.14999999999999999
F0.00039308176100628933
sF0.050000000000000003
F0.00078616352201257866
sF0.56000000000000005
F0.0019654088050314465
sF0.42999999999999999
F0.0062893081761006293
sF0.28000000000000003
F0.0011792452830188679
sF0.38
F0.00078616352201257866
sF0.77000000000000002
F0.0070754716981132077
sF0.35999999999999999
F0.0023584905660377358
sF0.87
F0.036949685534591194
sF0.44
F0.00589622641509434
sF0.48999999999999999
F0.0015723270440251573
sF0.17999999999999999
F0.00039308176100628933
sF0.27000000000000002
F0.00039308176100628933
sF0.92000000000000004
F0.059355345911949686
sF0.13
F0.0019654088050314465
sF0.64000000000000001
F0.00589622641509434
sF0.93999999999999995
F0.0070754716981132077
sF0.45000000000000001
F0.0074685534591194969
sF0.80000000000000004
F0.01179245283018868
sF0.65000000000000002
F0.0074685534591194969
sF0.33000000000000002
F0.00078616352201257866
sF0.91000000000000003
F0.04716981132075472
sF0.40999999999999998
F0.00078616352201257866
sF0.23000000000000001
F0.0011792452830188679
sF0.52000000000000002
F0.0015723270440251573
sF0.040000000000000001
F0.00078616352201257866
sF0.63
F0.016509433962264151
sF0.53000000000000003
F0.0023584905660377358
sF0.34000000000000002
F0.0015723270440251573
sF0.62
F0.020047169811320754
sF0.17000000000000001
F0.0019654088050314465
sF0.20999999999999999
F0.00078616352201257866
sF0.37
F0.00078616352201257866
sF0.59999999999999998
F0.0070754716981132077
sF0.46999999999999997
F0.0035377358490566039
sF0.28999999999999998
F0.0023584905660377358
sF0.34999999999999998
F0.0019654088050314465
sF0.69999999999999996
F0.0011792452830188679
sF0.080000000000000002
F0.00039308176100628933
sF0.66000000000000003
F0.002751572327044025
sF0.23999999999999999
F0.0011792452830188679
sF0.81000000000000005
F0.0062893081761006293
sF0.93000000000000005
F0.35141509433962265
sF0.31
F0.0011792452830188679
sF0.089999999999999997
F0.00039308176100628933
sF0.54000000000000004
F0.0019654088050314465
sF0.82999999999999996
F0.023977987421383649
sF0.60999999999999999
F0.017295597484276729
sF0.72999999999999998
F0.00589622641509434
sF0.88
F0.025550314465408806
sF0.79000000000000004
F0.019261006289308175
sF0.32000000000000001
F0.00039308176100628933
sF0.73999999999999999
F0.0070754716981132077
sF0.059999999999999998
F0.0015723270440251573
sF0.20000000000000001
F0.0019654088050314465
ssS'yes'
p19
(dp20
F0.85999999999999999
F0.013621794871794872
sF0.82999999999999996
F0.005608974358974359
sF0.93999999999999995
F0.01282051282051282
sF0.80000000000000004
F0.00080128205128205125
sF0.91000000000000003
F0.067307692307692304
sF0.88
F0.030448717948717948
sF0.84999999999999998
F0.0072115384615384619
sF0.70999999999999996
F0.0016025641025641025
sF0.81999999999999995
F0.01282051282051282
sF0.93000000000000005
F0.61298076923076927
sF0.79000000000000004
F0.005608974358974359
sF0.90000000000000002
F0.053685897435897433
sF0.87
F0.060096153846153848
sF0.83999999999999997
F0.008814102564102564
sF0.81000000000000005
F0.003205128205128205
sF0.92000000000000004
F0.084935897435897439
sF0.78000000000000003
F0.0016025641025641025
sF0.89000000000000001
F0.016826923076923076
ssS'total'
p21
(dp22
F0.25
F0.0011705033164260631
sF0.75
F0.0023410066328521262
sF0.5
F0.00039016777214202108
sF0.89000000000000001
F0.01131486539211861
sF0.51000000000000001
F0.00039016777214202108
sF0.47999999999999998
F0.0035115099492781898
sF0.12
F0.0019508388607101053
sF0.26000000000000001
F0.0011705033164260631
sF0.67000000000000004
F0.0027311744049941474
sF0.68999999999999995
F0.0031213421771361686
sF0.78000000000000003
F0.017947717518532968
sF0.29999999999999999
F0.0015606710885680843
sF0.58999999999999997
F0.0078033554428404211
sF0.46000000000000002
F0.0078033554428404211
sF0.40000000000000002
F0.00039016777214202108
sF0.10000000000000001
F0.00039016777214202108
sF0.55000000000000004
F0.0031213421771361686
sF0.90000000000000002
F0.036675770581349978
sF0.39000000000000001
F0.0019508388607101053
sF0.70999999999999996
F0.0046820132657042525
sF0.19
F0.00078033554428404216
sF0.22
F0.0015606710885680843
sF0.85999999999999999
F0.0222395630120952
sF0.71999999999999997
F0.0039016777214202106
sF0.56999999999999995
F0.0035115099492781898
sF0.83999999999999997
F0.042528287163480297
sF0.68000000000000005
F0.0015606710885680843
sF0.57999999999999996
F0.0027311744049941474
sF0.070000000000000007
F0.00078033554428404216
sF0.81999999999999995
F0.013265704252828716
sF0.16
F0.00078033554428404216
sF0.41999999999999998
F0.0031213421771361686
sF0.76000000000000001
F0.0031213421771361686
sF0.14000000000000001
F0.0011705033164260631
sF0.84999999999999998
F0.040967616074912214
sF0.14999999999999999
F0.00039016777214202108
sF0.050000000000000003
F0.00078033554428404216
sF0.56000000000000005
F0.0023410066328521262
sF0.42999999999999999
F0.0062426843542723372
sF0.28000000000000003
F0.0019508388607101053
sF0.38
F0.00078033554428404216
sF0.77000000000000002
F0.0070230198985563796
sF0.35999999999999999
F0.0023410066328521262
sF0.87
F0.036675770581349978
sF0.44
F0.0058525165821303156
sF0.48999999999999999
F0.0015606710885680843
sF0.11
F0.00039016777214202108
sF0.17999999999999999
F0.00039016777214202108
sF0.27000000000000002
F0.00039016777214202108
sF0.92000000000000004
F0.058915333593445182
sF0.13
F0.0023410066328521262
sF0.64000000000000001
F0.0058525165821303156
sF0.93999999999999995
F0.0070230198985563796
sF0.45000000000000001
F0.0074131876706984004
sF0.80000000000000004
F0.011705033164260631
sF0.65000000000000002
F0.0074131876706984004
sF0.33000000000000002
F0.00078033554428404216
sF0.91000000000000003
F0.046820132657042525
sF0.40999999999999998
F0.00078033554428404216
sF0.23000000000000001
F0.0015606710885680843
sF0.52000000000000002
F0.0015606710885680843
sF0.040000000000000001
F0.00078033554428404216
sF0.63
F0.016387046429964885
sF0.53000000000000003
F0.0023410066328521262
sF0.34000000000000002
F0.0015606710885680843
sF0.62
F0.019898556379243076
sF0.17000000000000001
F0.0019508388607101053
sF0.20999999999999999
F0.0011705033164260631
sF0.37
F0.00078033554428404216
sF0.59999999999999998
F0.0070230198985563796
sF0.46999999999999997
F0.0035115099492781898
sF0.28999999999999998
F0.0023410066328521262
sF0.34999999999999998
F0.0019508388607101053
sF0.69999999999999996
F0.0011705033164260631
sF0.080000000000000002
F0.00078033554428404216
sF0.66000000000000003
F0.0027311744049941474
sF0.23999999999999999
F0.0011705033164260631
sF0.81000000000000005
F0.0062426843542723372
sF0.93000000000000005
F0.34880998829496684
sF0.31
F0.0011705033164260631
sF0.089999999999999997
F0.00039016777214202108
sF0.54000000000000004
F0.0019508388607101053
sF0.029999999999999999
F0.00078033554428404216
sF0.82999999999999996
F0.024190401872805307
sF0.60999999999999999
F0.017167381974248927
sF0.72999999999999998
F0.0058525165821303156
sF0.88
F0.02536090518923137
sF0.79000000000000004
F0.019118220834959031
sF0.32000000000000001
F0.00078033554428404216
sF0.73999999999999999
F0.0070230198985563796
sF0.059999999999999998
F0.0015606710885680843
sF0.20000000000000001
F0.0023410066328521262
ssS'tt'
p23
(dp24
F0.75
F0.0024449877750611247
sF0.93999999999999995
F0.0048899755501222494
sF0.44
F0.0024449877750611247
sF0.60999999999999999
F0.0024449877750611247
sF0.81999999999999995
F0.014669926650366748
sF0.76000000000000001
F0.0073349633251833741
sF0.70999999999999996
F0.0024449877750611247
sF0.72999999999999998
F0.0073349633251833741
sF0.58999999999999997
F0.0048899755501222494
sF0.28000000000000003
F0.0024449877750611247
sF0.89000000000000001
F0.019559902200488997
sF0.68999999999999995
F0.0073349633251833741
sF0.68000000000000005
F0.0024449877750611247
sF0.82999999999999996
F0.019559902200488997
sF0.77000000000000002
F0.012224938875305624
sF0.23000000000000001
F0.0024449877750611247
sF0.22
F0.0024449877750611247
sF0.47999999999999998
F0.0024449877750611247
sF0.90000000000000002
F0.066014669926650366
sF0.64000000000000001
F0.0024449877750611247
sF0.83999999999999997
F0.026894865525672371
sF0.78000000000000003
F0.014669926650366748
sF0.62
F0.0024449877750611247
sF0.35999999999999999
F0.0024449877750611247
sF0.91000000000000003
F0.088019559902200492
sF0.84999999999999998
F0.031784841075794622
sF0.79000000000000004
F0.014669926650366748
sF0.28999999999999998
F0.0024449877750611247
sF0.48999999999999999
F0.0024449877750611247
sF0.63
F0.0024449877750611247
sF0.92000000000000004
F0.1100244498777506
sF0.56000000000000005
F0.0024449877750611247
sF0.85999999999999999
F0.044009779951100246
sF0.55000000000000004
F0.0073349633251833741
sF0.80000000000000004
F0.0097799511002444987
sF0.73999999999999999
F0.0048899755501222494
sF0.88
F0.066014669926650366
sF0.53000000000000003
F0.0024449877750611247
sF0.93000000000000005
F0.3154034229828851
sF0.31
F0.0024449877750611247
sF0.87
F0.044009779951100246
sF0.81000000000000005
F0.012224938875305624
sF0.39000000000000001
F0.0024449877750611247
ssS'dp'
p25
(dp26
F0.25
F0.0027322404371584699
sF0.14999999999999999
F0.0027322404371584699
sF0.46999999999999997
F0.02185792349726776
sF0.63
F0.095628415300546443
sF0.72999999999999998
F0.0027322404371584699
sF0.57999999999999996
F0.013661202185792349
sF0.78000000000000003
F0.0054644808743169399
sF0.089999999999999997
F0.0027322404371584699
sF0.12
F0.0081967213114754103
sF0.26000000000000001
F0.0081967213114754103
sF0.51000000000000001
F0.0027322404371584699
sF0.70999999999999996
F0.0054644808743169399
sF0.48999999999999999
F0.0054644808743169399
sF0.34999999999999998
F0.01092896174863388
sF0.83999999999999997
F0.013661202185792349
sF0.64000000000000001
F0.024590163934426229
sF0.34000000000000002
F0.0054644808743169399
sF0.28999999999999998
F0.01092896174863388
sF0.47999999999999998
F0.01912568306010929
sF0.13
F0.013661202185792349
sF0.23000000000000001
F0.0054644808743169399
sF0.33000000000000002
F0.0054644808743169399
sF0.56999999999999995
F0.0054644808743169399
sF0.22
F0.0081967213114754103
sF0.23999999999999999
F0.0081967213114754103
sF0.84999999999999998
F0.0081967213114754103
sF0.45000000000000001
F0.040983606557377046
sF0.28000000000000003
F0.0054644808743169399
sF0.56000000000000005
F0.0054644808743169399
sF0.58999999999999997
F0.043715846994535519
sF0.53000000000000003
F0.0054644808743169399
sF0.31
F0.0027322404371584699
sF0.35999999999999999
F0.0081967213114754103
sF0.27000000000000002
F0.0027322404371584699
sF0.42999999999999999
F0.040983606557377046
sF0.40000000000000002
F0.0027322404371584699
sF0.59999999999999998
F0.040983606557377046
sF0.29999999999999999
F0.01092896174863388
sF0.050000000000000003
F0.0054644808743169399
sF0.41999999999999998
F0.016393442622950821
sF0.82999999999999996
F0.0027322404371584699
sF0.85999999999999999
F0.0054644808743169399
sF0.52000000000000002
F0.0027322404371584699
sF0.40999999999999998
F0.0054644808743169399
sF0.46000000000000002
F0.051912568306010931
sF0.14000000000000001
F0.0081967213114754103
sF0.60999999999999999
F0.10655737704918032
sF0.040000000000000001
F0.0054644808743169399
sF0.55000000000000004
F0.0054644808743169399
sF0.20000000000000001
F0.013661202185792349
sF0.54000000000000004
F0.0054644808743169399
sF0.80000000000000004
F0.0027322404371584699
sF0.65000000000000002
F0.027322404371584699
sF0.37
F0.0027322404371584699
sF0.39000000000000001
F0.0081967213114754103
sF0.17000000000000001
F0.013661202185792349
sF0.059999999999999998
F0.0081967213114754103
sF0.080000000000000002
F0.0027322404371584699
sF0.20999999999999999
F0.0027322404371584699
sF0.62
F0.13114754098360656
sF0.76000000000000001
F0.0027322404371584699
sF0.44
F0.035519125683060107
ss.