(dp0
S'multi3'
p1
(lp2
F0.039550000000000002
asS'multi2'
p3
(lp4
F0.58355999999999997
aF0.12792999999999999
aF0.070290000000000005
aF0.56437999999999999
aF0.20768
aF0.070290000000000005
aF0.23721999999999999
aF0.32064999999999999
aF0.19273000000000001
aF0.16314999999999999
aF0.28272000000000003
aF0.11644
aF0.036670000000000001
aF0.082170000000000007
aF0.13616
aF0.83106999999999998
aF0.28103
aF0.21718000000000001
asS'multi5'
p5
(lp6
sS'multi4'
p7
(lp8
sS'bn'
p9
(lp10
F0.61150000000000004
aF0.45661000000000002
aF0.59955999999999998
aF0.53069
aF0.52883000000000002
aF0.61506000000000005
aF0.52883000000000002
aF0.45661000000000002
aF0.54064000000000001
aF0.58809999999999996
aF0.45661000000000002
aF0.441
aF0.63744999999999996
asS'ap'
p11
(lp12
F0.77902000000000005
aF0.82901000000000002
aF0.83426
aF0.83657999999999999
aF0.84702999999999995
aF0.85699000000000003
aF0.85541999999999996
aF0.60558000000000001
aF0.86658999999999997
aF0.85304000000000002
aF0.83440000000000003
aF0.36442999999999998
aF0.84072000000000002
aF0.84923999999999999
aF0.86395999999999995
aF0.85304000000000002
aF0.84304999999999997
aF0.84923999999999999
aF0.59519999999999995
aF0.85241
aF0.85304000000000002
aF0.84697999999999996
aF0.84923999999999999
aF0.84928000000000003
aF0.85706000000000004
aF0.55218
aF0.84263999999999994
aF0.85304000000000002
aF0.84614
aF0.75097999999999998
aF0.73045000000000004
aF0.67205999999999999
aF0.77117999999999998
aF0.81247000000000003
aF0.80225999999999997
aF0.84923999999999999
aF0.70233000000000001
aF0.63734999999999997
aF0.64137999999999995
aF0.74114000000000002
aF0.34566000000000002
aF0.74268999999999996
aF0.84436999999999995
aF0.85706000000000004
aF0.84923999999999999
aF0.74124000000000001
aF0.66081000000000001
aF0.84072000000000002
aF0.80225999999999997
aF0.83984999999999999
aF0.83426
aF0.85699000000000003
aF0.78922999999999999
aF0.72660999999999998
aF0.79664999999999997
aF0.84094000000000002
aF0.83528999999999998
aF0.78178999999999998
aF0.36431000000000002
aF0.71745999999999999
aF0.65222999999999998
aF0.74790999999999996
aF0.73351
aF0.62219000000000002
aF0.71897999999999995
aF0.34712999999999999
aF0.25725999999999999
aF0.79042000000000001
aF0.62219000000000002
aF0.82713999999999999
aF0.71752000000000005
aF0.85304000000000002
aF0.61512
aF0.76383999999999996
aF0.85304000000000002
aF0.31003999999999998
aF0.69832000000000005
aF0.83528999999999998
aF0.85326999999999997
aF0.84923999999999999
aF0.57328000000000001
aF0.85858999999999996
aF0.83335999999999999
aF0.83528999999999998
aF0.79042000000000001
aF0.84923999999999999
aF0.66207000000000005
aF0.79664999999999997
aF0.82069999999999999
aF0.83528999999999998
aF0.71248999999999996
aF0.84923999999999999
aF0.42147000000000001
aF0.84928000000000003
aF0.85892999999999997
aF0.86658999999999997
aF0.80384
aF0.85699000000000003
aF0.86860000000000004
aF0.85326999999999997
aF0.16295000000000001
aF0.55676000000000003
aF0.84923999999999999
aF0.84304999999999997
aF0.85326999999999997
aF0.83482999999999996
aF0.83836999999999995
aF0.84077000000000002
aF0.72411999999999999
aF0.71440999999999999
aF0.70108999999999999
aF0.46945999999999999
aF0.48014000000000001
aF0.75387999999999999
aF0.85892999999999997
aF0.83769000000000005
aF0.83836999999999995
aF0.84923999999999999
aF0.79042000000000001
aF0.84923999999999999
aF0.84304999999999997
aF0.75719999999999998
aF0.65905999999999998
aF0.85706000000000004
aF0.85304000000000002
aF0.75905
aF0.84094000000000002
aF0.86477000000000004
aF0.84923999999999999
aF0.79298000000000002
aF0.83791000000000004
aF0.54871999999999999
aF0.73885999999999996
aF0.84923999999999999
aF0.61316000000000004
aF0.57006000000000001
aF0.85304000000000002
aF0.84086000000000005
aF0.85706000000000004
aF0.83964000000000005
aF0.84923999999999999
aF0.84436999999999995
aF0.85241
aF0.85582999999999998
aF0.86600999999999995
aF0.87392000000000003
aF0.79664999999999997
aF0.85858999999999996
aF0.85892999999999997
aF0.49414999999999998
aF0.84304999999999997
aF0.83836999999999995
aF0.81093999999999999
aF0.83528999999999998
aF0.86878
aF0.82069999999999999
aF0.85304000000000002
aF0.84928000000000003
aF0.84436999999999995
aF0.65739000000000003
aF0.85706000000000004
aF0.84923999999999999
aF0.82599999999999996
aF0.85304000000000002
aF0.67793999999999999
aF0.83216999999999997
aF0.54618
aF0.68811999999999995
aF0.78541000000000005
aF0.78541000000000005
aF0.72548000000000001
aF0.64892000000000005
aF0.84923999999999999
aF0.81115999999999999
aF0.72699000000000003
aF0.83216999999999997
aF0.85706000000000004
aF0.77117999999999998
aF0.78541000000000005
aF0.85304000000000002
aF0.83348
aF0.64137999999999995
aF0.81669999999999998
aF0.86917
aF0.75756999999999997
aF0.83426
aF0.84436999999999995
aF0.85911999999999999
aF0.76717999999999997
aF0.84077000000000002
aF0.86241999999999996
aF0.65808
aF0.86785000000000001
aF0.84928000000000003
aF0.85706000000000004
aF0.78541000000000005
aF0.84094000000000002
aF0.85706000000000004
aF0.86099999999999999
aF0.74836999999999998
aF0.84923999999999999
aF0.68391000000000002
aF0.73497999999999997
aF0.60646999999999995
aF0.12823000000000001
aF0.062010000000000003
aF0.57501000000000002
aF0.72219
aF0.65007999999999999
aF0.74268999999999996
aF0.74555000000000005
aF0.82759000000000005
aF0.79042000000000001
aF0.82069999999999999
aF0.85304000000000002
aF0.73592999999999997
aF0.85521999999999998
aF0.84086000000000005
aF0.80550999999999995
aF0.80225999999999997
aF0.85304000000000002
aF0.85304000000000002
aF0.85304000000000002
aF0.83528999999999998
aF0.71706000000000003
aF0.83426
aF0.83984999999999999
aF0.83216999999999997
aF0.32663999999999999
aF0.83431
aF0.72219
aF0.86860000000000004
aF0.86307999999999996
aF0.85304000000000002
aF0.84072000000000002
aF0.57572999999999996
aF0.84723000000000004
aF0.85706000000000004
aF0.86658999999999997
aF0.84494999999999998
aF0.84923999999999999
aF0.57328000000000001
aF0.57211999999999996
aF0.84923999999999999
aF0.83474000000000004
aF0.83699000000000001
aF0.77817000000000003
aF0.56454000000000004
aF0.47447
aF0.85521999999999998
aF0.85019
aF0.82901000000000002
aF0.85326999999999997
aF0.83689000000000002
aF0.84923999999999999
aF0.84436999999999995
aF0.85304000000000002
aF0.84923999999999999
aF0.85326999999999997
aF0.83964000000000005
aF0.86533000000000004
aF0.80384
aF0.21793999999999999
aF0.84436999999999995
aF0.85326999999999997
aF0.72611999999999999
aF0.35396
aF0.66193000000000002
aF0.25366
aF0.85526000000000002
aF0.84923999999999999
aF0.85706000000000004
aF0.85706000000000004
aF0.79664999999999997
aF0.85441
aF0.74836999999999998
aF0.73038000000000003
aF0.84687000000000001
aF0.84923999999999999
aF0.84086000000000005
aF0.19642999999999999
aF0.65920000000000001
aF0.55900000000000005
aF0.80969000000000002
aF0.84072000000000002
aF0.84723000000000004
aF0.38246000000000002
aF0.77117999999999998
aF0.85706000000000004
aF0.74790999999999996
aF0.83533999999999997
aF0.84923999999999999
aF0.82713999999999999
aF0.85526000000000002
aF0.73934
aF0.86092999999999997
aF0.85699000000000003
aF0.85304000000000002
aF0.84723000000000004
aF0.83335999999999999
aF0.85706000000000004
aF0.85326999999999997
aF0.83782000000000001
aF0.84614
aF0.84304999999999997
aF0.84263999999999994
aF0.84326999999999996
aF0.79576000000000002
aF0.73241999999999996
aF0.84177000000000002
aF0.86092999999999997
aF0.38263999999999998
aF0.37272
aF0.86092999999999997
aF0.85304000000000002
aF0.82069999999999999
aF0.45789000000000002
aF0.83431
aF0.69288000000000005
aF0.74124000000000001
aF0.85706000000000004
aF0.83836999999999995
aF0.84304999999999997
aF0.83426
aF0.18876000000000001
aF0.84436999999999995
aF0.82506999999999997
aF0.83836999999999995
aF0.85521999999999998
aF0.73934
aF0.76043000000000005
aF0.84923999999999999
aF0.84177000000000002
aF0.73960000000000004
aF0.83657999999999999
aF0.84923999999999999
aF0.83528999999999998
aF0.85260999999999998
aF0.85326999999999997
aF0.65529999999999999
aF0.85304000000000002
aF0.84077000000000002
aF0.86082000000000003
aF0.79174999999999995
aF0.77512000000000003
aF0.53568000000000005
aF0.79298000000000002
aF0.85521999999999998
aF0.81427000000000005
aF0.85892999999999997
aF0.85304000000000002
aF0.85019
aF0.85304000000000002
aF0.84304999999999997
aF0.83836999999999995
aF0.80301999999999996
aF0.84304999999999997
aF0.84436999999999995
aF0.79330999999999996
aF0.85526000000000002
aF0.82506999999999997
aF0.85055000000000003
aF0.85706000000000004
aF0.85541999999999996
aF0.85699000000000003
aF0.84923999999999999
aF0.84094000000000002
aF0.78922999999999999
aF0.78541000000000005
aF0.83216999999999997
aF0.72994000000000003
aF0.84326999999999996
aF0.85304000000000002
aF0.84923999999999999
aF0.85304000000000002
aF0.85526000000000002
aF0.83431
aF0.86092999999999997
aF0.77902000000000005
aF0.2984
aF0.84614
aF0.84086000000000005
aF0.83216999999999997
aF0.39871000000000001
aF0.83216999999999997
aF0.85304000000000002
aF0.10136000000000001
aF0.85304000000000002
aF0.84436999999999995
aF0.84494999999999998
aF0.84436999999999995
aF0.85699000000000003
aF0.76895000000000002
asS'single'
p13
(lp14
F0.61150000000000004
aF0.45661000000000002
aF0.59955999999999998
aF0.53069
aF0.52883000000000002
aF0.61506000000000005
aF0.52883000000000002
aF0.45661000000000002
aF0.54064000000000001
aF0.58809999999999996
aF0.45661000000000002
aF0.441
aF0.63744999999999996
aF0.62214000000000003
aF0.62624000000000002
aF0.45289000000000001
aF0.48115000000000002
aF0.59972000000000003
aF0.83657999999999999
aF0.62873999999999997
aF0.61682999999999999
aF0.62214000000000003
aF0.58809999999999996
aF0.59955999999999998
aF0.2019
aF0.59955999999999998
aF0.62214000000000003
aF0.62624000000000002
aF0.64434999999999998
aF0.63032999999999995
aF0.61682999999999999
aF0.62624000000000002
aF0.61506000000000005
aF0.63266
aF0.63266
aF0.46195999999999998
aF0.63266
aF0.45202999999999999
aF0.63729000000000002
aF0.48187000000000002
aF0.17274999999999999
aF0.44029000000000001
aF0.30631000000000003
aF0.62873999999999997
aF0.63744999999999996
aF0.24962999999999999
aF0.1202
aF0.43646000000000001
aF0.58809999999999996
aF0.42671999999999999
aF0.2918
aF0.2918
aF0.30468000000000001
aF0.71179999999999999
aF0.44585000000000002
aF0.63032999999999995
aF0.61682999999999999
aF0.62624000000000002
aF0.47376000000000001
aF0.42251
aF0.53510999999999997
aF0.59955999999999998
aF0.65271000000000001
aF0.55674000000000001
aF0.48141
aF0.20488999999999999
aF0.43845000000000001
aF0.35998999999999998
aF0.62624000000000002
aF0.51698
aF0.2485
aF0.54505000000000003
aF0.14924999999999999
aF0.28360999999999997
aF0.45699000000000001
aF0.42924000000000001
aF0.29752000000000001
aF0.44029000000000001
aF0.59233999999999998
aF0.45746999999999999
aF0.61682999999999999
aF0.60750000000000004
aF0.25527
aF0.60375000000000001
aF0.065860000000000002
aF0.39422000000000001
aF0.60614000000000001
aF0.65910999999999997
aF0.46504000000000001
aF0.59955999999999998
aF0.44585000000000002
aF0.55859000000000003
aF0.78122000000000003
aF0.62624000000000002
aF0.63032999999999995
aF0.15340999999999999
aF0.62624000000000002
aF0.63266
aF0.63266
aF0.63917999999999997
aF0.62624000000000002
aF0.22739999999999999
aF0.37988
aF0.36701
aF0.84852000000000005
aF0.85541999999999996
aF0.62214000000000003
aF0.61506000000000005
aF0.84923999999999999
aF0.41821999999999998
aF0.46212999999999999
aF0.59535000000000005
aF0.57738
aF0.62624000000000002
aF0.46939999999999998
aF0.63917999999999997
aF0.44029000000000001
aF0.45451000000000003
aF0.12499
aF0.43902000000000002
aF0.47394999999999998
aF0.64651000000000003
aF0.62214000000000003
aF0.63729000000000002
aF0.61682999999999999
aF0.45746999999999999
aF0.62214000000000003
aF0.42981999999999998
aF0.62214000000000003
aF0.62624000000000002
aF0.31850000000000001
aF0.57516
aF0.61506000000000005
aF0.35421999999999998
aF0.28820000000000001
aF0.20826
aF0.62214000000000003
aF0.45289000000000001
aF0.61682999999999999
aF0.64132999999999996
aF0.43315999999999999
aF0.60614000000000001
aF0.61682999999999999
aF0.62214000000000003
aF0.45757999999999999
aF0.62624000000000002
aF0.13444
aF0.43719000000000002
aF0.35022999999999999
aF0.61682999999999999
aF0.64834999999999998
aF0.48324
aF0.46193000000000001
aF0.63032999999999995
aF0.60375000000000001
aF0.47281000000000001
aF0.62653999999999999
aF0.59955999999999998
aF0.63032999999999995
aF0.61817999999999995
aF0.59897999999999996
aF0.56491000000000002
aF0.63032999999999995
aF0.43475999999999998
aF0.39649000000000001
aF0.62624000000000002
aF0.60677000000000003
aF0.13983000000000001
aF0.52139999999999997
aF0.20619999999999999
aF0.62624000000000002
aF0.73592999999999997
aF0.84072000000000002
aF0.43845000000000001
aF0.17373
aF0.064509999999999998
aF0.46399000000000001
aF0.17383999999999999
aF0.60375000000000001
aF0.62214000000000003
aF0.62214000000000003
aF0.61107
aF0.62624000000000002
aF0.22287000000000001
aF0.47376000000000001
aF0.49453000000000003
aF0.61150000000000004
aF0.62624000000000002
aF0.43430999999999997
aF0.040770000000000001
aF0.62977000000000005
aF0.64434999999999998
aF0.14007
aF0.86099999999999999
aF0.86658999999999997
aF0.61682999999999999
aF0.45451000000000003
aF0.48560999999999999
aF0.47281000000000001
aF0.63266
aF0.47376000000000001
aF0.41022999999999998
aF0.45017000000000001
aF0.17199
aF0.2326
aF0.084959999999999994
aF0.44957999999999998
aF0.45451000000000003
aF0.46195999999999998
aF0.058869999999999999
aF0.78927000000000003
aF0.61150000000000004
aF0.46193000000000001
aF0.60614000000000001
aF0.60614000000000001
aF0.33976000000000001
aF0.63087000000000004
aF0.42920999999999998
aF0.61150000000000004
aF0.62624000000000002
aF0.62624000000000002
aF0.61682999999999999
aF0.46193000000000001
aF0.59535000000000005
aF0.21573000000000001
aF0.53956999999999999
aF0.40972999999999998
aF0.62568000000000001
aF0.63266
aF0.44829000000000002
aF0.63032999999999995
aF0.61150000000000004
aF0.61682999999999999
aF0.64834999999999998
aF0.64132999999999996
aF0.46193000000000001
aF0.59972000000000003
aF0.61506000000000005
aF0.63266
aF0.62624000000000002
aF0.63087000000000004
aF0.13667000000000001
aF0.60614000000000001
aF0.59955999999999998
aF0.58447000000000005
aF0.61682999999999999
aF0.60211999999999999
aF0.34992000000000001
aF0.59955999999999998
aF0.63266
aF0.43719000000000002
aF0.62873999999999997
aF0.61682999999999999
aF0.46195999999999998
aF0.053929999999999999
aF0.56111
aF0.58447000000000005
aF0.84923999999999999
aF0.44029000000000001
aF0.26919999999999999
aF0.35826000000000002
aF0.29553000000000001
aF0.65559000000000001
aF0.61682999999999999
aF0.45699000000000001
aF0.63917999999999997
aF0.63032999999999995
aF0.63266
aF0.65966999999999998
aF0.43719000000000002
aF0.62624000000000002
aF0.42924000000000001
aF0.61506000000000005
aF0.54069999999999996
aF0.61682999999999999
aF0.63744999999999996
aF0.048559999999999999
aF0.61506000000000005
aF0.60614000000000001
aF0.61682999999999999
aF0.61521999999999999
aF0.62624000000000002
aF0.39795999999999998
aF0.65559000000000001
aF0.63032999999999995
aF0.65459999999999996
aF0.49108000000000002
aF0.63729000000000002
aF0.84072000000000002
aF0.26249
aF0.46556999999999998
aF0.46504000000000001
aF0.61682999999999999
aF0.33872000000000002
aF0.27556999999999998
aF0.43669999999999998
aF0.62214000000000003
aF0.61682999999999999
aF0.43845000000000001
aF0.62214000000000003
aF0.17838000000000001
aF0.61150000000000004
aF0.65459999999999996
aF0.60375000000000001
aF0.65910999999999997
aF0.59535000000000005
aF0.62624000000000002
aF0.43719000000000002
aF0.43719000000000002
aF0.61150000000000004
aF0.63729000000000002
aF0.44212000000000001
aF0.60614000000000001
aF0.59955999999999998
aF0.47815000000000002
aF0.46504000000000001
aF0.62624000000000002
aF0.62624000000000002
aF0.45385999999999999
aF0.14568999999999999
aF0.12325999999999999
aF0.44581999999999999
aF0.62214000000000003
aF0.13450999999999999
aF0.46406999999999998
aF0.65232999999999997
aF0.46504000000000001
aF0.62624000000000002
aF0.46556999999999998
aF0.46639999999999998
aF0.23585
aF0.59955999999999998
aF0.48026000000000002
aF0.44585000000000002
aF0.76041000000000003
aF0.36892000000000003
aF0.85326999999999997
aF0.63266
aF0.61506000000000005
aF0.62214000000000003
aF0.63266
aF0.30552000000000001
aF0.45757999999999999
aF0.30413000000000001
aF0.44829000000000002
aF0.44212000000000001
aF0.24776000000000001
aF0.61682999999999999
aF0.65559000000000001
aF0.62214000000000003
aF0.43719000000000002
aF0.48560999999999999
aF0.61682999999999999
aF0.64434999999999998
aF0.34709000000000001
aF0.13062000000000001
aF0.20988999999999999
aF0.26743
aF0.63032999999999995
aF0.61506000000000005
aF0.62214000000000003
aF0.63266
aF0.85326999999999997
aF0.71643000000000001
aF0.64834999999999998
aF0.22477
aF0.069570000000000007
aF0.61204999999999998
aF0.63087000000000004
aF0.095850000000000005
aF0.47625000000000001
aF0.61150000000000004
aF0.80059999999999998
aF0.58447000000000005
aF0.62214000000000003
aF0.36832999999999999
aF0.45385999999999999
aF0.46956999999999999
aF0.60614000000000001
aF0.77902000000000005
aF0.82901000000000002
aF0.83426
aF0.83657999999999999
aF0.84702999999999995
aF0.85699000000000003
aF0.85541999999999996
aF0.60558000000000001
aF0.86658999999999997
aF0.85304000000000002
aF0.83440000000000003
aF0.36442999999999998
aF0.84072000000000002
aF0.84923999999999999
aF0.86395999999999995
aF0.85304000000000002
aF0.84304999999999997
aF0.84923999999999999
aF0.59519999999999995
aF0.85241
aF0.85304000000000002
aF0.84697999999999996
aF0.84923999999999999
aF0.84928000000000003
aF0.85706000000000004
aF0.55218
aF0.84263999999999994
aF0.85304000000000002
aF0.84614
aF0.75097999999999998
aF0.73045000000000004
aF0.67205999999999999
aF0.77117999999999998
aF0.81247000000000003
aF0.80225999999999997
aF0.84923999999999999
aF0.70233000000000001
aF0.63734999999999997
aF0.64137999999999995
aF0.74114000000000002
aF0.34566000000000002
aF0.74268999999999996
aF0.84436999999999995
aF0.85706000000000004
aF0.84923999999999999
aF0.74124000000000001
aF0.66081000000000001
aF0.84072000000000002
aF0.80225999999999997
aF0.83984999999999999
aF0.83426
aF0.85699000000000003
aF0.78922999999999999
aF0.72660999999999998
aF0.79664999999999997
aF0.84094000000000002
aF0.83528999999999998
aF0.78178999999999998
aF0.36431000000000002
aF0.71745999999999999
aF0.65222999999999998
aF0.74790999999999996
aF0.73351
aF0.62219000000000002
aF0.71897999999999995
aF0.34712999999999999
aF0.25725999999999999
aF0.79042000000000001
aF0.62219000000000002
aF0.82713999999999999
aF0.71752000000000005
aF0.85304000000000002
aF0.61512
aF0.76383999999999996
aF0.85304000000000002
aF0.31003999999999998
aF0.69832000000000005
aF0.83528999999999998
aF0.85326999999999997
aF0.84923999999999999
aF0.57328000000000001
aF0.85858999999999996
aF0.83335999999999999
aF0.83528999999999998
aF0.79042000000000001
aF0.84923999999999999
aF0.66207000000000005
aF0.79664999999999997
aF0.82069999999999999
aF0.83528999999999998
aF0.71248999999999996
aF0.84923999999999999
aF0.42147000000000001
aF0.84928000000000003
aF0.85892999999999997
aF0.86658999999999997
aF0.80384
aF0.85699000000000003
aF0.86860000000000004
aF0.85326999999999997
aF0.16295000000000001
aF0.55676000000000003
aF0.84923999999999999
aF0.84304999999999997
aF0.85326999999999997
aF0.83482999999999996
aF0.83836999999999995
aF0.84077000000000002
aF0.72411999999999999
aF0.71440999999999999
aF0.70108999999999999
aF0.46945999999999999
aF0.48014000000000001
aF0.75387999999999999
aF0.85892999999999997
aF0.83769000000000005
aF0.83836999999999995
aF0.84923999999999999
aF0.79042000000000001
aF0.84923999999999999
aF0.84304999999999997
aF0.75719999999999998
aF0.65905999999999998
aF0.85706000000000004
aF0.85304000000000002
aF0.75905
aF0.84094000000000002
aF0.86477000000000004
aF0.84923999999999999
aF0.79298000000000002
aF0.83791000000000004
aF0.54871999999999999
aF0.73885999999999996
aF0.84923999999999999
aF0.61316000000000004
aF0.57006000000000001
aF0.85304000000000002
aF0.84086000000000005
aF0.85706000000000004
aF0.83964000000000005
aF0.84923999999999999
aF0.84436999999999995
aF0.85241
aF0.85582999999999998
aF0.86600999999999995
aF0.87392000000000003
aF0.79664999999999997
aF0.85858999999999996
aF0.85892999999999997
aF0.49414999999999998
aF0.84304999999999997
aF0.83836999999999995
aF0.81093999999999999
aF0.83528999999999998
aF0.86878
aF0.82069999999999999
aF0.85304000000000002
aF0.84928000000000003
aF0.84436999999999995
aF0.65739000000000003
aF0.85706000000000004
aF0.84923999999999999
aF0.82599999999999996
aF0.85304000000000002
aF0.67793999999999999
aF0.83216999999999997
aF0.54618
aF0.68811999999999995
aF0.78541000000000005
aF0.78541000000000005
aF0.72548000000000001
aF0.64892000000000005
aF0.84923999999999999
aF0.81115999999999999
aF0.72699000000000003
aF0.83216999999999997
aF0.85706000000000004
aF0.77117999999999998
aF0.78541000000000005
aF0.85304000000000002
aF0.83348
aF0.64137999999999995
aF0.81669999999999998
aF0.86917
aF0.75756999999999997
aF0.83426
aF0.84436999999999995
aF0.85911999999999999
aF0.76717999999999997
aF0.84077000000000002
aF0.86241999999999996
aF0.65808
aF0.86785000000000001
aF0.84928000000000003
aF0.85706000000000004
aF0.78541000000000005
aF0.84094000000000002
aF0.85706000000000004
aF0.86099999999999999
aF0.74836999999999998
aF0.84923999999999999
aF0.68391000000000002
aF0.73497999999999997
aF0.60646999999999995
aF0.12823000000000001
aF0.062010000000000003
aF0.57501000000000002
aF0.72219
aF0.65007999999999999
aF0.74268999999999996
aF0.74555000000000005
aF0.82759000000000005
aF0.79042000000000001
aF0.82069999999999999
aF0.85304000000000002
aF0.73592999999999997
aF0.85521999999999998
aF0.84086000000000005
aF0.80550999999999995
aF0.80225999999999997
aF0.85304000000000002
aF0.85304000000000002
aF0.85304000000000002
aF0.83528999999999998
aF0.71706000000000003
aF0.83426
aF0.83984999999999999
aF0.83216999999999997
aF0.32663999999999999
aF0.83431
aF0.72219
aF0.86860000000000004
aF0.86307999999999996
aF0.85304000000000002
aF0.84072000000000002
aF0.57572999999999996
aF0.84723000000000004
aF0.85706000000000004
aF0.86658999999999997
aF0.84494999999999998
aF0.84923999999999999
aF0.57328000000000001
aF0.57211999999999996
aF0.84923999999999999
aF0.83474000000000004
aF0.83699000000000001
aF0.77817000000000003
aF0.56454000000000004
aF0.47447
aF0.85521999999999998
aF0.85019
aF0.82901000000000002
aF0.85326999999999997
aF0.83689000000000002
aF0.84923999999999999
aF0.84436999999999995
aF0.85304000000000002
aF0.84923999999999999
aF0.85326999999999997
aF0.83964000000000005
aF0.86533000000000004
aF0.80384
aF0.21793999999999999
aF0.84436999999999995
aF0.85326999999999997
aF0.72611999999999999
aF0.35396
aF0.66193000000000002
aF0.25366
aF0.85526000000000002
aF0.84923999999999999
aF0.85706000000000004
aF0.85706000000000004
aF0.79664999999999997
aF0.85441
aF0.74836999999999998
aF0.73038000000000003
aF0.84687000000000001
aF0.84923999999999999
aF0.84086000000000005
aF0.19642999999999999
aF0.65920000000000001
aF0.55900000000000005
aF0.80969000000000002
aF0.84072000000000002
aF0.84723000000000004
aF0.38246000000000002
aF0.77117999999999998
aF0.85706000000000004
aF0.74790999999999996
aF0.83533999999999997
aF0.84923999999999999
aF0.82713999999999999
aF0.85526000000000002
aF0.73934
aF0.86092999999999997
aF0.85699000000000003
aF0.85304000000000002
aF0.84723000000000004
aF0.83335999999999999
aF0.85706000000000004
aF0.85326999999999997
aF0.83782000000000001
aF0.84614
aF0.84304999999999997
aF0.84263999999999994
aF0.84326999999999996
aF0.79576000000000002
aF0.73241999999999996
aF0.84177000000000002
aF0.86092999999999997
aF0.38263999999999998
aF0.37272
aF0.86092999999999997
aF0.85304000000000002
aF0.82069999999999999
aF0.45789000000000002
aF0.83431
aF0.69288000000000005
aF0.74124000000000001
aF0.85706000000000004
aF0.83836999999999995
aF0.84304999999999997
aF0.83426
aF0.18876000000000001
aF0.84436999999999995
aF0.82506999999999997
aF0.83836999999999995
aF0.85521999999999998
aF0.73934
aF0.76043000000000005
aF0.84923999999999999
aF0.84177000000000002
aF0.73960000000000004
aF0.83657999999999999
aF0.84923999999999999
aF0.83528999999999998
aF0.85260999999999998
aF0.85326999999999997
aF0.65529999999999999
aF0.85304000000000002
aF0.84077000000000002
aF0.86082000000000003
aF0.79174999999999995
aF0.77512000000000003
aF0.53568000000000005
aF0.79298000000000002
aF0.85521999999999998
aF0.81427000000000005
aF0.85892999999999997
aF0.85304000000000002
aF0.85019
aF0.85304000000000002
aF0.84304999999999997
aF0.83836999999999995
aF0.80301999999999996
aF0.84304999999999997
aF0.84436999999999995
aF0.79330999999999996
aF0.85526000000000002
aF0.82506999999999997
aF0.85055000000000003
aF0.85706000000000004
aF0.85541999999999996
aF0.85699000000000003
aF0.84923999999999999
aF0.84094000000000002
aF0.78922999999999999
aF0.78541000000000005
aF0.83216999999999997
aF0.72994000000000003
aF0.84326999999999996
aF0.85304000000000002
aF0.84923999999999999
aF0.85304000000000002
aF0.85526000000000002
aF0.83431
aF0.86092999999999997
aF0.77902000000000005
aF0.2984
aF0.84614
aF0.84086000000000005
aF0.83216999999999997
aF0.39871000000000001
aF0.83216999999999997
aF0.85304000000000002
aF0.10136000000000001
aF0.85304000000000002
aF0.84436999999999995
aF0.84494999999999998
aF0.84436999999999995
aF0.85699000000000003
aF0.76895000000000002
aF0.44080000000000003
aF0.86046
aF0.93394999999999995
aF0.92596000000000001
aF0.93037000000000003
aF0.92713000000000001
aF0.93633999999999995
aF0.88317999999999997
aF0.90720000000000001
aF0.93732000000000004
aF0.93537999999999999
aF0.93664999999999998
aF0.93010999999999999
aF0.93732000000000004
aF0.77947999999999995
aF0.92403000000000002
aF0.92171000000000003
aF0.93537999999999999
aF0.86141999999999996
aF0.88058999999999998
aF0.85465000000000002
aF0.93149999999999999
aF0.94005000000000005
aF0.88275000000000003
aF0.93833999999999995
aF0.92113999999999996
aF0.93501999999999996
aF0.90254999999999996
aF0.93250999999999995
aF0.93613000000000002
aF0.92864999999999998
aF0.89964999999999995
aF0.93010999999999999
aF0.69459000000000004
aF0.79484999999999995
aF0.93149999999999999
aF0.92244000000000004
aF0.86963999999999997
aF0.9244
aF0.83072999999999997
aF0.76670000000000005
aF0.78310999999999997
aF0.29736000000000001
aF0.77947999999999995
aF0.94254000000000004
aF0.93537999999999999
aF0.90158000000000005
aF0.88092000000000004
aF0.88578000000000001
aF0.92396
aF0.91019000000000005
aF0.87256
aF0.91595000000000004
aF0.93664999999999998
aF0.84779000000000004
aF0.93437000000000003
aF0.89668000000000003
aF0.91371999999999998
aF0.92008999999999996
aF0.93593000000000004
aF0.86162000000000005
aF0.90686999999999995
aF0.90722000000000003
aF0.78898000000000001
aF0.49451000000000001
aF0.84240999999999999
aF0.88146000000000002
aF0.79361999999999999
aF0.81057999999999997
aF0.80003999999999997
aF0.74117999999999995
aF0.91761000000000004
aF0.91625000000000001
aF0.87653000000000003
aF0.91574
aF0.76966000000000001
aF0.93537999999999999
aF0.61240000000000006
aF0.87129999999999996
aF0.88800000000000001
aF0.90373999999999999
aF0.85833999999999999
aF0.73373999999999995
aF0.93825000000000003
aF0.93339000000000005
aF0.56599999999999995
aF0.88270999999999999
aF0.64263000000000003
aF0.85226000000000002
aF0.90464
aF0.90866000000000002
aF0.88344999999999996
aF0.91537000000000002
aF0.89285000000000003
aF0.85424
aF0.87773999999999996
aF0.92449000000000003
aF0.93593000000000004
aF0.89956999999999998
aF0.48463000000000001
aF0.93310999999999999
aF0.92723
aF0.92008999999999996
aF0.93250999999999995
aF0.88224000000000002
aF0.93825000000000003
aF0.91400000000000003
aF0.91473000000000004
aF0.93613000000000002
aF0.55900000000000005
aF0.93825000000000003
aF0.93010999999999999
aF0.93339000000000005
aF0.92573000000000005
aF0.77978000000000003
aF0.87099000000000004
aF0.71953
aF0.78573999999999999
aF0.85846
aF0.79674
aF0.93689999999999996
aF0.69121999999999995
aF0.87107000000000001
aF0.83262999999999998
aF0.91112000000000004
aF0.93732000000000004
aF0.81455
aF0.93537999999999999
aF0.28193000000000001
aF0.87773999999999996
aF0.76742999999999995
aF0.91371999999999998
aF0.92966000000000004
aF0.9093
aF0.62190000000000001
aF0.91537000000000002
aF0.93096000000000001
aF0.85318000000000005
aF0.79074
aF0.93537999999999999
aF0.83762999999999999
aF0.93496000000000001
aF0.86760999999999999
aF0.84225000000000005
aF0.93732000000000004
aF0.93010999999999999
aF0.93537999999999999
aF0.93613000000000002
aF0.85072999999999999
aF0.93613000000000002
aF0.93149999999999999
aF0.84519
aF0.92906999999999995
aF0.90495000000000003
aF0.93149999999999999
aF0.93310999999999999
aF0.31484000000000001
aF0.90312000000000003
aF0.81999
aF0.82867000000000002
aF0.88092000000000004
aF0.93633999999999995
aF0.93037000000000003
aF0.93537999999999999
aF0.92776999999999998
aF0.91979
aF0.91071999999999997
aF0.90944999999999998
aF0.93149999999999999
aF0.93537999999999999
aF0.84194999999999998
aF0.88454999999999995
aF0.90874999999999995
aF0.88927999999999996
aF0.91627999999999998
aF0.90158000000000005
aF0.90866000000000002
aF0.86026000000000002
aF0.22477
aF0.63141999999999998
aF0.90869
aF0.78902000000000005
aF0.78741000000000005
aF0.86900999999999995
aF0.53842999999999996
aF0.84618000000000004
aF0.88114999999999999
aF0.82938999999999996
aF0.92603999999999997
aF0.92945999999999995
aF0.88183
aF0.93537999999999999
aF0.93925000000000003
aF0.88927999999999996
aF0.9284
aF0.86487000000000003
aF0.93045
aF0.93544000000000005
aF0.88819000000000004
aF0.92893000000000003
aF0.93437000000000003
aF0.82598000000000005
aF0.93284
aF0.92776999999999998
aF0.93667
aF0.91625000000000001
aF0.92403000000000002
aF0.93613000000000002
aF0.88744999999999996
aF0.93886000000000003
aF0.93339000000000005
aF0.81405000000000005
aF0.87548999999999999
aF0.80557999999999996
aF0.85936999999999997
aF0.84247000000000005
aF0.86667000000000005
aF0.83443999999999996
aF0.86487000000000003
aF0.87612999999999996
aF0.90549999999999997
aF0.91256000000000004
aF0.91757999999999995
aF0.92723
aF0.93149999999999999
aF0.75432999999999995
aF0.88931000000000004
aF0.91627999999999998
aF0.80645999999999995
aF0.90495000000000003
aF0.93593000000000004
aF0.89019999999999999
aF0.92723
aF0.93537999999999999
aF0.93149999999999999
aF0.86070999999999998
aF0.93174000000000001
aF0.84240999999999999
aF0.82452999999999999
aF0.93201000000000001
aF0.93310999999999999
aF0.82342000000000004
aF0.93339000000000005
aF0.86324000000000001
aF0.68774999999999997
aF0.91019000000000005
aF0.93437000000000003
aF0.83852000000000004
aF0.93339000000000005
aF0.90866000000000002
aF0.92171000000000003
aF0.93833999999999995
aF0.93633999999999995
aF0.93339000000000005
aF0.9244
aF0.91395000000000004
aF0.91761000000000004
aF0.90861999999999998
aF0.88058999999999998
aF0.92784
aF0.92193999999999998
aF0.93010999999999999
aF0.93096000000000001
aF0.90307999999999999
aF0.9284
aF0.93833999999999995
aF0.36137000000000002
aF0.92945999999999995
aF0.93593000000000004
aF0.93149999999999999
aF0.91537000000000002
aF0.93008000000000002
aF0.92603999999999997
aF0.87102000000000002
aF0.83359000000000005
aF0.77978000000000003
aF0.69896999999999998
aF0.80557999999999996
aF0.86487000000000003
aF0.93764000000000003
aF0.93149999999999999
aF0.93833999999999995
aF0.92242999999999997
aF0.93447000000000002
aF0.88895999999999997
aF0.87975000000000003
aF0.84545999999999999
aF0.85789000000000004
aF0.93208000000000002
aF0.92906999999999995
aF0.55128999999999995
aF0.91473000000000004
aF0.3931
aF0.93855
aF0.92008999999999996
aF0.92906999999999995
aF0.91400000000000003
aF0.77009000000000005
aF0.78478999999999999
aF0.93149999999999999
aF0.91371999999999998
aF0.92893000000000003
aF0.93613000000000002
aF0.93010999999999999
aF0.93201000000000001
aF0.88931000000000004
aF0.93437000000000003
aF0.93925000000000003
aF0.86180000000000001
aF0.88207000000000002
aF0.93072999999999995
aF0.23052
aF0.84907999999999995
aF0.86414000000000002
aF0.91473000000000004
aF0.93613000000000002
aF0.93010999999999999
aF0.92459999999999998
aF0.91469999999999996
aF0.87973999999999997
aF0.79520000000000002
aF0.93008000000000002
aF0.93437000000000003
aF0.59968999999999995
aF0.93250999999999995
aF0.86026000000000002
aF0.93833999999999995
aF0.93784999999999996
aF0.92459999999999998
aF0.93072999999999995
aF0.91574
aF0.93149999999999999
aF0.82338
aF0.85585999999999995
aF0.93339000000000005
aF0.92603999999999997
aF0.88160000000000005
aF0.79849000000000003
aF0.92449000000000003
aF0.93732000000000004
aF0.93732000000000004
aF0.93537999999999999
aF0.87256
aF0.91400000000000003
aF0.87961999999999996
aF0.55666000000000004
aF0.89731000000000005
aF0.93250999999999995
aF0.93732000000000004
aF0.85148000000000001
aF0.93693000000000004
aF0.86260999999999999
aF0.92449000000000003
aF0.93732000000000004
aF0.93008000000000002
aF0.91761000000000004
aF0.89451000000000003
aF0.90158000000000005
aF0.91249000000000002
aF0.91256000000000004
aF0.93537999999999999
aF0.81023999999999996
aF0.74270999999999998
aF0.88812000000000002
aF0.88454999999999995
aF0.93149999999999999
aF0.93833999999999995
aF0.90866000000000002
aF0.90312000000000003
aF0.93208000000000002
aF0.93196999999999997
aF0.59426999999999996
aF0.87470000000000003
aF0.93879999999999997
aF0.90549999999999997
aF0.88536000000000004
aF0.93140000000000001
aF0.87846000000000002
aF0.93633999999999995
aF0.93613000000000002
aF0.92459999999999998
aF0.90686999999999995
aF0.93008000000000002
aF0.91371999999999998
aF0.73365000000000002
aF0.92830000000000001
aF0.93593000000000004
aF0.93537999999999999
aF0.93976999999999999
aF0.93732000000000004
aF0.73080999999999996
aF0.85836000000000001
aF0.93437000000000003
aF0.89542999999999995
aF0.90464
aF0.86960999999999999
aF0.92747999999999997
aF0.84074000000000004
aF0.83809
aF0.87951000000000001
aF0.93613000000000002
aF0.91256000000000004
aF0.93339000000000005
aF0.85631000000000002
aF0.87148999999999999
aF0.91320000000000001
aF0.83018000000000003
aF0.93633999999999995
aF0.93149999999999999
aF0.88546000000000002
aF0.90864
aF0.91735
aF0.92930999999999997
aF0.93759000000000003
aF0.92479
aF0.93220999999999998
aF0.93535999999999997
aF0.93633999999999995
aF0.93537999999999999
aF0.93825000000000003
aF0.93496000000000001
aF0.92781999999999998
aF0.93259000000000003
aF0.91486000000000001
aF0.93259000000000003
aF0.93593000000000004
aF0.93664999999999998
aF0.93459999999999999
aF0.93593000000000004
aF0.93469999999999998
aF0.93459999999999999
aF0.93593000000000004
aF0.93855
aF0.93542000000000003
aF0.93732000000000004
aF0.93633999999999995
aF0.91130999999999995
aF0.91735
aF0.93140999999999996
aF0.93655999999999995
aF0.93096000000000001
aF0.93140999999999996
aF0.93655999999999995
aF0.93784999999999996
aF0.93645999999999996
aF0.92506999999999995
aF0.93879999999999997
aF0.93459999999999999
aF0.93784999999999996
aF0.93664999999999998
aF0.93345999999999996
aF0.93655999999999995
aF0.93593000000000004
aF0.92930999999999997
aF0.93459999999999999
aF0.93886000000000003
aF0.93140999999999996
aF0.93759000000000003
aF0.93469999999999998
aF0.93759000000000003
aF0.93784999999999996
aF0.93738999999999995
aF0.93140999999999996
aF0.93655999999999995
aF0.93593000000000004
aF0.93140999999999996
aF0.93535999999999997
aF0.93664999999999998
aF0.93345999999999996
aF0.93655999999999995
aF0.89964999999999995
aF0.93542000000000003
aF0.91735
aF0.92617000000000005
aF0.93345999999999996
aF0.93459999999999999
aF0.88058000000000003
aF0.93220999999999998
aF0.93803000000000003
aF0.93593000000000004
aF0.93454000000000004
aF0.93655999999999995
aF0.93784999999999996
aF0.92930999999999997
aF0.93067999999999995
aF0.93593000000000004
aF0.93501999999999996
aF0.93469999999999998
aF0.93998999999999999
aF0.93500000000000005
aF0.93803000000000003
aF0.93825000000000003
aF0.93454000000000004
aF0.90864
aF0.90444999999999998
aF0.93655999999999995
aF0.93593000000000004
aF0.92451000000000005
aF0.93140999999999996
aF0.93259000000000003
aF0.93593000000000004
aF0.93259000000000003
aF0.93537999999999999
aF0.93437000000000003
aF0.93689999999999996
aF0.87592999999999999
aF0.89454
aF0.90444999999999998
aF0.93459999999999999
aF0.93784999999999996
aF0.92310000000000003
aF0.93655999999999995
aF0.93886000000000003
aF0.94123999999999997
aF0.88871
aF0.91130999999999995
aF0.90254999999999996
aF0.93140999999999996
aF0.93655999999999995
aF0.93593000000000004
aF0.88871
aF0.91979
aF0.92451000000000005
aF0.90666999999999998
aF0.93459999999999999
aF0.93633999999999995
aF0.93537999999999999
aF0.93925000000000003
aF0.93979999999999997
aF0.79357
aF0.82935999999999999
aF0.85319999999999996
aF0.80123999999999995
aF0.82935999999999999
aF0.82404999999999995
aF0.87309000000000003
aF0.87712000000000001
aF0.87536999999999998
aF0.87888999999999995
aF0.87450000000000006
aF0.87785000000000002
aF0.86733000000000005
aF0.87473999999999996
aF0.86822999999999995
aF0.93140999999999996
aF0.93459999999999999
aF0.93593000000000004
aF0.93045
aF0.93459999999999999
aF0.93501999999999996
aF0.93345999999999996
aF0.93459999999999999
aF0.91486000000000001
aF0.93454000000000004
aF0.93655999999999995
aF0.93208000000000002
aF0.89641000000000004
aF0.90868000000000004
aF0.92930999999999997
aF0.86570999999999998
aF0.93784999999999996
aF0.90864
aF0.84597
aF0.92571999999999999
aF0.93345999999999996
aF0.93459999999999999
aF0.93394999999999995
aF0.90610000000000002
aF0.91271000000000002
aF0.92107000000000006
aF0.92571999999999999
aF0.93833999999999995
aF0.93967999999999996
aF0.93979999999999997
aF0.91439999999999999
aF0.93803000000000003
aF0.86792000000000002
aF0.93459999999999999
aF0.93593000000000004
aF0.93738999999999995
aF0.90108999999999995
aF0.91469999999999996
aF0.89088999999999996
aF0.92930999999999997
aF0.88024000000000002
aF0.91735
aF0.90968000000000004
aF0.84855999999999998
aF0.92220999999999997
aF0.93342000000000003
aF0.93613000000000002
aF0.93708000000000002
aF0.86904000000000003
aF0.93759000000000003
aF0.93593000000000004
aF0.91757999999999995
aF0.91735
aF0.8931
aF0.89668000000000003
aF0.90822000000000003
aF0.85163999999999995
aF0.87473999999999996
aF0.85079000000000005
aF0.87826000000000004
aF0.71196000000000004
aF0.88185000000000002
aF0.79601
aF0.83391000000000004
aF0.84597
aF0.87463000000000002
aF0.88012000000000001
aF0.88058000000000003
aF0.86904000000000003
aF0.87473999999999996
aF0.82223000000000002
aF0.79601
aF0.82721999999999996
aF0.84433000000000002
aF0.87611000000000006
aF0.88241000000000003
aF0.82648999999999995
aF0.86904000000000003
aF0.87473999999999996
aF0.78691
aF0.93823000000000001
aF0.92420999999999998
aF0.92617000000000005
aF0.88993999999999995
aF0.91130999999999995
aF0.91979
aF0.93500000000000005
aF0.92218
aF0.89281999999999995
aF0.93459999999999999
aF0.93394999999999995
aF0.93664999999999998
aF0.87782000000000004
aF0.87822
aF0.88966999999999996
aF0.91652999999999996
aF0.93459999999999999
aF0.93886000000000003
aF0.89188999999999996
aF0.91271000000000002
aF0.91979
aF0.87592999999999999
aF0.89022000000000001
aF0.88966999999999996
aF0.93140999999999996
aF0.93759000000000003
aF0.82160999999999995
aF0.9022
aF0.91271000000000002
aF0.91469999999999996
aF0.92008999999999996
aF0.93459999999999999
aF0.90861999999999998
aF0.91657999999999995
aF0.93045
aF0.87114000000000003
aF0.87160000000000004
aF0.90937999999999997
aF0.93784999999999996
aF0.93738999999999995
aF0.93140999999999996
aF0.93459999999999999
aF0.93394999999999995
aF0.93345999999999996
aF0.93876999999999999
aF0.93855
aF0.89180999999999999
aF0.91469999999999996
aF0.90159999999999996
aF0.93140999999999996
aF0.93759000000000003
aF0.91761000000000004
aF0.93140999999999996
aF0.93708000000000002
aF0.93764000000000003
aF0.93140999999999996
aF0.93259000000000003
aF0.90373999999999999
aF0.93140999999999996
aF0.90739000000000003
aF0.92161000000000004
aF0.93454000000000004
aF0.93655999999999995
aF0.90254999999999996
aF0.93140999999999996
aF0.93784999999999996
aF0.92623999999999995
aF0.93933
aF0.92107000000000006
aF0.91088999999999998
aF0.93454000000000004
aF0.93759000000000003
aF0.88819999999999999
aF0.93220999999999998
aF0.93759000000000003
aF0.93394999999999995
aF0.93140999999999996
aF0.93459999999999999
aF0.93501999999999996
aF0.93140999999999996
aF0.93339000000000005
aF0.93708000000000002
aF0.92930999999999997
aF0.90864
aF0.91979
aF0.93459999999999999
aF0.93886000000000003
aF0.93955
aF0.93542000000000003
aF0.93394999999999995
aF0.92544000000000004
aF0.93711
aF0.93454000000000004
aF0.71870999999999996
aF0.88058000000000003
aF0.93345999999999996
aF0.92107000000000006
aF0.92776000000000003
aF0.93045
aF0.91171000000000002
aF0.93208000000000002
aF0.93469999999999998
aF0.93500000000000005
aF0.93759000000000003
aF0.93394999999999995
aF0.93459999999999999
aF0.93593000000000004
aF0.93738999999999995
aF0.86529999999999996
aF0.93784999999999996
aF0.92451000000000005
aF0.90395000000000003
aF0.92369000000000001
aF0.92735000000000001
aF0.93220999999999998
aF0.93459999999999999
aF0.93667
aF0.93140999999999996
aF0.93459999999999999
aF0.93664999999999998
aF0.93655999999999995
aF0.93593000000000004
aF0.93855
aF0.93342000000000003
aF0.93593000000000004
aF0.94123999999999997
aF0.93454000000000004
aF0.93803000000000003
aF0.94055999999999995
aF0.92730999999999997
aF0.93664999999999998
aF0.93899999999999995
aF0.82955999999999996
aF0.87309000000000003
aF0.81415999999999999
aF0.87114000000000003
aF0.88241000000000003
aF0.87290000000000001
aF0.87046000000000001
aF0.87611000000000006
aF0.84714999999999996
aF0.79601
aF0.83111999999999997
aF0.81903000000000004
aF0.87004000000000004
aF0.87182999999999999
aF0.87536999999999998
aF0.87473999999999996
aF0.87548999999999999
aF0.87680999999999998
aF0.93593000000000004
aF0.93664999999999998
aF0.93711
aF0.92730999999999997
aF0.93459999999999999
aF0.93593000000000004
aF0.93635000000000002
aF0.94094
aF0.93140999999999996
aF0.93655999999999995
aF0.93593000000000004
aF0.88871
aF0.90968000000000004
aF0.91486000000000001
aF0.93345999999999996
aF0.93759000000000003
aF0.87021999999999999
aF0.92930999999999997
aF0.93259000000000003
aF0.92220999999999997
aF0.93140999999999996
aF0.93067999999999995
aF0.92966000000000004
aF0.93447000000000002
aF0.93879999999999997
aF0.93345999999999996
aF0.93759000000000003
aF0.93886000000000003
aF0.93454000000000004
aF0.93459999999999999
aF0.92159999999999997
aF0.90968000000000004
aF0.91979
aF0.93691000000000002
aF0.93732000000000004
aF0.93708000000000002
aF0.92154999999999998
aF0.93593000000000004
aF0.90822000000000003
aF0.93140999999999996
aF0.93535999999999997
aF0.93928999999999996
aF0.90864
aF0.92107000000000006
aF0.92571999999999999
aF0.93454000000000004
aF0.93537999999999999
aF0.93645999999999996
aF0.93501999999999996
aF0.93855
aF0.85924999999999996
aF0.88802999999999999
aF0.89964999999999995
aF0.93140999999999996
aF0.93459999999999999
aF0.93501999999999996
aF0.93140999999999996
aF0.93655999999999995
aF0.92369000000000001
aF0.93459999999999999
aF0.87490999999999997
aF0.87575000000000003
aF0.93220999999999998
aF0.93459999999999999
aF0.93496000000000001
aF0.93613000000000002
aF0.93544000000000005
aF0.93879999999999997
aF0.93140999999999996
aF0.93459999999999999
aF0.93667
aF0.93759000000000003
aF0.93394999999999995
aF0.93664999999999998
aF0.92930999999999997
aF0.93459999999999999
aF0.93784999999999996
aF0.93345999999999996
aF0.93655999999999995
aF0.93928999999999996
aF0.93345999999999996
aF0.93759000000000003
aF0.93925000000000003
aF0.93454000000000004
aF0.93655999999999995
aF0.93593000000000004
aF0.93140999999999996
aF0.93933
aF0.93784999999999996
aF0.89356000000000002
aF0.84462999999999999
aF0.87355000000000005
aF0.93140999999999996
aF0.93259000000000003
aF0.93593000000000004
aF0.90864
aF0.91979
aF0.92451000000000005
aF0.93140999999999996
aF0.93803000000000003
aF0.93886000000000003
aF0.93759000000000003
aF0.93955
aF0.93516999999999995
aF0.88012000000000001
aF0.93732000000000004
aF0.92451000000000005
aF0.93345999999999996
aF0.93803000000000003
aF0.91979
aF0.93220999999999998
aF0.93535999999999997
aF0.91308999999999996
aF0.93140999999999996
aF0.93535999999999997
aF0.92107000000000006
aF0.92930999999999997
aF0.93459999999999999
aF0.93593000000000004
aF0.93420000000000003
aF0.93833999999999995
aF0.93664999999999998
aF0.93140999999999996
aF0.93459999999999999
aF0.93886000000000003
aF0.93140999999999996
aF0.93759000000000003
aF0.93784999999999996
aF0.93784999999999996
aF0.93664999999999998
aF0.93784000000000001
aF0.93345999999999996
aF0.93655999999999995
aF0.92369000000000001
aF0.93645999999999996
aF0.93759000000000003
aF0.93784999999999996
aF0.90108999999999995
aF0.91625000000000001
aF0.92244000000000004
aF0.93345999999999996
aF0.93759000000000003
aF0.93593000000000004
aF0.92930999999999997
aF0.87309000000000003
aF0.87356999999999996
aF0.91757999999999995
aF0.92369000000000001
aF0.91808999999999996
aF0.93140999999999996
aF0.93655999999999995
aF0.93667
aF0.91271000000000002
aF0.91979
aF0.92571999999999999
aF0.93454000000000004
aF0.89336000000000004
aF0.90551999999999999
aF0.91757999999999995
aF0.92244000000000004
aF0.92935000000000001
aF0.93140999999999996
aF0.89749000000000001
aF0.91735
aF0.92730999999999997
aF0.90864
aF0.90944999999999998
aF0.93459999999999999
aF0.93593000000000004
aF0.93689999999999996
aF0.93454000000000004
aF0.90864
aF0.91979
aF0.93454000000000004
aF0.93655999999999995
aF0.91979
aF0.93149999999999999
aF0.91595000000000004
aF0.9194
aF0.87961999999999996
aF0.87712000000000001
aF0.82648999999999995
aF0.86265000000000003
aF0.87611000000000006
aF0.81188000000000005
aF0.87473999999999996
aF0.87356999999999996
aF0.87841999999999998
aF0.93140999999999996
aF0.93259000000000003
aF0.87129999999999996
aF0.92930999999999997
aF0.93259000000000003
aF0.93072999999999995
aF0.93500000000000005
aF0.90739000000000003
aF0.90159999999999996
aF0.93220999999999998
aF0.90968000000000004
aF0.92107000000000006
aF0.93220999999999998
aF0.93535999999999997
aF0.93667
aF0.93459999999999999
aF0.93593000000000004
aF0.93998000000000004
aF0.93140999999999996
aF0.90864
aF0.91735
aF0.88546000000000002
aF0.91112000000000004
aF0.91486000000000001
aF0.92220999999999997
aF0.93454000000000004
aF0.93535999999999997
aF0.94055999999999995
aF0.93933
aF0.93928999999999996
aF0.94123999999999997
aF0.89802999999999999
aF0.90254999999999996
aF0.90868000000000004
aF0.88802999999999999
aF0.89802999999999999
aF0.90159999999999996
aF0.93140999999999996
aF0.93655999999999995
aF0.93593000000000004
aF0.93500000000000005
aF0.93655999999999995
aF0.93784999999999996
aF0.93459999999999999
aF0.93437000000000003
aF0.93310999999999999
aF0.93259000000000003
aF0.93784999999999996
aF0.93284
aF0.93454000000000004
aF0.90332000000000001
aF0.90715999999999997
aF0.93886000000000003
aF0.93955
aF0.93998999999999999
aF0.93655999999999995
aF0.93784999999999996
aF0.93855
aF0.88546000000000002
aF0.86721999999999999
aF0.86414999999999997
aF0.93220999999999998
aF0.93732000000000004
aF0.93633999999999995
aF0.93764000000000003
aF0.93345999999999996
aF0.93459999999999999
aF0.93955
aF0.93998999999999999
aF0.92930999999999997
aF0.93459999999999999
aF0.93664999999999998
aF0.87019000000000002
aF0.91130999999999995
aF0.92107000000000006
aF0.93137999999999999
aF0.93339000000000005
aF0.93469999999999998
aF0.93655999999999995
aF0.93537999999999999
aF0.93394999999999995
aF0.93454000000000004
aF0.93655999999999995
aF0.93886000000000003
aF0.92474000000000001
aF0.93459999999999999
aF0.93593000000000004
aF0.93345999999999996
aF0.93655999999999995
aF0.92244000000000004
aF0.93140999999999996
aF0.93655999999999995
aF0.93593000000000004
aF0.90864
aF0.91735
aF0.91088999999999998
aF0.87463000000000002
aF0.87612999999999996
aF0.87785000000000002
aF0.78408999999999995
aF0.81188000000000005
aF0.83040000000000003
aF0.87270000000000003
aF0.87612999999999996
aF0.88229000000000002
aF0.86719000000000002
aF0.87624000000000002
aF0.85172000000000003
aF0.87548999999999999
aF0.86961999999999995
aF0.87765000000000004
aF0.82935999999999999
aF0.84235000000000004
aF0.85895999999999995
aF0.86529999999999996
aF0.87611000000000006
aF0.87846000000000002
aF0.87046000000000001
aF0.88012000000000001
aF0.88548000000000004
aF0.93140999999999996
aF0.93759000000000003
aF0.91735
aF0.90864
aF0.92008999999999996
aF0.92391000000000001
aF0.88871
aF0.83733999999999997
aF0.84433000000000002
aF0.93140999999999996
aF0.93655999999999995
aF0.93667
aF0.93140999999999996
aF0.93259000000000003
aF0.93633999999999995
aF0.93454000000000004
aF0.93459999999999999
aF0.93394999999999995
aF0.79601
aF0.9022
aF0.90864
aF0.91935
aF0.92822000000000005
aF0.93593000000000004
aF0.93537999999999999
aF0.93437000000000003
aF0.92391000000000001
aF0.93140999999999996
aF0.93535999999999997
aF0.90159999999999996
aF0.93459999999999999
aF0.90944999999999998
aF0.92451000000000005
aF0.93220999999999998
aF0.93459999999999999
aF0.93825000000000003
aF0.93140999999999996
aF0.93459999999999999
aF0.93825000000000003
aF0.93345999999999996
aF0.93655999999999995
aF0.93784999999999996
aF0.93454000000000004
aF0.93535999999999997
aF0.93593000000000004
aF0.93345999999999996
aF0.93459999999999999
aF0.93784999999999996
aF0.93220999999999998
aF0.93655999999999995
aF0.93667
aF0.87256
aF0.87785000000000002
aF0.93689999999999996
aF0.93140999999999996
aF0.93759000000000003
aF0.91486000000000001
aF0.92730999999999997
aF0.91486000000000001
aF0.91473000000000004
aF0.93500000000000005
aF0.94123999999999997
aF0.93998999999999999
aF0.93886000000000003
aF0.93955
aF0.93899999999999995
aF0.93345999999999996
aF0.88978999999999997
aF0.90444999999999998
aF0.93220999999999998
aF0.93367999999999995
aF0.93784999999999996
aF0.93454000000000004
aF0.93537999999999999
aF0.93689999999999996
aF0.87782000000000004
aF0.88644999999999996
aF0.90666999999999998
aF0.93259000000000003
aF0.89546000000000003
aF0.92930999999999997
aF0.93394999999999995
aF0.93955
aF0.93759000000000003
aF0.93886000000000003
aF0.93855
aF0.93454000000000004
aF0.93759000000000003
aF0.93667
aF0.93345999999999996
aF0.90864
aF0.91979
aF0.93535999999999997
aF0.93593000000000004
aF0.93955
aF0.93140999999999996
aF0.93459999999999999
aF0.93667
aF0.93140999999999996
aF0.93784999999999996
aF0.93955
aF0.93140999999999996
aF0.93459999999999999
aF0.93394999999999995
aF0.93537999999999999
aF0.93633999999999995
aF0.93310999999999999
aF0.93925000000000003
aF0.93664999999999998
aF0.93711
aF0.91371999999999998
aF0.92100000000000004
aF0.92479
aF0.92730999999999997
aF0.93437000000000003
aF0.92935000000000001
aF0.93140999999999996
aF0.91757999999999995
aF0.92576999999999998
aF0.93220999999999998
aF0.93259000000000003
aF0.89964999999999995
aF0.93454000000000004
aF0.93537999999999999
aF0.93825000000000003
aF0.93140999999999996
aF0.93537999999999999
aF0.93633999999999995
aF0.93259000000000003
aF0.87712000000000001
aF0.93955
aF0.93542000000000003
aF0.93537999999999999
aF0.93708000000000002
aF0.93140999999999996
aF0.93339000000000005
aF0.90868000000000004
aF0.93454000000000004
aF0.92305999999999999
aF0.93593000000000004
aF0.93635000000000002
aF0.93933
aF0.93886000000000003
aF0.93140999999999996
aF0.93593000000000004
aF0.93784000000000001
aF0.93459999999999999
aF0.93593000000000004
aF0.93664999999999998
aF0.93542000000000003
aF0.91449999999999998
aF0.93825000000000003
aF0.93345999999999996
aF0.93933
aF0.91249000000000002
aF0.92244000000000004
aF0.86184000000000005
aF0.91507000000000005
aF0.91979
aF0.85279000000000005
aF0.93437000000000003
aF0.87490999999999997
aF0.87244999999999995
aF0.93220999999999998
aF0.93459999999999999
aF0.93593000000000004
aF0.92730999999999997
aF0.87473999999999996
aF0.93394999999999995
aF0.93496000000000001
aF0.87463000000000002
aF0.87309000000000003
aF0.84855999999999998
aF0.86733000000000005
aF0.83631999999999995
aF0.82160999999999995
aF0.79803999999999997
aF0.82394000000000001
aF0.83974000000000004
aF0.82471000000000005
aF0.84001000000000003
aF0.82396999999999998
aF0.87270000000000003
aF0.88012000000000001
aF0.88241000000000003
aF0.93667
aF0.93469999999999998
aF0.93711
aF0.93454000000000004
aF0.93535999999999997
aF0.93886000000000003
aF0.93500000000000005
aF0.93459999999999999
aF0.93784999999999996
aF0.93459999999999999
aF0.93886000000000003
aF0.88185000000000002
aF0.93345999999999996
aF0.93535999999999997
aF0.93593000000000004
aF0.93345999999999996
aF0.91979
aF0.88615999999999995
aF0.93833999999999995
aF0.93925000000000003
aF0.93979999999999997
aF0.93220999999999998
aF0.93655999999999995
aF0.93784999999999996
aF0.93342000000000003
aF0.93732000000000004
aF0.93633999999999995
aF0.93542000000000003
aF0.93833999999999995
aF0.93925000000000003
aF0.92930999999999997
aF0.93259000000000003
aF0.93886000000000003
aF0.93149999999999999
aF0.93250999999999995
aF0.93072999999999995
aF0.93537999999999999
aF0.92369000000000001
aF0.92617000000000005
aF0.91130999999999995
aF0.91735
aF0.93342000000000003
aF0.91595000000000004
aF0.93454000000000004
aF0.93633999999999995
aF0.93879999999999997
aF0.91130999999999995
aF0.91830000000000001
aF0.92479
aF0.93345999999999996
aF0.93655999999999995
aF0.93886000000000003
aF0.93759000000000003
aF0.93667
aF0.90547
aF0.85157000000000005
aF0.89641000000000004
aF0.88966999999999996
aF0.93220999999999998
aF0.90864
aF0.91735
aF0.93345999999999996
aF0.93803000000000003
aF0.93928999999999996
aF0.93454000000000004
aF0.93535999999999997
aF0.91830000000000001
aF0.93459999999999999
aF0.88107000000000002
aF0.93899999999999995
aF0.93140999999999996
aF0.93459999999999999
aF0.93784999999999996
aF0.93759000000000003
aF0.87712000000000001
aF0.88185000000000002
aF0.93593000000000004
aF0.93469999999999998
aF0.93998999999999999
aF0.93345999999999996
aF0.93655999999999995
aF0.94055999999999995
aF0.93655999999999995
aF0.93886000000000003
aF0.93998000000000004
aF0.93259000000000003
aF0.93593000000000004
aF0.93855
aF0.93345999999999996
aF0.93759000000000003
aF0.93633999999999995
aF0.93045
aF0.93367999999999995
aF0.93394999999999995
aF0.93469999999999998
aF0.93833999999999995
aF0.93708000000000002
aF0.93784000000000001
aF0.93140999999999996
aF0.93655999999999995
aF0.93886000000000003
aF0.93345999999999996
aF0.94055999999999995
aF0.92571999999999999
aF0.93537999999999999
aF0.93925000000000003
aF0.93979999999999997
aF0.93655999999999995
aF0.93613000000000002
aF0.93825000000000003
aF0.92391000000000001
aF0.93454000000000004
aF0.93535999999999997
aF0.93886000000000003
aF0.93345999999999996
aF0.93501999999999996
aF0.93664999999999998
aF0.93645999999999996
aF0.93613000000000002
aF0.82569000000000004
aF0.91935
aF0.90864
aF0.89281999999999995
aF0.93459999999999999
aF0.93593000000000004
aF0.82862999999999998
aF0.92930999999999997
aF0.93738999999999995
aF0.93516999999999995
aF0.93759000000000003
aF0.93784999999999996
aF0.94123999999999997
aF0.93500000000000005
aF0.93593000000000004
aF0.93738999999999995
aF0.93535999999999997
aF0.93784999999999996
aF0.93738999999999995
aF0.93345999999999996
aF0.93655999999999995
aF0.93689999999999996
aF0.93140999999999996
aF0.93655999999999995
aF0.93394999999999995
aF0.87270000000000003
aF0.93759000000000003
aF0.94094
aF0.93542000000000003
aF0.93833999999999995
aF0.93437000000000003
aF0.93855
aF0.93784000000000001
aF0.92930999999999997
aF0.93535999999999997
aF0.93955
aF0.93220999999999998
aF0.93459999999999999
aF0.93593000000000004
aF0.93140999999999996
aF0.93655999999999995
aF0.93593000000000004
aF0.86904000000000003
aF0.93259000000000003
aF0.87846000000000002
aF0.93635000000000002
aF0.93535999999999997
aF0.93886000000000003
aF0.93220999999999998
aF0.93655999999999995
aF0.93928999999999996
aF0.90108999999999995
aF0.90076999999999996
aF0.91088999999999998
aF0.92930999999999997
aF0.93067999999999995
aF0.90159999999999996
aF0.93220999999999998
aF0.93459999999999999
aF0.93784999999999996
aF0.93345999999999996
aF0.93459999999999999
aF0.93667
aF0.93345999999999996
aF0.93535999999999997
aF0.93886000000000003
aF0.93454000000000004
aF0.93803000000000003
aF0.93784999999999996
aF0.93345999999999996
aF0.93459999999999999
aF0.92220999999999997
aF0.93045
aF0.93259000000000003
aF0.93886000000000003
aF0.87712000000000001
aF0.93664999999999998
aF0.93711
aF0.89815
aF0.90407999999999999
aF0.91088999999999998
aF0.93928999999999996
aF0.93955
aF0.93345999999999996
aF0.93459999999999999
aF0.93886000000000003
aF0.93345999999999996
aF0.93759000000000003
aF0.94055999999999995
aF0.93928999999999996
aF0.92451000000000005
aF0.93459999999999999
aF0.93593000000000004
aF0.93955
aF0.93140999999999996
aF0.93759000000000003
aF0.93886000000000003
aF0.93220999999999998
aF0.93759000000000003
aF0.93667
aF0.93394999999999995
aF0.93664999999999998
aF0.93784000000000001
aF0.93613000000000002
aF0.93825000000000003
aF0.92735000000000001
aF0.92930999999999997
aF0.91486000000000001
aF0.90822000000000003
aF0.93140999999999996
aF0.91271000000000002
aF0.91979
aF0.93645999999999996
aF0.83359000000000005
aF0.92008999999999996
aF0.90864
aF0.91735
aF0.92391000000000001
aF0.93345999999999996
aF0.93535999999999997
aF0.93593000000000004
aF0.93345999999999996
aF0.91130999999999995
aF0.85079000000000005
aF0.91088999999999998
aF0.93500000000000005
aF0.93933
aF0.94055999999999995
aF0.93759000000000003
aF0.93667
aF0.93855
aF0.93711
aF0.93454000000000004
aF0.93655999999999995
aF0.93667
aF0.93220999999999998
aF0.93535999999999997
aF0.92161000000000004
aF0.93500000000000005
aF0.93759000000000003
aF0.93784999999999996
aF0.87463000000000002
aF0.92107000000000006
aF0.93140999999999996
aF0.93933
aF0.91735
aF0.93645999999999996
aF0.93732000000000004
aF0.92244000000000004
aF0.87463000000000002
aF0.93803000000000003
aF0.93886000000000003
aF0.92930999999999997
aF0.93259000000000003
aF0.90444999999999998
aF0.93140999999999996
aF0.88602999999999998
aF0.88441999999999998
aF0.93454000000000004
aF0.93593000000000004
aF0.87841999999999998
aF0.93622000000000005
aF0.92930999999999997
aF0.93259000000000003
aF0.84597
aF0.93140999999999996
aF0.93664999999999998
aF0.93711
aF0.90539000000000003
aF0.93613000000000002
aF0.94123999999999997
aF0.90395000000000003
aF0.90864
aF0.92369000000000001
aF0.92479
aF0.93342000000000003
aF0.93732000000000004
aF0.94094
aF0.93933
aF0.93886000000000003
aF0.93855
aF0.92930999999999997
aF0.93459999999999999
aF0.87619999999999998
aF0.93732000000000004
aF0.93437000000000003
aF0.93420000000000003
aF0.91735
aF0.90822000000000003
aF0.93593000000000004
aF0.93738999999999995
aF0.93711
aF0.93454000000000004
aF0.91271000000000002
aF0.92161000000000004
aF0.93345999999999996
aF0.93759000000000003
aF0.93593000000000004
aF0.93759000000000003
aF0.93667
aF0.93045
aF0.93645999999999996
aF0.93833999999999995
aF0.93708000000000002
aF0.93345999999999996
aF0.93655999999999995
aF0.93825000000000003
aF0.93454000000000004
aF0.93655999999999995
aF0.93394999999999995
aF0.93345999999999996
aF0.93759000000000003
aF0.93593000000000004
aF0.93259000000000003
aF0.87356999999999996
aF0.93469999999999998
aF0.88446000000000002
aF0.93593000000000004
aF0.93955
aF0.93711
aF0.93655999999999995
aF0.93886000000000003
aF0.94123999999999997
aF0.87843000000000004
aF0.91507000000000005
aF0.92107000000000006
aF0.90798999999999996
aF0.90739000000000003
aF0.92107000000000006
aF0.93833999999999995
aF0.93633999999999995
aF0.92479
aF0.93537999999999999
aF0.88129999999999997
aF0.93879999999999997
aF0.92930999999999997
aF0.93259000000000003
aF0.93593000000000004
aF0.93220999999999998
aF0.91766000000000003
aF0.92479
aF0.93140999999999996
aF0.93759000000000003
aF0.93708000000000002
aF0.93500000000000005
aF0.93259000000000003
aF0.93501999999999996
aF0.90864
aF0.91766000000000003
aF0.79237000000000002
aF0.93140999999999996
aF0.93259000000000003
aF0.93593000000000004
aF0.92930999999999997
aF0.93259000000000003
aF0.93689999999999996
aF0.93459999999999999
aF0.93394999999999995
aF0.93711
aF0.92930999999999997
aF0.93593000000000004
aF0.93711
aF0.93140999999999996
aF0.93459999999999999
aF0.93886000000000003
aF0.93655999999999995
aF0.93784999999999996
aF0.93738999999999995
aF0.93345999999999996
aF0.93803000000000003
aF0.93784999999999996
aF0.80069000000000001
aF0.78222999999999998
aF0.78425
aF0.79576000000000002
aF0.78425
aF0.78944999999999999
aF0.79020999999999997
aF0.79723999999999995
aF0.77095999999999998
aF0.79554999999999998
aF0.74644999999999995
aF0.71528999999999998
aF0.80079
aF0.69852000000000003
aF0.64439999999999997
aF0.74029
aF0.77403
aF0.80879999999999996
aF0.67430999999999996
aF0.74019999999999997
aF0.79079999999999995
aF0.79290000000000005
aF0.79757999999999996
aF0.67869000000000002
aF0.79834000000000005
aF0.79757999999999996
aF0.80373000000000006
aF0.63705999999999996
aF0.63009000000000004
aF0.63344
aF0.80569000000000002
aF0.74592999999999998
aF0.42381000000000002
aF0.66593999999999998
aF0.43237999999999999
aF0.78761999999999999
aF0.78747
aF0.78254999999999997
aF0.80079
aF0.81481999999999999
aF0.53598000000000001
aF0.79224000000000006
aF0.77707999999999999
aF0.73277000000000003
aF0.67869000000000002
aF0.79052999999999995
aF0.80203999999999998
aF0.78520000000000001
aF0.64281999999999995
aF0.63009000000000004
aF0.66264999999999996
aF0.66825000000000001
aF0.69306000000000001
aF0.78520000000000001
aF0.78425
aF0.74029
aF0.65769
aF0.79079999999999995
aF0.79834000000000005
aF0.78520000000000001
aF0.57264000000000004
aF0.78222999999999998
aF0.78254999999999997
aF0.77095999999999998
aF0.72302
aF0.66237999999999997
aF0.78927000000000003
aF0.68825000000000003
aF0.80356000000000005
aF0.78254999999999997
aF0.50792000000000004
aF0.79368000000000005
aF0.56860999999999995
aF0.78222999999999998
aF0.79052999999999995
aF0.77880000000000005
aF0.78747
aF0.81344000000000005
aF0.79554999999999998
aF0.80879999999999996
aF0.78646000000000005
aF0.67396
aF0.78254999999999997
aF0.65444999999999998
aF0.79290000000000005
aF0.80079
aF0.80474000000000001
aF0.78090999999999999
aF0.80069000000000001
aF0.80373000000000006
aF0.79110999999999998
aF0.78761999999999999
aF0.78761999999999999
aF0.80569000000000002
aF0.72057000000000004
aF0.69588000000000005
aF0.80373000000000006
aF0.80715000000000003
aF0.60511000000000004
aF0.67232000000000003
aF0.78520000000000001
aF0.79020999999999997
aF0.78254999999999997
aF0.79554999999999998
aF0.79554999999999998
aF0.78520000000000001
aF0.77880000000000005
aF0.78761999999999999
aF0.52178999999999998
aF0.70670999999999995
aF0.74173
aF0.79551000000000005
aF0.79920000000000002
aF0.78793000000000002
aF0.78646000000000005
asS'yes'
p15
(lp16
F0.88546000000000002
aF0.90864
aF0.91735
aF0.92930999999999997
aF0.93759000000000003
aF0.92479
aF0.93220999999999998
aF0.93535999999999997
aF0.93633999999999995
aF0.93537999999999999
aF0.93825000000000003
aF0.93496000000000001
aF0.92781999999999998
aF0.93259000000000003
aF0.91486000000000001
aF0.93259000000000003
aF0.93593000000000004
aF0.93664999999999998
aF0.93459999999999999
aF0.93593000000000004
aF0.93469999999999998
aF0.93459999999999999
aF0.93593000000000004
aF0.93855
aF0.93542000000000003
aF0.93732000000000004
aF0.93633999999999995
aF0.91130999999999995
aF0.91735
aF0.93140999999999996
aF0.93655999999999995
aF0.93096000000000001
aF0.93140999999999996
aF0.93655999999999995
aF0.93784999999999996
aF0.93645999999999996
aF0.92506999999999995
aF0.93879999999999997
aF0.93459999999999999
aF0.93784999999999996
aF0.93664999999999998
aF0.93345999999999996
aF0.93655999999999995
aF0.93593000000000004
aF0.92930999999999997
aF0.93459999999999999
aF0.93886000000000003
aF0.93140999999999996
aF0.93759000000000003
aF0.93469999999999998
aF0.93759000000000003
aF0.93784999999999996
aF0.93738999999999995
aF0.93140999999999996
aF0.93655999999999995
aF0.93593000000000004
aF0.93140999999999996
aF0.93535999999999997
aF0.93664999999999998
aF0.93345999999999996
aF0.93655999999999995
aF0.89964999999999995
aF0.93542000000000003
aF0.91735
aF0.92617000000000005
aF0.93345999999999996
aF0.93459999999999999
aF0.88058000000000003
aF0.93220999999999998
aF0.93803000000000003
aF0.93593000000000004
aF0.93454000000000004
aF0.93655999999999995
aF0.93784999999999996
aF0.92930999999999997
aF0.93067999999999995
aF0.93593000000000004
aF0.93501999999999996
aF0.93469999999999998
aF0.93998999999999999
aF0.93500000000000005
aF0.93803000000000003
aF0.93825000000000003
aF0.93454000000000004
aF0.90864
aF0.90444999999999998
aF0.93655999999999995
aF0.93593000000000004
aF0.92451000000000005
aF0.93140999999999996
aF0.93259000000000003
aF0.93593000000000004
aF0.93259000000000003
aF0.93537999999999999
aF0.93437000000000003
aF0.93689999999999996
aF0.87592999999999999
aF0.89454
aF0.90444999999999998
aF0.93459999999999999
aF0.93784999999999996
aF0.92310000000000003
aF0.93655999999999995
aF0.93886000000000003
aF0.94123999999999997
aF0.88871
aF0.91130999999999995
aF0.90254999999999996
aF0.93140999999999996
aF0.93655999999999995
aF0.93593000000000004
aF0.88871
aF0.91979
aF0.92451000000000005
aF0.90666999999999998
aF0.93459999999999999
aF0.93633999999999995
aF0.93537999999999999
aF0.93925000000000003
aF0.93979999999999997
aF0.79357
aF0.82935999999999999
aF0.85319999999999996
aF0.80123999999999995
aF0.82935999999999999
aF0.82404999999999995
aF0.87309000000000003
aF0.87712000000000001
aF0.87536999999999998
aF0.87888999999999995
aF0.87450000000000006
aF0.87785000000000002
aF0.86733000000000005
aF0.87473999999999996
aF0.86822999999999995
aF0.93140999999999996
aF0.93459999999999999
aF0.93593000000000004
aF0.93045
aF0.93459999999999999
aF0.93501999999999996
aF0.93345999999999996
aF0.93459999999999999
aF0.91486000000000001
aF0.93454000000000004
aF0.93655999999999995
aF0.93208000000000002
aF0.89641000000000004
aF0.90868000000000004
aF0.92930999999999997
aF0.86570999999999998
aF0.93784999999999996
aF0.90864
aF0.84597
aF0.92571999999999999
aF0.93345999999999996
aF0.93459999999999999
aF0.93394999999999995
aF0.90610000000000002
aF0.91271000000000002
aF0.92107000000000006
aF0.92571999999999999
aF0.93833999999999995
aF0.93967999999999996
aF0.93979999999999997
aF0.91439999999999999
aF0.93803000000000003
aF0.86792000000000002
aF0.93459999999999999
aF0.93593000000000004
aF0.93738999999999995
aF0.90108999999999995
aF0.91469999999999996
aF0.89088999999999996
aF0.92930999999999997
aF0.88024000000000002
aF0.91735
aF0.90968000000000004
aF0.84855999999999998
aF0.92220999999999997
aF0.93342000000000003
aF0.93613000000000002
aF0.93708000000000002
aF0.86904000000000003
aF0.93759000000000003
aF0.93593000000000004
aF0.91757999999999995
aF0.91735
aF0.8931
aF0.89668000000000003
aF0.90822000000000003
aF0.85163999999999995
aF0.87473999999999996
aF0.85079000000000005
aF0.87826000000000004
aF0.71196000000000004
aF0.88185000000000002
aF0.79601
aF0.83391000000000004
aF0.84597
aF0.87463000000000002
aF0.88012000000000001
aF0.88058000000000003
aF0.86904000000000003
aF0.87473999999999996
aF0.82223000000000002
aF0.79601
aF0.82721999999999996
aF0.84433000000000002
aF0.87611000000000006
aF0.88241000000000003
aF0.82648999999999995
aF0.86904000000000003
aF0.87473999999999996
aF0.78691
aF0.93823000000000001
aF0.92420999999999998
aF0.92617000000000005
aF0.88993999999999995
aF0.91130999999999995
aF0.91979
aF0.93500000000000005
aF0.92218
aF0.89281999999999995
aF0.93459999999999999
aF0.93394999999999995
aF0.93664999999999998
aF0.87782000000000004
aF0.87822
aF0.88966999999999996
aF0.91652999999999996
aF0.93459999999999999
aF0.93886000000000003
aF0.89188999999999996
aF0.91271000000000002
aF0.91979
aF0.87592999999999999
aF0.89022000000000001
aF0.88966999999999996
aF0.93140999999999996
aF0.93759000000000003
aF0.82160999999999995
aF0.9022
aF0.91271000000000002
aF0.91469999999999996
aF0.92008999999999996
aF0.93459999999999999
aF0.90861999999999998
aF0.91657999999999995
aF0.93045
aF0.87114000000000003
aF0.87160000000000004
aF0.90937999999999997
aF0.93784999999999996
aF0.93738999999999995
aF0.93140999999999996
aF0.93459999999999999
aF0.93394999999999995
aF0.93345999999999996
aF0.93876999999999999
aF0.93855
aF0.89180999999999999
aF0.91469999999999996
aF0.90159999999999996
aF0.93140999999999996
aF0.93759000000000003
aF0.91761000000000004
aF0.93140999999999996
aF0.93708000000000002
aF0.93764000000000003
aF0.93140999999999996
aF0.93259000000000003
aF0.90373999999999999
aF0.93140999999999996
aF0.90739000000000003
aF0.92161000000000004
aF0.93454000000000004
aF0.93655999999999995
aF0.90254999999999996
aF0.93140999999999996
aF0.93784999999999996
aF0.92623999999999995
aF0.93933
aF0.92107000000000006
aF0.91088999999999998
aF0.93454000000000004
aF0.93759000000000003
aF0.88819999999999999
aF0.93220999999999998
aF0.93759000000000003
aF0.93394999999999995
aF0.93140999999999996
aF0.93459999999999999
aF0.93501999999999996
aF0.93140999999999996
aF0.93339000000000005
aF0.93708000000000002
aF0.92930999999999997
aF0.90864
aF0.91979
aF0.93459999999999999
aF0.93886000000000003
aF0.93955
aF0.93542000000000003
aF0.93394999999999995
aF0.92544000000000004
aF0.93711
aF0.93454000000000004
aF0.71870999999999996
aF0.88058000000000003
aF0.93345999999999996
aF0.92107000000000006
aF0.92776000000000003
aF0.93045
aF0.91171000000000002
aF0.93208000000000002
aF0.93469999999999998
aF0.93500000000000005
aF0.93759000000000003
aF0.93394999999999995
aF0.93459999999999999
aF0.93593000000000004
aF0.93738999999999995
aF0.86529999999999996
aF0.93784999999999996
aF0.92451000000000005
aF0.90395000000000003
aF0.92369000000000001
aF0.92735000000000001
aF0.93220999999999998
aF0.93459999999999999
aF0.93667
aF0.93140999999999996
aF0.93459999999999999
aF0.93664999999999998
aF0.93655999999999995
aF0.93593000000000004
aF0.93855
aF0.93342000000000003
aF0.93593000000000004
aF0.94123999999999997
aF0.93454000000000004
aF0.93803000000000003
aF0.94055999999999995
aF0.92730999999999997
aF0.93664999999999998
aF0.93899999999999995
aF0.82955999999999996
aF0.87309000000000003
aF0.81415999999999999
aF0.87114000000000003
aF0.88241000000000003
aF0.87290000000000001
aF0.87046000000000001
aF0.87611000000000006
aF0.84714999999999996
aF0.79601
aF0.83111999999999997
aF0.81903000000000004
aF0.87004000000000004
aF0.87182999999999999
aF0.87536999999999998
aF0.87473999999999996
aF0.87548999999999999
aF0.87680999999999998
aF0.93593000000000004
aF0.93664999999999998
aF0.93711
aF0.92730999999999997
aF0.93459999999999999
aF0.93593000000000004
aF0.93635000000000002
aF0.94094
aF0.93140999999999996
aF0.93655999999999995
aF0.93593000000000004
aF0.88871
aF0.90968000000000004
aF0.91486000000000001
aF0.93345999999999996
aF0.93759000000000003
aF0.87021999999999999
aF0.92930999999999997
aF0.93259000000000003
aF0.92220999999999997
aF0.93140999999999996
aF0.93067999999999995
aF0.92966000000000004
aF0.93447000000000002
aF0.93879999999999997
aF0.93345999999999996
aF0.93759000000000003
aF0.93886000000000003
aF0.93454000000000004
aF0.93459999999999999
aF0.92159999999999997
aF0.90968000000000004
aF0.91979
aF0.93691000000000002
aF0.93732000000000004
aF0.93708000000000002
aF0.92154999999999998
aF0.93593000000000004
aF0.90822000000000003
aF0.93140999999999996
aF0.93535999999999997
aF0.93928999999999996
aF0.90864
aF0.92107000000000006
aF0.92571999999999999
aF0.93454000000000004
aF0.93537999999999999
aF0.93645999999999996
aF0.93501999999999996
aF0.93855
aF0.85924999999999996
aF0.88802999999999999
aF0.89964999999999995
aF0.93140999999999996
aF0.93459999999999999
aF0.93501999999999996
aF0.93140999999999996
aF0.93655999999999995
aF0.92369000000000001
aF0.93459999999999999
aF0.87490999999999997
aF0.87575000000000003
aF0.93220999999999998
aF0.93459999999999999
aF0.93496000000000001
aF0.93613000000000002
aF0.93544000000000005
aF0.93879999999999997
aF0.93140999999999996
aF0.93459999999999999
aF0.93667
aF0.93759000000000003
aF0.93394999999999995
aF0.93664999999999998
aF0.92930999999999997
aF0.93459999999999999
aF0.93784999999999996
aF0.93345999999999996
aF0.93655999999999995
aF0.93928999999999996
aF0.93345999999999996
aF0.93759000000000003
aF0.93925000000000003
aF0.93454000000000004
aF0.93655999999999995
aF0.93593000000000004
aF0.93140999999999996
aF0.93933
aF0.93784999999999996
aF0.89356000000000002
aF0.84462999999999999
aF0.87355000000000005
aF0.93140999999999996
aF0.93259000000000003
aF0.93593000000000004
aF0.90864
aF0.91979
aF0.92451000000000005
aF0.93140999999999996
aF0.93803000000000003
aF0.93886000000000003
aF0.93759000000000003
aF0.93955
aF0.93516999999999995
aF0.88012000000000001
aF0.93732000000000004
aF0.92451000000000005
aF0.93345999999999996
aF0.93803000000000003
aF0.91979
aF0.93220999999999998
aF0.93535999999999997
aF0.91308999999999996
aF0.93140999999999996
aF0.93535999999999997
aF0.92107000000000006
aF0.92930999999999997
aF0.93459999999999999
aF0.93593000000000004
aF0.93420000000000003
aF0.93833999999999995
aF0.93664999999999998
aF0.93140999999999996
aF0.93459999999999999
aF0.93886000000000003
aF0.93140999999999996
aF0.93759000000000003
aF0.93784999999999996
aF0.93784999999999996
aF0.93664999999999998
aF0.93784000000000001
aF0.93345999999999996
aF0.93655999999999995
aF0.92369000000000001
aF0.93645999999999996
aF0.93759000000000003
aF0.93784999999999996
aF0.90108999999999995
aF0.91625000000000001
aF0.92244000000000004
aF0.93345999999999996
aF0.93759000000000003
aF0.93593000000000004
aF0.92930999999999997
aF0.87309000000000003
aF0.87356999999999996
aF0.91757999999999995
aF0.92369000000000001
aF0.91808999999999996
aF0.93140999999999996
aF0.93655999999999995
aF0.93667
aF0.91271000000000002
aF0.91979
aF0.92571999999999999
aF0.93454000000000004
aF0.89336000000000004
aF0.90551999999999999
aF0.91757999999999995
aF0.92244000000000004
aF0.92935000000000001
aF0.93140999999999996
aF0.89749000000000001
aF0.91735
aF0.92730999999999997
aF0.90864
aF0.90944999999999998
aF0.93459999999999999
aF0.93593000000000004
aF0.93689999999999996
aF0.93454000000000004
aF0.90864
aF0.91979
aF0.93454000000000004
aF0.93655999999999995
aF0.91979
aF0.93149999999999999
aF0.91595000000000004
aF0.9194
aF0.87961999999999996
aF0.87712000000000001
aF0.82648999999999995
aF0.86265000000000003
aF0.87611000000000006
aF0.81188000000000005
aF0.87473999999999996
aF0.87356999999999996
aF0.87841999999999998
aF0.93140999999999996
aF0.93259000000000003
aF0.87129999999999996
aF0.92930999999999997
aF0.93259000000000003
aF0.93072999999999995
aF0.93500000000000005
aF0.90739000000000003
aF0.90159999999999996
aF0.93220999999999998
aF0.90968000000000004
aF0.92107000000000006
aF0.93220999999999998
aF0.93535999999999997
aF0.93667
aF0.93459999999999999
aF0.93593000000000004
aF0.93998000000000004
aF0.93140999999999996
aF0.90864
aF0.91735
aF0.88546000000000002
aF0.91112000000000004
aF0.91486000000000001
aF0.92220999999999997
aF0.93454000000000004
aF0.93535999999999997
aF0.94055999999999995
aF0.93933
aF0.93928999999999996
aF0.94123999999999997
aF0.89802999999999999
aF0.90254999999999996
aF0.90868000000000004
aF0.88802999999999999
aF0.89802999999999999
aF0.90159999999999996
aF0.93140999999999996
aF0.93655999999999995
aF0.93593000000000004
aF0.93500000000000005
aF0.93655999999999995
aF0.93784999999999996
aF0.93459999999999999
aF0.93437000000000003
aF0.93310999999999999
aF0.93259000000000003
aF0.93784999999999996
aF0.93284
aF0.93454000000000004
aF0.90332000000000001
aF0.90715999999999997
aF0.93886000000000003
aF0.93955
aF0.93998999999999999
aF0.93655999999999995
aF0.93784999999999996
aF0.93855
aF0.88546000000000002
aF0.86721999999999999
aF0.86414999999999997
aF0.93220999999999998
aF0.93732000000000004
aF0.93633999999999995
aF0.93764000000000003
aF0.93345999999999996
aF0.93459999999999999
aF0.93955
aF0.93998999999999999
aF0.92930999999999997
aF0.93459999999999999
aF0.93664999999999998
aF0.87019000000000002
aF0.91130999999999995
aF0.92107000000000006
aF0.93137999999999999
aF0.93339000000000005
aF0.93469999999999998
aF0.93655999999999995
aF0.93537999999999999
aF0.93394999999999995
aF0.93454000000000004
aF0.93655999999999995
aF0.93886000000000003
aF0.92474000000000001
aF0.93459999999999999
aF0.93593000000000004
aF0.93345999999999996
aF0.93655999999999995
aF0.92244000000000004
aF0.93140999999999996
aF0.93655999999999995
aF0.93593000000000004
aF0.90864
aF0.91735
aF0.91088999999999998
aF0.87463000000000002
aF0.87612999999999996
aF0.87785000000000002
aF0.78408999999999995
aF0.81188000000000005
aF0.83040000000000003
aF0.87270000000000003
aF0.87612999999999996
aF0.88229000000000002
aF0.86719000000000002
aF0.87624000000000002
aF0.85172000000000003
aF0.87548999999999999
aF0.86961999999999995
aF0.87765000000000004
aF0.82935999999999999
aF0.84235000000000004
aF0.85895999999999995
aF0.86529999999999996
aF0.87611000000000006
aF0.87846000000000002
aF0.87046000000000001
aF0.88012000000000001
aF0.88548000000000004
aF0.93140999999999996
aF0.93759000000000003
aF0.91735
aF0.90864
aF0.92008999999999996
aF0.92391000000000001
aF0.88871
aF0.83733999999999997
aF0.84433000000000002
aF0.93140999999999996
aF0.93655999999999995
aF0.93667
aF0.93140999999999996
aF0.93259000000000003
aF0.93633999999999995
aF0.93454000000000004
aF0.93459999999999999
aF0.93394999999999995
aF0.79601
aF0.9022
aF0.90864
aF0.91935
aF0.92822000000000005
aF0.93593000000000004
aF0.93537999999999999
aF0.93437000000000003
aF0.92391000000000001
aF0.93140999999999996
aF0.93535999999999997
aF0.90159999999999996
aF0.93459999999999999
aF0.90944999999999998
aF0.92451000000000005
aF0.93220999999999998
aF0.93459999999999999
aF0.93825000000000003
aF0.93140999999999996
aF0.93459999999999999
aF0.93825000000000003
aF0.93345999999999996
aF0.93655999999999995
aF0.93784999999999996
aF0.93454000000000004
aF0.93535999999999997
aF0.93593000000000004
aF0.93345999999999996
aF0.93459999999999999
aF0.93784999999999996
aF0.93220999999999998
aF0.93655999999999995
aF0.93667
aF0.87256
aF0.87785000000000002
aF0.93689999999999996
aF0.93140999999999996
aF0.93759000000000003
aF0.91486000000000001
aF0.92730999999999997
aF0.91486000000000001
aF0.91473000000000004
aF0.93500000000000005
aF0.94123999999999997
aF0.93998999999999999
aF0.93886000000000003
aF0.93955
aF0.93899999999999995
aF0.93345999999999996
aF0.88978999999999997
aF0.90444999999999998
aF0.93220999999999998
aF0.93367999999999995
aF0.93784999999999996
aF0.93454000000000004
aF0.93537999999999999
aF0.93689999999999996
aF0.87782000000000004
aF0.88644999999999996
aF0.90666999999999998
aF0.93259000000000003
aF0.89546000000000003
aF0.92930999999999997
aF0.93394999999999995
aF0.93955
aF0.93759000000000003
aF0.93886000000000003
aF0.93855
aF0.93454000000000004
aF0.93759000000000003
aF0.93667
aF0.93345999999999996
aF0.90864
aF0.91979
aF0.93535999999999997
aF0.93593000000000004
aF0.93955
aF0.93140999999999996
aF0.93459999999999999
aF0.93667
aF0.93140999999999996
aF0.93784999999999996
aF0.93955
aF0.93140999999999996
aF0.93459999999999999
aF0.93394999999999995
aF0.93537999999999999
aF0.93633999999999995
aF0.93310999999999999
aF0.93925000000000003
aF0.93664999999999998
aF0.93711
aF0.91371999999999998
aF0.92100000000000004
aF0.92479
aF0.92730999999999997
aF0.93437000000000003
aF0.92935000000000001
aF0.93140999999999996
aF0.91757999999999995
aF0.92576999999999998
aF0.93220999999999998
aF0.93259000000000003
aF0.89964999999999995
aF0.93454000000000004
aF0.93537999999999999
aF0.93825000000000003
aF0.93140999999999996
aF0.93537999999999999
aF0.93633999999999995
aF0.93259000000000003
aF0.87712000000000001
aF0.93955
aF0.93542000000000003
aF0.93537999999999999
aF0.93708000000000002
aF0.93140999999999996
aF0.93339000000000005
aF0.90868000000000004
aF0.93454000000000004
aF0.92305999999999999
aF0.93593000000000004
aF0.93635000000000002
aF0.93933
aF0.93886000000000003
aF0.93140999999999996
aF0.93593000000000004
aF0.93784000000000001
aF0.93459999999999999
aF0.93593000000000004
aF0.93664999999999998
aF0.93542000000000003
aF0.91449999999999998
aF0.93825000000000003
aF0.93345999999999996
aF0.93933
aF0.91249000000000002
aF0.92244000000000004
aF0.86184000000000005
aF0.91507000000000005
aF0.91979
aF0.85279000000000005
aF0.93437000000000003
aF0.87490999999999997
aF0.87244999999999995
aF0.93220999999999998
aF0.93459999999999999
aF0.93593000000000004
aF0.92730999999999997
aF0.87473999999999996
aF0.93394999999999995
aF0.93496000000000001
aF0.87463000000000002
aF0.87309000000000003
aF0.84855999999999998
aF0.86733000000000005
aF0.83631999999999995
aF0.82160999999999995
aF0.79803999999999997
aF0.82394000000000001
aF0.83974000000000004
aF0.82471000000000005
aF0.84001000000000003
aF0.82396999999999998
aF0.87270000000000003
aF0.88012000000000001
aF0.88241000000000003
aF0.93667
aF0.93469999999999998
aF0.93711
aF0.93454000000000004
aF0.93535999999999997
aF0.93886000000000003
aF0.93500000000000005
aF0.93459999999999999
aF0.93784999999999996
aF0.93459999999999999
aF0.93886000000000003
aF0.88185000000000002
aF0.93345999999999996
aF0.93535999999999997
aF0.93593000000000004
aF0.93345999999999996
aF0.91979
aF0.88615999999999995
aF0.93833999999999995
aF0.93925000000000003
aF0.93979999999999997
aF0.93220999999999998
aF0.93655999999999995
aF0.93784999999999996
aF0.93342000000000003
aF0.93732000000000004
aF0.93633999999999995
aF0.93542000000000003
aF0.93833999999999995
aF0.93925000000000003
aF0.92930999999999997
aF0.93259000000000003
aF0.93886000000000003
aF0.93149999999999999
aF0.93250999999999995
aF0.93072999999999995
aF0.93537999999999999
aF0.92369000000000001
aF0.92617000000000005
aF0.91130999999999995
aF0.91735
aF0.93342000000000003
aF0.91595000000000004
aF0.93454000000000004
aF0.93633999999999995
aF0.93879999999999997
aF0.91130999999999995
aF0.91830000000000001
aF0.92479
aF0.93345999999999996
aF0.93655999999999995
aF0.93886000000000003
aF0.93759000000000003
aF0.93667
aF0.90547
aF0.85157000000000005
aF0.89641000000000004
aF0.88966999999999996
aF0.93220999999999998
aF0.90864
aF0.91735
aF0.93345999999999996
aF0.93803000000000003
aF0.93928999999999996
aF0.93454000000000004
aF0.93535999999999997
aF0.91830000000000001
aF0.93459999999999999
aF0.88107000000000002
aF0.93899999999999995
aF0.93140999999999996
aF0.93459999999999999
aF0.93784999999999996
aF0.93759000000000003
aF0.87712000000000001
aF0.88185000000000002
aF0.93593000000000004
aF0.93469999999999998
aF0.93998999999999999
aF0.93345999999999996
aF0.93655999999999995
aF0.94055999999999995
aF0.93655999999999995
aF0.93886000000000003
aF0.93998000000000004
aF0.93259000000000003
aF0.93593000000000004
aF0.93855
aF0.93345999999999996
aF0.93759000000000003
aF0.93633999999999995
aF0.93045
aF0.93367999999999995
aF0.93394999999999995
aF0.93469999999999998
aF0.93833999999999995
aF0.93708000000000002
aF0.93784000000000001
aF0.93140999999999996
aF0.93655999999999995
aF0.93886000000000003
aF0.93345999999999996
aF0.94055999999999995
aF0.92571999999999999
aF0.93537999999999999
aF0.93925000000000003
aF0.93979999999999997
aF0.93655999999999995
aF0.93613000000000002
aF0.93825000000000003
aF0.92391000000000001
aF0.93454000000000004
aF0.93535999999999997
aF0.93886000000000003
aF0.93345999999999996
aF0.93501999999999996
aF0.93664999999999998
aF0.93645999999999996
aF0.93613000000000002
aF0.82569000000000004
aF0.91935
aF0.90864
aF0.89281999999999995
aF0.93459999999999999
aF0.93593000000000004
aF0.82862999999999998
aF0.92930999999999997
aF0.93738999999999995
aF0.93516999999999995
aF0.93759000000000003
aF0.93784999999999996
aF0.94123999999999997
aF0.93500000000000005
aF0.93593000000000004
aF0.93738999999999995
aF0.93535999999999997
aF0.93784999999999996
aF0.93738999999999995
aF0.93345999999999996
aF0.93655999999999995
aF0.93689999999999996
aF0.93140999999999996
aF0.93655999999999995
aF0.93394999999999995
aF0.87270000000000003
aF0.93759000000000003
aF0.94094
aF0.93542000000000003
aF0.93833999999999995
aF0.93437000000000003
aF0.93855
aF0.93784000000000001
aF0.92930999999999997
aF0.93535999999999997
aF0.93955
aF0.93220999999999998
aF0.93459999999999999
aF0.93593000000000004
aF0.93140999999999996
aF0.93655999999999995
aF0.93593000000000004
aF0.86904000000000003
aF0.93259000000000003
aF0.87846000000000002
aF0.93635000000000002
aF0.93535999999999997
aF0.93886000000000003
aF0.93220999999999998
aF0.93655999999999995
aF0.93928999999999996
aF0.90108999999999995
aF0.90076999999999996
aF0.91088999999999998
aF0.92930999999999997
aF0.93067999999999995
aF0.90159999999999996
aF0.93220999999999998
aF0.93459999999999999
aF0.93784999999999996
aF0.93345999999999996
aF0.93459999999999999
aF0.93667
aF0.93345999999999996
aF0.93535999999999997
aF0.93886000000000003
aF0.93454000000000004
aF0.93803000000000003
aF0.93784999999999996
aF0.93345999999999996
aF0.93459999999999999
aF0.92220999999999997
aF0.93045
aF0.93259000000000003
aF0.93886000000000003
aF0.87712000000000001
aF0.93664999999999998
aF0.93711
aF0.89815
aF0.90407999999999999
aF0.91088999999999998
aF0.93928999999999996
aF0.93955
aF0.93345999999999996
aF0.93459999999999999
aF0.93886000000000003
aF0.93345999999999996
aF0.93759000000000003
aF0.94055999999999995
aF0.93928999999999996
aF0.92451000000000005
aF0.93459999999999999
aF0.93593000000000004
aF0.93955
aF0.93140999999999996
aF0.93759000000000003
aF0.93886000000000003
aF0.93220999999999998
aF0.93759000000000003
aF0.93667
aF0.93394999999999995
aF0.93664999999999998
aF0.93784000000000001
aF0.93613000000000002
aF0.93825000000000003
aF0.92735000000000001
aF0.92930999999999997
aF0.91486000000000001
aF0.90822000000000003
aF0.93140999999999996
aF0.91271000000000002
aF0.91979
aF0.93645999999999996
aF0.83359000000000005
aF0.92008999999999996
aF0.90864
aF0.91735
aF0.92391000000000001
aF0.93345999999999996
aF0.93535999999999997
aF0.93593000000000004
aF0.93345999999999996
aF0.91130999999999995
aF0.85079000000000005
aF0.91088999999999998
aF0.93500000000000005
aF0.93933
aF0.94055999999999995
aF0.93759000000000003
aF0.93667
aF0.93855
aF0.93711
aF0.93454000000000004
aF0.93655999999999995
aF0.93667
aF0.93220999999999998
aF0.93535999999999997
aF0.92161000000000004
aF0.93500000000000005
aF0.93759000000000003
aF0.93784999999999996
aF0.87463000000000002
aF0.92107000000000006
aF0.93140999999999996
aF0.93933
aF0.91735
aF0.93645999999999996
aF0.93732000000000004
aF0.92244000000000004
aF0.87463000000000002
aF0.93803000000000003
aF0.93886000000000003
aF0.92930999999999997
aF0.93259000000000003
aF0.90444999999999998
aF0.93140999999999996
aF0.88602999999999998
aF0.88441999999999998
aF0.93454000000000004
aF0.93593000000000004
aF0.87841999999999998
aF0.93622000000000005
aF0.92930999999999997
aF0.93259000000000003
aF0.84597
aF0.93140999999999996
aF0.93664999999999998
aF0.93711
aF0.90539000000000003
aF0.93613000000000002
aF0.94123999999999997
aF0.90395000000000003
aF0.90864
aF0.92369000000000001
aF0.92479
aF0.93342000000000003
aF0.93732000000000004
aF0.94094
aF0.93933
aF0.93886000000000003
aF0.93855
aF0.92930999999999997
aF0.93459999999999999
aF0.87619999999999998
aF0.93732000000000004
aF0.93437000000000003
aF0.93420000000000003
aF0.91735
aF0.90822000000000003
aF0.93593000000000004
aF0.93738999999999995
aF0.93711
aF0.93454000000000004
aF0.91271000000000002
aF0.92161000000000004
aF0.93345999999999996
aF0.93759000000000003
aF0.93593000000000004
aF0.93759000000000003
aF0.93667
aF0.93045
aF0.93645999999999996
aF0.93833999999999995
aF0.93708000000000002
aF0.93345999999999996
aF0.93655999999999995
aF0.93825000000000003
aF0.93454000000000004
aF0.93655999999999995
aF0.93394999999999995
aF0.93345999999999996
aF0.93759000000000003
aF0.93593000000000004
aF0.93259000000000003
aF0.87356999999999996
aF0.93469999999999998
aF0.88446000000000002
aF0.93593000000000004
aF0.93955
aF0.93711
aF0.93655999999999995
aF0.93886000000000003
aF0.94123999999999997
aF0.87843000000000004
aF0.91507000000000005
aF0.92107000000000006
aF0.90798999999999996
aF0.90739000000000003
aF0.92107000000000006
aF0.93833999999999995
aF0.93633999999999995
aF0.92479
aF0.93537999999999999
aF0.88129999999999997
aF0.93879999999999997
aF0.92930999999999997
aF0.93259000000000003
aF0.93593000000000004
aF0.93220999999999998
aF0.91766000000000003
aF0.92479
aF0.93140999999999996
aF0.93759000000000003
aF0.93708000000000002
aF0.93500000000000005
aF0.93259000000000003
aF0.93501999999999996
aF0.90864
aF0.91766000000000003
aF0.79237000000000002
aF0.93140999999999996
aF0.93259000000000003
aF0.93593000000000004
aF0.92930999999999997
aF0.93259000000000003
aF0.93689999999999996
aF0.93459999999999999
aF0.93394999999999995
aF0.93711
aF0.92930999999999997
aF0.93593000000000004
aF0.93711
aF0.93140999999999996
aF0.93459999999999999
aF0.93886000000000003
aF0.93655999999999995
aF0.93784999999999996
aF0.93738999999999995
aF0.93345999999999996
aF0.93803000000000003
aF0.93784999999999996
asS'total'
p17
(lp18
F0.61150000000000004
aF0.45661000000000002
aF0.59955999999999998
aF0.53069
aF0.52883000000000002
aF0.61506000000000005
aF0.52883000000000002
aF0.45661000000000002
aF0.54064000000000001
aF0.58809999999999996
aF0.45661000000000002
aF0.441
aF0.63744999999999996
aF0.62214000000000003
aF0.62624000000000002
aF0.45289000000000001
aF0.48115000000000002
aF0.59972000000000003
aF0.83657999999999999
aF0.62873999999999997
aF0.61682999999999999
aF0.62214000000000003
aF0.58809999999999996
aF0.59955999999999998
aF0.2019
aF0.59955999999999998
aF0.62214000000000003
aF0.62624000000000002
aF0.64434999999999998
aF0.63032999999999995
aF0.61682999999999999
aF0.62624000000000002
aF0.61506000000000005
aF0.63266
aF0.63266
aF0.46195999999999998
aF0.63266
aF0.45202999999999999
aF0.63729000000000002
aF0.48187000000000002
aF0.17274999999999999
aF0.44029000000000001
aF0.30631000000000003
aF0.62873999999999997
aF0.63744999999999996
aF0.24962999999999999
aF0.1202
aF0.43646000000000001
aF0.58809999999999996
aF0.42671999999999999
aF0.2918
aF0.2918
aF0.30468000000000001
aF0.71179999999999999
aF0.44585000000000002
aF0.63032999999999995
aF0.61682999999999999
aF0.62624000000000002
aF0.47376000000000001
aF0.42251
aF0.53510999999999997
aF0.59955999999999998
aF0.65271000000000001
aF0.55674000000000001
aF0.48141
aF0.20488999999999999
aF0.43845000000000001
aF0.35998999999999998
aF0.62624000000000002
aF0.51698
aF0.2485
aF0.54505000000000003
aF0.14924999999999999
aF0.28360999999999997
aF0.45699000000000001
aF0.42924000000000001
aF0.29752000000000001
aF0.44029000000000001
aF0.59233999999999998
aF0.45746999999999999
aF0.61682999999999999
aF0.60750000000000004
aF0.25527
aF0.60375000000000001
aF0.065860000000000002
aF0.39422000000000001
aF0.60614000000000001
aF0.65910999999999997
aF0.46504000000000001
aF0.59955999999999998
aF0.44585000000000002
aF0.55859000000000003
aF0.78122000000000003
aF0.62624000000000002
aF0.63032999999999995
aF0.15340999999999999
aF0.62624000000000002
aF0.63266
aF0.63266
aF0.63917999999999997
aF0.62624000000000002
aF0.22739999999999999
aF0.37988
aF0.36701
aF0.84852000000000005
aF0.85541999999999996
aF0.62214000000000003
aF0.61506000000000005
aF0.84923999999999999
aF0.41821999999999998
aF0.46212999999999999
aF0.59535000000000005
aF0.57738
aF0.62624000000000002
aF0.46939999999999998
aF0.63917999999999997
aF0.44029000000000001
aF0.45451000000000003
aF0.12499
aF0.43902000000000002
aF0.47394999999999998
aF0.64651000000000003
aF0.62214000000000003
aF0.63729000000000002
aF0.61682999999999999
aF0.45746999999999999
aF0.62214000000000003
aF0.42981999999999998
aF0.62214000000000003
aF0.62624000000000002
aF0.31850000000000001
aF0.57516
aF0.61506000000000005
aF0.35421999999999998
aF0.28820000000000001
aF0.20826
aF0.62214000000000003
aF0.45289000000000001
aF0.61682999999999999
aF0.64132999999999996
aF0.43315999999999999
aF0.60614000000000001
aF0.61682999999999999
aF0.62214000000000003
aF0.45757999999999999
aF0.62624000000000002
aF0.13444
aF0.43719000000000002
aF0.35022999999999999
aF0.61682999999999999
aF0.64834999999999998
aF0.48324
aF0.46193000000000001
aF0.63032999999999995
aF0.60375000000000001
aF0.47281000000000001
aF0.62653999999999999
aF0.59955999999999998
aF0.63032999999999995
aF0.61817999999999995
aF0.59897999999999996
aF0.56491000000000002
aF0.63032999999999995
aF0.43475999999999998
aF0.39649000000000001
aF0.62624000000000002
aF0.60677000000000003
aF0.13983000000000001
aF0.52139999999999997
aF0.20619999999999999
aF0.62624000000000002
aF0.73592999999999997
aF0.84072000000000002
aF0.43845000000000001
aF0.17373
aF0.064509999999999998
aF0.46399000000000001
aF0.17383999999999999
aF0.60375000000000001
aF0.62214000000000003
aF0.62214000000000003
aF0.61107
aF0.62624000000000002
aF0.22287000000000001
aF0.47376000000000001
aF0.49453000000000003
aF0.61150000000000004
aF0.62624000000000002
aF0.43430999999999997
aF0.040770000000000001
aF0.62977000000000005
aF0.64434999999999998
aF0.14007
aF0.86099999999999999
aF0.86658999999999997
aF0.61682999999999999
aF0.45451000000000003
aF0.48560999999999999
aF0.47281000000000001
aF0.63266
aF0.47376000000000001
aF0.41022999999999998
aF0.45017000000000001
aF0.17199
aF0.2326
aF0.084959999999999994
aF0.44957999999999998
aF0.45451000000000003
aF0.46195999999999998
aF0.058869999999999999
aF0.78927000000000003
aF0.61150000000000004
aF0.46193000000000001
aF0.60614000000000001
aF0.60614000000000001
aF0.33976000000000001
aF0.63087000000000004
aF0.42920999999999998
aF0.61150000000000004
aF0.62624000000000002
aF0.62624000000000002
aF0.61682999999999999
aF0.46193000000000001
aF0.59535000000000005
aF0.21573000000000001
aF0.53956999999999999
aF0.40972999999999998
aF0.62568000000000001
aF0.63266
aF0.44829000000000002
aF0.63032999999999995
aF0.61150000000000004
aF0.61682999999999999
aF0.64834999999999998
aF0.64132999999999996
aF0.46193000000000001
aF0.59972000000000003
aF0.61506000000000005
aF0.63266
aF0.62624000000000002
aF0.63087000000000004
aF0.13667000000000001
aF0.60614000000000001
aF0.59955999999999998
aF0.58447000000000005
aF0.61682999999999999
aF0.60211999999999999
aF0.34992000000000001
aF0.59955999999999998
aF0.63266
aF0.43719000000000002
aF0.62873999999999997
aF0.61682999999999999
aF0.46195999999999998
aF0.053929999999999999
aF0.56111
aF0.58447000000000005
aF0.84923999999999999
aF0.44029000000000001
aF0.26919999999999999
aF0.35826000000000002
aF0.29553000000000001
aF0.65559000000000001
aF0.61682999999999999
aF0.45699000000000001
aF0.63917999999999997
aF0.63032999999999995
aF0.63266
aF0.65966999999999998
aF0.43719000000000002
aF0.62624000000000002
aF0.42924000000000001
aF0.61506000000000005
aF0.54069999999999996
aF0.61682999999999999
aF0.63744999999999996
aF0.048559999999999999
aF0.61506000000000005
aF0.60614000000000001
aF0.61682999999999999
aF0.61521999999999999
aF0.62624000000000002
aF0.39795999999999998
aF0.65559000000000001
aF0.63032999999999995
aF0.65459999999999996
aF0.49108000000000002
aF0.63729000000000002
aF0.84072000000000002
aF0.26249
aF0.46556999999999998
aF0.46504000000000001
aF0.61682999999999999
aF0.33872000000000002
aF0.27556999999999998
aF0.43669999999999998
aF0.62214000000000003
aF0.61682999999999999
aF0.43845000000000001
aF0.62214000000000003
aF0.17838000000000001
aF0.61150000000000004
aF0.65459999999999996
aF0.60375000000000001
aF0.65910999999999997
aF0.59535000000000005
aF0.62624000000000002
aF0.43719000000000002
aF0.43719000000000002
aF0.61150000000000004
aF0.63729000000000002
aF0.44212000000000001
aF0.60614000000000001
aF0.59955999999999998
aF0.47815000000000002
aF0.46504000000000001
aF0.62624000000000002
aF0.62624000000000002
aF0.45385999999999999
aF0.14568999999999999
aF0.12325999999999999
aF0.44581999999999999
aF0.62214000000000003
aF0.13450999999999999
aF0.46406999999999998
aF0.65232999999999997
aF0.46504000000000001
aF0.62624000000000002
aF0.46556999999999998
aF0.46639999999999998
aF0.23585
aF0.59955999999999998
aF0.48026000000000002
aF0.44585000000000002
aF0.76041000000000003
aF0.36892000000000003
aF0.85326999999999997
aF0.63266
aF0.61506000000000005
aF0.62214000000000003
aF0.63266
aF0.30552000000000001
aF0.45757999999999999
aF0.30413000000000001
aF0.44829000000000002
aF0.44212000000000001
aF0.24776000000000001
aF0.61682999999999999
aF0.65559000000000001
aF0.62214000000000003
aF0.43719000000000002
aF0.48560999999999999
aF0.61682999999999999
aF0.64434999999999998
aF0.34709000000000001
aF0.13062000000000001
aF0.20988999999999999
aF0.26743
aF0.63032999999999995
aF0.61506000000000005
aF0.62214000000000003
aF0.63266
aF0.85326999999999997
aF0.71643000000000001
aF0.64834999999999998
aF0.22477
aF0.069570000000000007
aF0.61204999999999998
aF0.63087000000000004
aF0.095850000000000005
aF0.47625000000000001
aF0.61150000000000004
aF0.80059999999999998
aF0.58447000000000005
aF0.62214000000000003
aF0.36832999999999999
aF0.45385999999999999
aF0.46956999999999999
aF0.60614000000000001
aF0.77902000000000005
aF0.82901000000000002
aF0.83426
aF0.83657999999999999
aF0.84702999999999995
aF0.85699000000000003
aF0.85541999999999996
aF0.60558000000000001
aF0.86658999999999997
aF0.85304000000000002
aF0.83440000000000003
aF0.36442999999999998
aF0.84072000000000002
aF0.84923999999999999
aF0.86395999999999995
aF0.85304000000000002
aF0.84304999999999997
aF0.84923999999999999
aF0.59519999999999995
aF0.85241
aF0.85304000000000002
aF0.84697999999999996
aF0.84923999999999999
aF0.84928000000000003
aF0.85706000000000004
aF0.55218
aF0.84263999999999994
aF0.85304000000000002
aF0.84614
aF0.75097999999999998
aF0.73045000000000004
aF0.67205999999999999
aF0.77117999999999998
aF0.81247000000000003
aF0.80225999999999997
aF0.84923999999999999
aF0.70233000000000001
aF0.63734999999999997
aF0.64137999999999995
aF0.74114000000000002
aF0.34566000000000002
aF0.74268999999999996
aF0.84436999999999995
aF0.85706000000000004
aF0.84923999999999999
aF0.74124000000000001
aF0.66081000000000001
aF0.84072000000000002
aF0.80225999999999997
aF0.83984999999999999
aF0.83426
aF0.85699000000000003
aF0.78922999999999999
aF0.72660999999999998
aF0.79664999999999997
aF0.84094000000000002
aF0.83528999999999998
aF0.78178999999999998
aF0.36431000000000002
aF0.71745999999999999
aF0.65222999999999998
aF0.74790999999999996
aF0.73351
aF0.62219000000000002
aF0.71897999999999995
aF0.34712999999999999
aF0.25725999999999999
aF0.79042000000000001
aF0.62219000000000002
aF0.82713999999999999
aF0.71752000000000005
aF0.85304000000000002
aF0.61512
aF0.76383999999999996
aF0.85304000000000002
aF0.31003999999999998
aF0.69832000000000005
aF0.83528999999999998
aF0.85326999999999997
aF0.84923999999999999
aF0.57328000000000001
aF0.85858999999999996
aF0.83335999999999999
aF0.83528999999999998
aF0.79042000000000001
aF0.84923999999999999
aF0.66207000000000005
aF0.79664999999999997
aF0.82069999999999999
aF0.83528999999999998
aF0.71248999999999996
aF0.84923999999999999
aF0.42147000000000001
aF0.84928000000000003
aF0.85892999999999997
aF0.86658999999999997
aF0.80384
aF0.85699000000000003
aF0.86860000000000004
aF0.85326999999999997
aF0.16295000000000001
aF0.55676000000000003
aF0.84923999999999999
aF0.84304999999999997
aF0.85326999999999997
aF0.83482999999999996
aF0.83836999999999995
aF0.84077000000000002
aF0.72411999999999999
aF0.71440999999999999
aF0.70108999999999999
aF0.46945999999999999
aF0.48014000000000001
aF0.75387999999999999
aF0.85892999999999997
aF0.83769000000000005
aF0.83836999999999995
aF0.84923999999999999
aF0.79042000000000001
aF0.84923999999999999
aF0.84304999999999997
aF0.75719999999999998
aF0.65905999999999998
aF0.85706000000000004
aF0.85304000000000002
aF0.75905
aF0.84094000000000002
aF0.86477000000000004
aF0.84923999999999999
aF0.79298000000000002
aF0.83791000000000004
aF0.54871999999999999
aF0.73885999999999996
aF0.84923999999999999
aF0.61316000000000004
aF0.57006000000000001
aF0.85304000000000002
aF0.84086000000000005
aF0.85706000000000004
aF0.83964000000000005
aF0.84923999999999999
aF0.84436999999999995
aF0.85241
aF0.85582999999999998
aF0.86600999999999995
aF0.87392000000000003
aF0.79664999999999997
aF0.85858999999999996
aF0.85892999999999997
aF0.49414999999999998
aF0.84304999999999997
aF0.83836999999999995
aF0.81093999999999999
aF0.83528999999999998
aF0.86878
aF0.82069999999999999
aF0.85304000000000002
aF0.84928000000000003
aF0.84436999999999995
aF0.65739000000000003
aF0.85706000000000004
aF0.84923999999999999
aF0.82599999999999996
aF0.85304000000000002
aF0.67793999999999999
aF0.83216999999999997
aF0.54618
aF0.68811999999999995
aF0.78541000000000005
aF0.78541000000000005
aF0.72548000000000001
aF0.64892000000000005
aF0.84923999999999999
aF0.81115999999999999
aF0.72699000000000003
aF0.83216999999999997
aF0.85706000000000004
aF0.77117999999999998
aF0.78541000000000005
aF0.85304000000000002
aF0.83348
aF0.64137999999999995
aF0.81669999999999998
aF0.86917
aF0.75756999999999997
aF0.83426
aF0.84436999999999995
aF0.85911999999999999
aF0.76717999999999997
aF0.84077000000000002
aF0.86241999999999996
aF0.65808
aF0.86785000000000001
aF0.84928000000000003
aF0.85706000000000004
aF0.78541000000000005
aF0.84094000000000002
aF0.85706000000000004
aF0.86099999999999999
aF0.74836999999999998
aF0.84923999999999999
aF0.68391000000000002
aF0.73497999999999997
aF0.60646999999999995
aF0.12823000000000001
aF0.062010000000000003
aF0.57501000000000002
aF0.72219
aF0.65007999999999999
aF0.74268999999999996
aF0.74555000000000005
aF0.82759000000000005
aF0.79042000000000001
aF0.82069999999999999
aF0.85304000000000002
aF0.73592999999999997
aF0.85521999999999998
aF0.84086000000000005
aF0.80550999999999995
aF0.80225999999999997
aF0.85304000000000002
aF0.85304000000000002
aF0.85304000000000002
aF0.83528999999999998
aF0.71706000000000003
aF0.83426
aF0.83984999999999999
aF0.83216999999999997
aF0.32663999999999999
aF0.83431
aF0.72219
aF0.86860000000000004
aF0.86307999999999996
aF0.85304000000000002
aF0.84072000000000002
aF0.57572999999999996
aF0.84723000000000004
aF0.85706000000000004
aF0.86658999999999997
aF0.84494999999999998
aF0.84923999999999999
aF0.57328000000000001
aF0.57211999999999996
aF0.84923999999999999
aF0.83474000000000004
aF0.83699000000000001
aF0.77817000000000003
aF0.56454000000000004
aF0.47447
aF0.85521999999999998
aF0.85019
aF0.82901000000000002
aF0.85326999999999997
aF0.83689000000000002
aF0.84923999999999999
aF0.84436999999999995
aF0.85304000000000002
aF0.84923999999999999
aF0.85326999999999997
aF0.83964000000000005
aF0.86533000000000004
aF0.80384
aF0.21793999999999999
aF0.84436999999999995
aF0.85326999999999997
aF0.72611999999999999
aF0.35396
aF0.66193000000000002
aF0.25366
aF0.85526000000000002
aF0.84923999999999999
aF0.85706000000000004
aF0.85706000000000004
aF0.79664999999999997
aF0.85441
aF0.74836999999999998
aF0.73038000000000003
aF0.84687000000000001
aF0.84923999999999999
aF0.84086000000000005
aF0.19642999999999999
aF0.65920000000000001
aF0.55900000000000005
aF0.80969000000000002
aF0.84072000000000002
aF0.84723000000000004
aF0.38246000000000002
aF0.77117999999999998
aF0.85706000000000004
aF0.74790999999999996
aF0.83533999999999997
aF0.84923999999999999
aF0.82713999999999999
aF0.85526000000000002
aF0.73934
aF0.86092999999999997
aF0.85699000000000003
aF0.85304000000000002
aF0.84723000000000004
aF0.83335999999999999
aF0.85706000000000004
aF0.85326999999999997
aF0.83782000000000001
aF0.84614
aF0.84304999999999997
aF0.84263999999999994
aF0.84326999999999996
aF0.79576000000000002
aF0.73241999999999996
aF0.84177000000000002
aF0.86092999999999997
aF0.38263999999999998
aF0.37272
aF0.86092999999999997
aF0.85304000000000002
aF0.82069999999999999
aF0.45789000000000002
aF0.83431
aF0.69288000000000005
aF0.74124000000000001
aF0.85706000000000004
aF0.83836999999999995
aF0.84304999999999997
aF0.83426
aF0.18876000000000001
aF0.84436999999999995
aF0.82506999999999997
aF0.83836999999999995
aF0.85521999999999998
aF0.73934
aF0.76043000000000005
aF0.84923999999999999
aF0.84177000000000002
aF0.73960000000000004
aF0.83657999999999999
aF0.84923999999999999
aF0.83528999999999998
aF0.85260999999999998
aF0.85326999999999997
aF0.65529999999999999
aF0.85304000000000002
aF0.84077000000000002
aF0.86082000000000003
aF0.79174999999999995
aF0.77512000000000003
aF0.53568000000000005
aF0.79298000000000002
aF0.85521999999999998
aF0.81427000000000005
aF0.85892999999999997
aF0.85304000000000002
aF0.85019
aF0.85304000000000002
aF0.84304999999999997
aF0.83836999999999995
aF0.80301999999999996
aF0.84304999999999997
aF0.84436999999999995
aF0.79330999999999996
aF0.85526000000000002
aF0.82506999999999997
aF0.85055000000000003
aF0.85706000000000004
aF0.85541999999999996
aF0.85699000000000003
aF0.84923999999999999
aF0.84094000000000002
aF0.78922999999999999
aF0.78541000000000005
aF0.83216999999999997
aF0.72994000000000003
aF0.84326999999999996
aF0.85304000000000002
aF0.84923999999999999
aF0.85304000000000002
aF0.85526000000000002
aF0.83431
aF0.86092999999999997
aF0.77902000000000005
aF0.2984
aF0.84614
aF0.84086000000000005
aF0.83216999999999997
aF0.39871000000000001
aF0.83216999999999997
aF0.85304000000000002
aF0.10136000000000001
aF0.85304000000000002
aF0.84436999999999995
aF0.84494999999999998
aF0.84436999999999995
aF0.85699000000000003
aF0.76895000000000002
aF0.44080000000000003
aF0.86046
aF0.93394999999999995
aF0.92596000000000001
aF0.93037000000000003
aF0.92713000000000001
aF0.93633999999999995
aF0.88317999999999997
aF0.90720000000000001
aF0.93732000000000004
aF0.93537999999999999
aF0.93664999999999998
aF0.93010999999999999
aF0.93732000000000004
aF0.77947999999999995
aF0.92403000000000002
aF0.92171000000000003
aF0.93537999999999999
aF0.86141999999999996
aF0.88058999999999998
aF0.85465000000000002
aF0.93149999999999999
aF0.94005000000000005
aF0.88275000000000003
aF0.93833999999999995
aF0.92113999999999996
aF0.93501999999999996
aF0.90254999999999996
aF0.93250999999999995
aF0.93613000000000002
aF0.92864999999999998
aF0.89964999999999995
aF0.93010999999999999
aF0.69459000000000004
aF0.79484999999999995
aF0.93149999999999999
aF0.92244000000000004
aF0.86963999999999997
aF0.9244
aF0.83072999999999997
aF0.76670000000000005
aF0.78310999999999997
aF0.29736000000000001
aF0.77947999999999995
aF0.94254000000000004
aF0.93537999999999999
aF0.90158000000000005
aF0.88092000000000004
aF0.88578000000000001
aF0.92396
aF0.91019000000000005
aF0.87256
aF0.91595000000000004
aF0.93664999999999998
aF0.84779000000000004
aF0.93437000000000003
aF0.89668000000000003
aF0.91371999999999998
aF0.92008999999999996
aF0.93593000000000004
aF0.86162000000000005
aF0.90686999999999995
aF0.90722000000000003
aF0.78898000000000001
aF0.49451000000000001
aF0.84240999999999999
aF0.88146000000000002
aF0.79361999999999999
aF0.81057999999999997
aF0.80003999999999997
aF0.74117999999999995
aF0.91761000000000004
aF0.91625000000000001
aF0.87653000000000003
aF0.91574
aF0.76966000000000001
aF0.93537999999999999
aF0.61240000000000006
aF0.87129999999999996
aF0.88800000000000001
aF0.90373999999999999
aF0.85833999999999999
aF0.73373999999999995
aF0.93825000000000003
aF0.93339000000000005
aF0.56599999999999995
aF0.88270999999999999
aF0.64263000000000003
aF0.85226000000000002
aF0.90464
aF0.90866000000000002
aF0.88344999999999996
aF0.91537000000000002
aF0.89285000000000003
aF0.85424
aF0.87773999999999996
aF0.92449000000000003
aF0.93593000000000004
aF0.89956999999999998
aF0.48463000000000001
aF0.93310999999999999
aF0.92723
aF0.92008999999999996
aF0.93250999999999995
aF0.88224000000000002
aF0.93825000000000003
aF0.91400000000000003
aF0.91473000000000004
aF0.93613000000000002
aF0.55900000000000005
aF0.93825000000000003
aF0.93010999999999999
aF0.93339000000000005
aF0.92573000000000005
aF0.77978000000000003
aF0.87099000000000004
aF0.71953
aF0.78573999999999999
aF0.85846
aF0.79674
aF0.93689999999999996
aF0.69121999999999995
aF0.87107000000000001
aF0.83262999999999998
aF0.91112000000000004
aF0.93732000000000004
aF0.81455
aF0.93537999999999999
aF0.28193000000000001
aF0.87773999999999996
aF0.76742999999999995
aF0.91371999999999998
aF0.92966000000000004
aF0.9093
aF0.62190000000000001
aF0.91537000000000002
aF0.93096000000000001
aF0.85318000000000005
aF0.79074
aF0.93537999999999999
aF0.83762999999999999
aF0.93496000000000001
aF0.86760999999999999
aF0.84225000000000005
aF0.93732000000000004
aF0.93010999999999999
aF0.93537999999999999
aF0.93613000000000002
aF0.85072999999999999
aF0.93613000000000002
aF0.93149999999999999
aF0.84519
aF0.92906999999999995
aF0.90495000000000003
aF0.93149999999999999
aF0.93310999999999999
aF0.31484000000000001
aF0.90312000000000003
aF0.81999
aF0.82867000000000002
aF0.88092000000000004
aF0.93633999999999995
aF0.93037000000000003
aF0.93537999999999999
aF0.92776999999999998
aF0.91979
aF0.91071999999999997
aF0.90944999999999998
aF0.93149999999999999
aF0.93537999999999999
aF0.84194999999999998
aF0.88454999999999995
aF0.90874999999999995
aF0.88927999999999996
aF0.91627999999999998
aF0.90158000000000005
aF0.90866000000000002
aF0.86026000000000002
aF0.22477
aF0.63141999999999998
aF0.90869
aF0.78902000000000005
aF0.78741000000000005
aF0.86900999999999995
aF0.53842999999999996
aF0.84618000000000004
aF0.88114999999999999
aF0.82938999999999996
aF0.92603999999999997
aF0.92945999999999995
aF0.88183
aF0.93537999999999999
aF0.93925000000000003
aF0.88927999999999996
aF0.9284
aF0.86487000000000003
aF0.93045
aF0.93544000000000005
aF0.88819000000000004
aF0.92893000000000003
aF0.93437000000000003
aF0.82598000000000005
aF0.93284
aF0.92776999999999998
aF0.93667
aF0.91625000000000001
aF0.92403000000000002
aF0.93613000000000002
aF0.88744999999999996
aF0.93886000000000003
aF0.93339000000000005
aF0.81405000000000005
aF0.87548999999999999
aF0.80557999999999996
aF0.85936999999999997
aF0.84247000000000005
aF0.86667000000000005
aF0.83443999999999996
aF0.86487000000000003
aF0.87612999999999996
aF0.90549999999999997
aF0.91256000000000004
aF0.91757999999999995
aF0.92723
aF0.93149999999999999
aF0.75432999999999995
aF0.88931000000000004
aF0.91627999999999998
aF0.80645999999999995
aF0.90495000000000003
aF0.93593000000000004
aF0.89019999999999999
aF0.92723
aF0.93537999999999999
aF0.93149999999999999
aF0.86070999999999998
aF0.93174000000000001
aF0.84240999999999999
aF0.82452999999999999
aF0.93201000000000001
aF0.93310999999999999
aF0.82342000000000004
aF0.93339000000000005
aF0.86324000000000001
aF0.68774999999999997
aF0.91019000000000005
aF0.93437000000000003
aF0.83852000000000004
aF0.93339000000000005
aF0.90866000000000002
aF0.92171000000000003
aF0.93833999999999995
aF0.93633999999999995
aF0.93339000000000005
aF0.9244
aF0.91395000000000004
aF0.91761000000000004
aF0.90861999999999998
aF0.88058999999999998
aF0.92784
aF0.92193999999999998
aF0.93010999999999999
aF0.93096000000000001
aF0.90307999999999999
aF0.9284
aF0.93833999999999995
aF0.36137000000000002
aF0.92945999999999995
aF0.93593000000000004
aF0.93149999999999999
aF0.91537000000000002
aF0.93008000000000002
aF0.92603999999999997
aF0.87102000000000002
aF0.83359000000000005
aF0.77978000000000003
aF0.69896999999999998
aF0.80557999999999996
aF0.86487000000000003
aF0.93764000000000003
aF0.93149999999999999
aF0.93833999999999995
aF0.92242999999999997
aF0.93447000000000002
aF0.88895999999999997
aF0.87975000000000003
aF0.84545999999999999
aF0.85789000000000004
aF0.93208000000000002
aF0.92906999999999995
aF0.55128999999999995
aF0.91473000000000004
aF0.3931
aF0.93855
aF0.92008999999999996
aF0.92906999999999995
aF0.91400000000000003
aF0.77009000000000005
aF0.78478999999999999
aF0.93149999999999999
aF0.91371999999999998
aF0.92893000000000003
aF0.93613000000000002
aF0.93010999999999999
aF0.93201000000000001
aF0.88931000000000004
aF0.93437000000000003
aF0.93925000000000003
aF0.86180000000000001
aF0.88207000000000002
aF0.93072999999999995
aF0.23052
aF0.84907999999999995
aF0.86414000000000002
aF0.91473000000000004
aF0.93613000000000002
aF0.93010999999999999
aF0.92459999999999998
aF0.91469999999999996
aF0.87973999999999997
aF0.79520000000000002
aF0.93008000000000002
aF0.93437000000000003
aF0.59968999999999995
aF0.93250999999999995
aF0.86026000000000002
aF0.93833999999999995
aF0.93784999999999996
aF0.92459999999999998
aF0.93072999999999995
aF0.91574
aF0.93149999999999999
aF0.82338
aF0.85585999999999995
aF0.93339000000000005
aF0.92603999999999997
aF0.88160000000000005
aF0.79849000000000003
aF0.92449000000000003
aF0.93732000000000004
aF0.93732000000000004
aF0.93537999999999999
aF0.87256
aF0.91400000000000003
aF0.87961999999999996
aF0.55666000000000004
aF0.89731000000000005
aF0.93250999999999995
aF0.93732000000000004
aF0.85148000000000001
aF0.93693000000000004
aF0.86260999999999999
aF0.92449000000000003
aF0.93732000000000004
aF0.93008000000000002
aF0.91761000000000004
aF0.89451000000000003
aF0.90158000000000005
aF0.91249000000000002
aF0.91256000000000004
aF0.93537999999999999
aF0.81023999999999996
aF0.74270999999999998
aF0.88812000000000002
aF0.88454999999999995
aF0.93149999999999999
aF0.93833999999999995
aF0.90866000000000002
aF0.90312000000000003
aF0.93208000000000002
aF0.93196999999999997
aF0.59426999999999996
aF0.87470000000000003
aF0.93879999999999997
aF0.90549999999999997
aF0.88536000000000004
aF0.93140000000000001
aF0.87846000000000002
aF0.93633999999999995
aF0.93613000000000002
aF0.92459999999999998
aF0.90686999999999995
aF0.93008000000000002
aF0.91371999999999998
aF0.73365000000000002
aF0.92830000000000001
aF0.93593000000000004
aF0.93537999999999999
aF0.93976999999999999
aF0.93732000000000004
aF0.73080999999999996
aF0.85836000000000001
aF0.93437000000000003
aF0.89542999999999995
aF0.90464
aF0.86960999999999999
aF0.92747999999999997
aF0.84074000000000004
aF0.83809
aF0.87951000000000001
aF0.93613000000000002
aF0.91256000000000004
aF0.93339000000000005
aF0.85631000000000002
aF0.87148999999999999
aF0.91320000000000001
aF0.83018000000000003
aF0.93633999999999995
aF0.93149999999999999
aF0.88546000000000002
aF0.90864
aF0.91735
aF0.92930999999999997
aF0.93759000000000003
aF0.92479
aF0.93220999999999998
aF0.93535999999999997
aF0.93633999999999995
aF0.93537999999999999
aF0.93825000000000003
aF0.93496000000000001
aF0.92781999999999998
aF0.93259000000000003
aF0.91486000000000001
aF0.93259000000000003
aF0.93593000000000004
aF0.93664999999999998
aF0.93459999999999999
aF0.93593000000000004
aF0.93469999999999998
aF0.93459999999999999
aF0.93593000000000004
aF0.93855
aF0.93542000000000003
aF0.93732000000000004
aF0.93633999999999995
aF0.91130999999999995
aF0.91735
aF0.93140999999999996
aF0.93655999999999995
aF0.93096000000000001
aF0.93140999999999996
aF0.93655999999999995
aF0.93784999999999996
aF0.93645999999999996
aF0.92506999999999995
aF0.93879999999999997
aF0.93459999999999999
aF0.93784999999999996
aF0.93664999999999998
aF0.93345999999999996
aF0.93655999999999995
aF0.93593000000000004
aF0.92930999999999997
aF0.93459999999999999
aF0.93886000000000003
aF0.93140999999999996
aF0.93759000000000003
aF0.93469999999999998
aF0.93759000000000003
aF0.93784999999999996
aF0.93738999999999995
aF0.93140999999999996
aF0.93655999999999995
aF0.93593000000000004
aF0.93140999999999996
aF0.93535999999999997
aF0.93664999999999998
aF0.93345999999999996
aF0.93655999999999995
aF0.89964999999999995
aF0.93542000000000003
aF0.91735
aF0.92617000000000005
aF0.93345999999999996
aF0.93459999999999999
aF0.88058000000000003
aF0.93220999999999998
aF0.93803000000000003
aF0.93593000000000004
aF0.93454000000000004
aF0.93655999999999995
aF0.93784999999999996
aF0.92930999999999997
aF0.93067999999999995
aF0.93593000000000004
aF0.93501999999999996
aF0.93469999999999998
aF0.93998999999999999
aF0.93500000000000005
aF0.93803000000000003
aF0.93825000000000003
aF0.93454000000000004
aF0.90864
aF0.90444999999999998
aF0.93655999999999995
aF0.93593000000000004
aF0.92451000000000005
aF0.93140999999999996
aF0.93259000000000003
aF0.93593000000000004
aF0.93259000000000003
aF0.93537999999999999
aF0.93437000000000003
aF0.93689999999999996
aF0.87592999999999999
aF0.89454
aF0.90444999999999998
aF0.93459999999999999
aF0.93784999999999996
aF0.92310000000000003
aF0.93655999999999995
aF0.93886000000000003
aF0.94123999999999997
aF0.88871
aF0.91130999999999995
aF0.90254999999999996
aF0.93140999999999996
aF0.93655999999999995
aF0.93593000000000004
aF0.88871
aF0.91979
aF0.92451000000000005
aF0.90666999999999998
aF0.93459999999999999
aF0.93633999999999995
aF0.93537999999999999
aF0.93925000000000003
aF0.93979999999999997
aF0.79357
aF0.82935999999999999
aF0.85319999999999996
aF0.80123999999999995
aF0.82935999999999999
aF0.82404999999999995
aF0.87309000000000003
aF0.87712000000000001
aF0.87536999999999998
aF0.87888999999999995
aF0.87450000000000006
aF0.87785000000000002
aF0.86733000000000005
aF0.87473999999999996
aF0.86822999999999995
aF0.93140999999999996
aF0.93459999999999999
aF0.93593000000000004
aF0.93045
aF0.93459999999999999
aF0.93501999999999996
aF0.93345999999999996
aF0.93459999999999999
aF0.91486000000000001
aF0.93454000000000004
aF0.93655999999999995
aF0.93208000000000002
aF0.89641000000000004
aF0.90868000000000004
aF0.92930999999999997
aF0.86570999999999998
aF0.93784999999999996
aF0.90864
aF0.84597
aF0.92571999999999999
aF0.93345999999999996
aF0.93459999999999999
aF0.93394999999999995
aF0.90610000000000002
aF0.91271000000000002
aF0.92107000000000006
aF0.92571999999999999
aF0.93833999999999995
aF0.93967999999999996
aF0.93979999999999997
aF0.91439999999999999
aF0.93803000000000003
aF0.86792000000000002
aF0.93459999999999999
aF0.93593000000000004
aF0.93738999999999995
aF0.90108999999999995
aF0.91469999999999996
aF0.89088999999999996
aF0.92930999999999997
aF0.88024000000000002
aF0.91735
aF0.90968000000000004
aF0.84855999999999998
aF0.92220999999999997
aF0.93342000000000003
aF0.93613000000000002
aF0.93708000000000002
aF0.86904000000000003
aF0.93759000000000003
aF0.93593000000000004
aF0.91757999999999995
aF0.91735
aF0.8931
aF0.89668000000000003
aF0.90822000000000003
aF0.85163999999999995
aF0.87473999999999996
aF0.85079000000000005
aF0.87826000000000004
aF0.71196000000000004
aF0.88185000000000002
aF0.79601
aF0.83391000000000004
aF0.84597
aF0.87463000000000002
aF0.88012000000000001
aF0.88058000000000003
aF0.86904000000000003
aF0.87473999999999996
aF0.82223000000000002
aF0.79601
aF0.82721999999999996
aF0.84433000000000002
aF0.87611000000000006
aF0.88241000000000003
aF0.82648999999999995
aF0.86904000000000003
aF0.87473999999999996
aF0.78691
aF0.93823000000000001
aF0.92420999999999998
aF0.92617000000000005
aF0.88993999999999995
aF0.91130999999999995
aF0.91979
aF0.93500000000000005
aF0.92218
aF0.89281999999999995
aF0.93459999999999999
aF0.93394999999999995
aF0.93664999999999998
aF0.87782000000000004
aF0.87822
aF0.88966999999999996
aF0.91652999999999996
aF0.93459999999999999
aF0.93886000000000003
aF0.89188999999999996
aF0.91271000000000002
aF0.91979
aF0.87592999999999999
aF0.89022000000000001
aF0.88966999999999996
aF0.93140999999999996
aF0.93759000000000003
aF0.82160999999999995
aF0.9022
aF0.91271000000000002
aF0.91469999999999996
aF0.92008999999999996
aF0.93459999999999999
aF0.90861999999999998
aF0.91657999999999995
aF0.93045
aF0.87114000000000003
aF0.87160000000000004
aF0.90937999999999997
aF0.93784999999999996
aF0.93738999999999995
aF0.93140999999999996
aF0.93459999999999999
aF0.93394999999999995
aF0.93345999999999996
aF0.93876999999999999
aF0.93855
aF0.89180999999999999
aF0.91469999999999996
aF0.90159999999999996
aF0.93140999999999996
aF0.93759000000000003
aF0.91761000000000004
aF0.93140999999999996
aF0.93708000000000002
aF0.93764000000000003
aF0.93140999999999996
aF0.93259000000000003
aF0.90373999999999999
aF0.93140999999999996
aF0.90739000000000003
aF0.92161000000000004
aF0.93454000000000004
aF0.93655999999999995
aF0.90254999999999996
aF0.93140999999999996
aF0.93784999999999996
aF0.92623999999999995
aF0.93933
aF0.92107000000000006
aF0.91088999999999998
aF0.93454000000000004
aF0.93759000000000003
aF0.88819999999999999
aF0.93220999999999998
aF0.93759000000000003
aF0.93394999999999995
aF0.93140999999999996
aF0.93459999999999999
aF0.93501999999999996
aF0.93140999999999996
aF0.93339000000000005
aF0.93708000000000002
aF0.92930999999999997
aF0.90864
aF0.91979
aF0.93459999999999999
aF0.93886000000000003
aF0.93955
aF0.93542000000000003
aF0.93394999999999995
aF0.92544000000000004
aF0.93711
aF0.93454000000000004
aF0.71870999999999996
aF0.88058000000000003
aF0.93345999999999996
aF0.92107000000000006
aF0.92776000000000003
aF0.93045
aF0.91171000000000002
aF0.93208000000000002
aF0.93469999999999998
aF0.93500000000000005
aF0.93759000000000003
aF0.93394999999999995
aF0.93459999999999999
aF0.93593000000000004
aF0.93738999999999995
aF0.86529999999999996
aF0.93784999999999996
aF0.92451000000000005
aF0.90395000000000003
aF0.92369000000000001
aF0.92735000000000001
aF0.93220999999999998
aF0.93459999999999999
aF0.93667
aF0.93140999999999996
aF0.93459999999999999
aF0.93664999999999998
aF0.93655999999999995
aF0.93593000000000004
aF0.93855
aF0.93342000000000003
aF0.93593000000000004
aF0.94123999999999997
aF0.93454000000000004
aF0.93803000000000003
aF0.94055999999999995
aF0.92730999999999997
aF0.93664999999999998
aF0.93899999999999995
aF0.82955999999999996
aF0.87309000000000003
aF0.81415999999999999
aF0.87114000000000003
aF0.88241000000000003
aF0.87290000000000001
aF0.87046000000000001
aF0.87611000000000006
aF0.84714999999999996
aF0.79601
aF0.83111999999999997
aF0.81903000000000004
aF0.87004000000000004
aF0.87182999999999999
aF0.87536999999999998
aF0.87473999999999996
aF0.87548999999999999
aF0.87680999999999998
aF0.93593000000000004
aF0.93664999999999998
aF0.93711
aF0.92730999999999997
aF0.93459999999999999
aF0.93593000000000004
aF0.93635000000000002
aF0.94094
aF0.93140999999999996
aF0.93655999999999995
aF0.93593000000000004
aF0.88871
aF0.90968000000000004
aF0.91486000000000001
aF0.93345999999999996
aF0.93759000000000003
aF0.87021999999999999
aF0.92930999999999997
aF0.93259000000000003
aF0.92220999999999997
aF0.93140999999999996
aF0.93067999999999995
aF0.92966000000000004
aF0.93447000000000002
aF0.93879999999999997
aF0.93345999999999996
aF0.93759000000000003
aF0.93886000000000003
aF0.93454000000000004
aF0.93459999999999999
aF0.92159999999999997
aF0.90968000000000004
aF0.91979
aF0.93691000000000002
aF0.93732000000000004
aF0.93708000000000002
aF0.92154999999999998
aF0.93593000000000004
aF0.90822000000000003
aF0.93140999999999996
aF0.93535999999999997
aF0.93928999999999996
aF0.90864
aF0.92107000000000006
aF0.92571999999999999
aF0.93454000000000004
aF0.93537999999999999
aF0.93645999999999996
aF0.93501999999999996
aF0.93855
aF0.85924999999999996
aF0.88802999999999999
aF0.89964999999999995
aF0.93140999999999996
aF0.93459999999999999
aF0.93501999999999996
aF0.93140999999999996
aF0.93655999999999995
aF0.92369000000000001
aF0.93459999999999999
aF0.87490999999999997
aF0.87575000000000003
aF0.93220999999999998
aF0.93459999999999999
aF0.93496000000000001
aF0.93613000000000002
aF0.93544000000000005
aF0.93879999999999997
aF0.93140999999999996
aF0.93459999999999999
aF0.93667
aF0.93759000000000003
aF0.93394999999999995
aF0.93664999999999998
aF0.92930999999999997
aF0.93459999999999999
aF0.93784999999999996
aF0.93345999999999996
aF0.93655999999999995
aF0.93928999999999996
aF0.93345999999999996
aF0.93759000000000003
aF0.93925000000000003
aF0.93454000000000004
aF0.93655999999999995
aF0.93593000000000004
aF0.93140999999999996
aF0.93933
aF0.93784999999999996
aF0.89356000000000002
aF0.84462999999999999
aF0.87355000000000005
aF0.93140999999999996
aF0.93259000000000003
aF0.93593000000000004
aF0.90864
aF0.91979
aF0.92451000000000005
aF0.93140999999999996
aF0.93803000000000003
aF0.93886000000000003
aF0.93759000000000003
aF0.93955
aF0.93516999999999995
aF0.88012000000000001
aF0.93732000000000004
aF0.92451000000000005
aF0.93345999999999996
aF0.93803000000000003
aF0.91979
aF0.93220999999999998
aF0.93535999999999997
aF0.91308999999999996
aF0.93140999999999996
aF0.93535999999999997
aF0.92107000000000006
aF0.92930999999999997
aF0.93459999999999999
aF0.93593000000000004
aF0.93420000000000003
aF0.93833999999999995
aF0.93664999999999998
aF0.93140999999999996
aF0.93459999999999999
aF0.93886000000000003
aF0.93140999999999996
aF0.93759000000000003
aF0.93784999999999996
aF0.93784999999999996
aF0.93664999999999998
aF0.93784000000000001
aF0.93345999999999996
aF0.93655999999999995
aF0.92369000000000001
aF0.93645999999999996
aF0.93759000000000003
aF0.93784999999999996
aF0.90108999999999995
aF0.91625000000000001
aF0.92244000000000004
aF0.93345999999999996
aF0.93759000000000003
aF0.93593000000000004
aF0.92930999999999997
aF0.87309000000000003
aF0.87356999999999996
aF0.91757999999999995
aF0.92369000000000001
aF0.91808999999999996
aF0.93140999999999996
aF0.93655999999999995
aF0.93667
aF0.91271000000000002
aF0.91979
aF0.92571999999999999
aF0.93454000000000004
aF0.89336000000000004
aF0.90551999999999999
aF0.91757999999999995
aF0.92244000000000004
aF0.92935000000000001
aF0.93140999999999996
aF0.89749000000000001
aF0.91735
aF0.92730999999999997
aF0.90864
aF0.90944999999999998
aF0.93459999999999999
aF0.93593000000000004
aF0.93689999999999996
aF0.93454000000000004
aF0.90864
aF0.91979
aF0.93454000000000004
aF0.93655999999999995
aF0.91979
aF0.93149999999999999
aF0.91595000000000004
aF0.9194
aF0.87961999999999996
aF0.87712000000000001
aF0.82648999999999995
aF0.86265000000000003
aF0.87611000000000006
aF0.81188000000000005
aF0.87473999999999996
aF0.87356999999999996
aF0.87841999999999998
aF0.93140999999999996
aF0.93259000000000003
aF0.87129999999999996
aF0.92930999999999997
aF0.93259000000000003
aF0.93072999999999995
aF0.93500000000000005
aF0.90739000000000003
aF0.90159999999999996
aF0.93220999999999998
aF0.90968000000000004
aF0.92107000000000006
aF0.93220999999999998
aF0.93535999999999997
aF0.93667
aF0.93459999999999999
aF0.93593000000000004
aF0.93998000000000004
aF0.93140999999999996
aF0.90864
aF0.91735
aF0.88546000000000002
aF0.91112000000000004
aF0.91486000000000001
aF0.92220999999999997
aF0.93454000000000004
aF0.93535999999999997
aF0.94055999999999995
aF0.93933
aF0.93928999999999996
aF0.94123999999999997
aF0.89802999999999999
aF0.90254999999999996
aF0.90868000000000004
aF0.88802999999999999
aF0.89802999999999999
aF0.90159999999999996
aF0.93140999999999996
aF0.93655999999999995
aF0.93593000000000004
aF0.93500000000000005
aF0.93655999999999995
aF0.93784999999999996
aF0.93459999999999999
aF0.93437000000000003
aF0.93310999999999999
aF0.93259000000000003
aF0.93784999999999996
aF0.93284
aF0.93454000000000004
aF0.90332000000000001
aF0.90715999999999997
aF0.93886000000000003
aF0.93955
aF0.93998999999999999
aF0.93655999999999995
aF0.93784999999999996
aF0.93855
aF0.88546000000000002
aF0.86721999999999999
aF0.86414999999999997
aF0.93220999999999998
aF0.93732000000000004
aF0.93633999999999995
aF0.93764000000000003
aF0.93345999999999996
aF0.93459999999999999
aF0.93955
aF0.93998999999999999
aF0.92930999999999997
aF0.93459999999999999
aF0.93664999999999998
aF0.87019000000000002
aF0.91130999999999995
aF0.92107000000000006
aF0.93137999999999999
aF0.93339000000000005
aF0.93469999999999998
aF0.93655999999999995
aF0.93537999999999999
aF0.93394999999999995
aF0.93454000000000004
aF0.93655999999999995
aF0.93886000000000003
aF0.92474000000000001
aF0.93459999999999999
aF0.93593000000000004
aF0.93345999999999996
aF0.93655999999999995
aF0.92244000000000004
aF0.93140999999999996
aF0.93655999999999995
aF0.93593000000000004
aF0.90864
aF0.91735
aF0.91088999999999998
aF0.87463000000000002
aF0.87612999999999996
aF0.87785000000000002
aF0.78408999999999995
aF0.81188000000000005
aF0.83040000000000003
aF0.87270000000000003
aF0.87612999999999996
aF0.88229000000000002
aF0.86719000000000002
aF0.87624000000000002
aF0.85172000000000003
aF0.87548999999999999
aF0.86961999999999995
aF0.87765000000000004
aF0.82935999999999999
aF0.84235000000000004
aF0.85895999999999995
aF0.86529999999999996
aF0.87611000000000006
aF0.87846000000000002
aF0.87046000000000001
aF0.88012000000000001
aF0.88548000000000004
aF0.93140999999999996
aF0.93759000000000003
aF0.91735
aF0.90864
aF0.92008999999999996
aF0.92391000000000001
aF0.88871
aF0.83733999999999997
aF0.84433000000000002
aF0.93140999999999996
aF0.93655999999999995
aF0.93667
aF0.93140999999999996
aF0.93259000000000003
aF0.93633999999999995
aF0.93454000000000004
aF0.93459999999999999
aF0.93394999999999995
aF0.79601
aF0.9022
aF0.90864
aF0.91935
aF0.92822000000000005
aF0.93593000000000004
aF0.93537999999999999
aF0.93437000000000003
aF0.92391000000000001
aF0.93140999999999996
aF0.93535999999999997
aF0.90159999999999996
aF0.93459999999999999
aF0.90944999999999998
aF0.92451000000000005
aF0.93220999999999998
aF0.93459999999999999
aF0.93825000000000003
aF0.93140999999999996
aF0.93459999999999999
aF0.93825000000000003
aF0.93345999999999996
aF0.93655999999999995
aF0.93784999999999996
aF0.93454000000000004
aF0.93535999999999997
aF0.93593000000000004
aF0.93345999999999996
aF0.93459999999999999
aF0.93784999999999996
aF0.93220999999999998
aF0.93655999999999995
aF0.93667
aF0.87256
aF0.87785000000000002
aF0.93689999999999996
aF0.93140999999999996
aF0.93759000000000003
aF0.91486000000000001
aF0.92730999999999997
aF0.91486000000000001
aF0.91473000000000004
aF0.93500000000000005
aF0.94123999999999997
aF0.93998999999999999
aF0.93886000000000003
aF0.93955
aF0.93899999999999995
aF0.93345999999999996
aF0.88978999999999997
aF0.90444999999999998
aF0.93220999999999998
aF0.93367999999999995
aF0.93784999999999996
aF0.93454000000000004
aF0.93537999999999999
aF0.93689999999999996
aF0.87782000000000004
aF0.88644999999999996
aF0.90666999999999998
aF0.93259000000000003
aF0.89546000000000003
aF0.92930999999999997
aF0.93394999999999995
aF0.93955
aF0.93759000000000003
aF0.93886000000000003
aF0.93855
aF0.93454000000000004
aF0.93759000000000003
aF0.93667
aF0.93345999999999996
aF0.90864
aF0.91979
aF0.93535999999999997
aF0.93593000000000004
aF0.93955
aF0.93140999999999996
aF0.93459999999999999
aF0.93667
aF0.93140999999999996
aF0.93784999999999996
aF0.93955
aF0.93140999999999996
aF0.93459999999999999
aF0.93394999999999995
aF0.93537999999999999
aF0.93633999999999995
aF0.93310999999999999
aF0.93925000000000003
aF0.93664999999999998
aF0.93711
aF0.91371999999999998
aF0.92100000000000004
aF0.92479
aF0.92730999999999997
aF0.93437000000000003
aF0.92935000000000001
aF0.93140999999999996
aF0.91757999999999995
aF0.92576999999999998
aF0.93220999999999998
aF0.93259000000000003
aF0.89964999999999995
aF0.93454000000000004
aF0.93537999999999999
aF0.93825000000000003
aF0.93140999999999996
aF0.93537999999999999
aF0.93633999999999995
aF0.93259000000000003
aF0.87712000000000001
aF0.93955
aF0.93542000000000003
aF0.93537999999999999
aF0.93708000000000002
aF0.93140999999999996
aF0.93339000000000005
aF0.90868000000000004
aF0.93454000000000004
aF0.92305999999999999
aF0.93593000000000004
aF0.93635000000000002
aF0.93933
aF0.93886000000000003
aF0.93140999999999996
aF0.93593000000000004
aF0.93784000000000001
aF0.93459999999999999
aF0.93593000000000004
aF0.93664999999999998
aF0.93542000000000003
aF0.91449999999999998
aF0.93825000000000003
aF0.93345999999999996
aF0.93933
aF0.91249000000000002
aF0.92244000000000004
aF0.86184000000000005
aF0.91507000000000005
aF0.91979
aF0.85279000000000005
aF0.93437000000000003
aF0.87490999999999997
aF0.87244999999999995
aF0.93220999999999998
aF0.93459999999999999
aF0.93593000000000004
aF0.92730999999999997
aF0.87473999999999996
aF0.93394999999999995
aF0.93496000000000001
aF0.87463000000000002
aF0.87309000000000003
aF0.84855999999999998
aF0.86733000000000005
aF0.83631999999999995
aF0.82160999999999995
aF0.79803999999999997
aF0.82394000000000001
aF0.83974000000000004
aF0.82471000000000005
aF0.84001000000000003
aF0.82396999999999998
aF0.87270000000000003
aF0.88012000000000001
aF0.88241000000000003
aF0.93667
aF0.93469999999999998
aF0.93711
aF0.93454000000000004
aF0.93535999999999997
aF0.93886000000000003
aF0.93500000000000005
aF0.93459999999999999
aF0.93784999999999996
aF0.93459999999999999
aF0.93886000000000003
aF0.88185000000000002
aF0.93345999999999996
aF0.93535999999999997
aF0.93593000000000004
aF0.93345999999999996
aF0.91979
aF0.88615999999999995
aF0.93833999999999995
aF0.93925000000000003
aF0.93979999999999997
aF0.93220999999999998
aF0.93655999999999995
aF0.93784999999999996
aF0.93342000000000003
aF0.93732000000000004
aF0.93633999999999995
aF0.93542000000000003
aF0.93833999999999995
aF0.93925000000000003
aF0.92930999999999997
aF0.93259000000000003
aF0.93886000000000003
aF0.93149999999999999
aF0.93250999999999995
aF0.93072999999999995
aF0.93537999999999999
aF0.92369000000000001
aF0.92617000000000005
aF0.91130999999999995
aF0.91735
aF0.93342000000000003
aF0.91595000000000004
aF0.93454000000000004
aF0.93633999999999995
aF0.93879999999999997
aF0.91130999999999995
aF0.91830000000000001
aF0.92479
aF0.93345999999999996
aF0.93655999999999995
aF0.93886000000000003
aF0.93759000000000003
aF0.93667
aF0.90547
aF0.85157000000000005
aF0.89641000000000004
aF0.88966999999999996
aF0.93220999999999998
aF0.90864
aF0.91735
aF0.93345999999999996
aF0.93803000000000003
aF0.93928999999999996
aF0.93454000000000004
aF0.93535999999999997
aF0.91830000000000001
aF0.93459999999999999
aF0.88107000000000002
aF0.93899999999999995
aF0.93140999999999996
aF0.93459999999999999
aF0.93784999999999996
aF0.93759000000000003
aF0.87712000000000001
aF0.88185000000000002
aF0.93593000000000004
aF0.93469999999999998
aF0.93998999999999999
aF0.93345999999999996
aF0.93655999999999995
aF0.94055999999999995
aF0.93655999999999995
aF0.93886000000000003
aF0.93998000000000004
aF0.93259000000000003
aF0.93593000000000004
aF0.93855
aF0.93345999999999996
aF0.93759000000000003
aF0.93633999999999995
aF0.93045
aF0.93367999999999995
aF0.93394999999999995
aF0.93469999999999998
aF0.93833999999999995
aF0.93708000000000002
aF0.93784000000000001
aF0.93140999999999996
aF0.93655999999999995
aF0.93886000000000003
aF0.93345999999999996
aF0.94055999999999995
aF0.92571999999999999
aF0.93537999999999999
aF0.93925000000000003
aF0.93979999999999997
aF0.93655999999999995
aF0.93613000000000002
aF0.93825000000000003
aF0.92391000000000001
aF0.93454000000000004
aF0.93535999999999997
aF0.93886000000000003
aF0.93345999999999996
aF0.93501999999999996
aF0.93664999999999998
aF0.93645999999999996
aF0.93613000000000002
aF0.82569000000000004
aF0.91935
aF0.90864
aF0.89281999999999995
aF0.93459999999999999
aF0.93593000000000004
aF0.82862999999999998
aF0.92930999999999997
aF0.93738999999999995
aF0.93516999999999995
aF0.93759000000000003
aF0.93784999999999996
aF0.94123999999999997
aF0.93500000000000005
aF0.93593000000000004
aF0.93738999999999995
aF0.93535999999999997
aF0.93784999999999996
aF0.93738999999999995
aF0.93345999999999996
aF0.93655999999999995
aF0.93689999999999996
aF0.93140999999999996
aF0.93655999999999995
aF0.93394999999999995
aF0.87270000000000003
aF0.93759000000000003
aF0.94094
aF0.93542000000000003
aF0.93833999999999995
aF0.93437000000000003
aF0.93855
aF0.93784000000000001
aF0.92930999999999997
aF0.93535999999999997
aF0.93955
aF0.93220999999999998
aF0.93459999999999999
aF0.93593000000000004
aF0.93140999999999996
aF0.93655999999999995
aF0.93593000000000004
aF0.86904000000000003
aF0.93259000000000003
aF0.87846000000000002
aF0.93635000000000002
aF0.93535999999999997
aF0.93886000000000003
aF0.93220999999999998
aF0.93655999999999995
aF0.93928999999999996
aF0.90108999999999995
aF0.90076999999999996
aF0.91088999999999998
aF0.92930999999999997
aF0.93067999999999995
aF0.90159999999999996
aF0.93220999999999998
aF0.93459999999999999
aF0.93784999999999996
aF0.93345999999999996
aF0.93459999999999999
aF0.93667
aF0.93345999999999996
aF0.93535999999999997
aF0.93886000000000003
aF0.93454000000000004
aF0.93803000000000003
aF0.93784999999999996
aF0.93345999999999996
aF0.93459999999999999
aF0.92220999999999997
aF0.93045
aF0.93259000000000003
aF0.93886000000000003
aF0.87712000000000001
aF0.93664999999999998
aF0.93711
aF0.89815
aF0.90407999999999999
aF0.91088999999999998
aF0.93928999999999996
aF0.93955
aF0.93345999999999996
aF0.93459999999999999
aF0.93886000000000003
aF0.93345999999999996
aF0.93759000000000003
aF0.94055999999999995
aF0.93928999999999996
aF0.92451000000000005
aF0.93459999999999999
aF0.93593000000000004
aF0.93955
aF0.93140999999999996
aF0.93759000000000003
aF0.93886000000000003
aF0.93220999999999998
aF0.93759000000000003
aF0.93667
aF0.93394999999999995
aF0.93664999999999998
aF0.93784000000000001
aF0.93613000000000002
aF0.93825000000000003
aF0.92735000000000001
aF0.92930999999999997
aF0.91486000000000001
aF0.90822000000000003
aF0.93140999999999996
aF0.91271000000000002
aF0.91979
aF0.93645999999999996
aF0.83359000000000005
aF0.92008999999999996
aF0.90864
aF0.91735
aF0.92391000000000001
aF0.93345999999999996
aF0.93535999999999997
aF0.93593000000000004
aF0.93345999999999996
aF0.91130999999999995
aF0.85079000000000005
aF0.91088999999999998
aF0.93500000000000005
aF0.93933
aF0.94055999999999995
aF0.93759000000000003
aF0.93667
aF0.93855
aF0.93711
aF0.93454000000000004
aF0.93655999999999995
aF0.93667
aF0.93220999999999998
aF0.93535999999999997
aF0.92161000000000004
aF0.93500000000000005
aF0.93759000000000003
aF0.93784999999999996
aF0.87463000000000002
aF0.92107000000000006
aF0.93140999999999996
aF0.93933
aF0.91735
aF0.93645999999999996
aF0.93732000000000004
aF0.92244000000000004
aF0.87463000000000002
aF0.93803000000000003
aF0.93886000000000003
aF0.92930999999999997
aF0.93259000000000003
aF0.90444999999999998
aF0.93140999999999996
aF0.88602999999999998
aF0.88441999999999998
aF0.93454000000000004
aF0.93593000000000004
aF0.87841999999999998
aF0.93622000000000005
aF0.92930999999999997
aF0.93259000000000003
aF0.84597
aF0.93140999999999996
aF0.93664999999999998
aF0.93711
aF0.90539000000000003
aF0.93613000000000002
aF0.94123999999999997
aF0.90395000000000003
aF0.90864
aF0.92369000000000001
aF0.92479
aF0.93342000000000003
aF0.93732000000000004
aF0.94094
aF0.93933
aF0.93886000000000003
aF0.93855
aF0.92930999999999997
aF0.93459999999999999
aF0.87619999999999998
aF0.93732000000000004
aF0.93437000000000003
aF0.93420000000000003
aF0.91735
aF0.90822000000000003
aF0.93593000000000004
aF0.93738999999999995
aF0.93711
aF0.93454000000000004
aF0.91271000000000002
aF0.92161000000000004
aF0.93345999999999996
aF0.93759000000000003
aF0.93593000000000004
aF0.93759000000000003
aF0.93667
aF0.93045
aF0.93645999999999996
aF0.93833999999999995
aF0.93708000000000002
aF0.93345999999999996
aF0.93655999999999995
aF0.93825000000000003
aF0.93454000000000004
aF0.93655999999999995
aF0.93394999999999995
aF0.93345999999999996
aF0.93759000000000003
aF0.93593000000000004
aF0.93259000000000003
aF0.87356999999999996
aF0.93469999999999998
aF0.88446000000000002
aF0.93593000000000004
aF0.93955
aF0.93711
aF0.93655999999999995
aF0.93886000000000003
aF0.94123999999999997
aF0.87843000000000004
aF0.91507000000000005
aF0.92107000000000006
aF0.90798999999999996
aF0.90739000000000003
aF0.92107000000000006
aF0.93833999999999995
aF0.93633999999999995
aF0.92479
aF0.93537999999999999
aF0.88129999999999997
aF0.93879999999999997
aF0.92930999999999997
aF0.93259000000000003
aF0.93593000000000004
aF0.93220999999999998
aF0.91766000000000003
aF0.92479
aF0.93140999999999996
aF0.93759000000000003
aF0.93708000000000002
aF0.93500000000000005
aF0.93259000000000003
aF0.93501999999999996
aF0.90864
aF0.91766000000000003
aF0.79237000000000002
aF0.93140999999999996
aF0.93259000000000003
aF0.93593000000000004
aF0.92930999999999997
aF0.93259000000000003
aF0.93689999999999996
aF0.93459999999999999
aF0.93394999999999995
aF0.93711
aF0.92930999999999997
aF0.93593000000000004
aF0.93711
aF0.93140999999999996
aF0.93459999999999999
aF0.93886000000000003
aF0.93655999999999995
aF0.93784999999999996
aF0.93738999999999995
aF0.93345999999999996
aF0.93803000000000003
aF0.93784999999999996
aF0.80069000000000001
aF0.78222999999999998
aF0.78425
aF0.79576000000000002
aF0.78425
aF0.78944999999999999
aF0.79020999999999997
aF0.79723999999999995
aF0.77095999999999998
aF0.79554999999999998
aF0.74644999999999995
aF0.71528999999999998
aF0.80079
aF0.69852000000000003
aF0.64439999999999997
aF0.74029
aF0.77403
aF0.80879999999999996
aF0.67430999999999996
aF0.74019999999999997
aF0.79079999999999995
aF0.79290000000000005
aF0.79757999999999996
aF0.67869000000000002
aF0.79834000000000005
aF0.79757999999999996
aF0.80373000000000006
aF0.63705999999999996
aF0.63009000000000004
aF0.63344
aF0.80569000000000002
aF0.74592999999999998
aF0.42381000000000002
aF0.66593999999999998
aF0.43237999999999999
aF0.78761999999999999
aF0.78747
aF0.78254999999999997
aF0.80079
aF0.81481999999999999
aF0.53598000000000001
aF0.79224000000000006
aF0.77707999999999999
aF0.73277000000000003
aF0.67869000000000002
aF0.79052999999999995
aF0.80203999999999998
aF0.78520000000000001
aF0.64281999999999995
aF0.63009000000000004
aF0.66264999999999996
aF0.66825000000000001
aF0.69306000000000001
aF0.78520000000000001
aF0.78425
aF0.74029
aF0.65769
aF0.79079999999999995
aF0.79834000000000005
aF0.78520000000000001
aF0.57264000000000004
aF0.78222999999999998
aF0.78254999999999997
aF0.77095999999999998
aF0.72302
aF0.66237999999999997
aF0.78927000000000003
aF0.68825000000000003
aF0.80356000000000005
aF0.78254999999999997
aF0.50792000000000004
aF0.79368000000000005
aF0.56860999999999995
aF0.78222999999999998
aF0.79052999999999995
aF0.77880000000000005
aF0.78747
aF0.81344000000000005
aF0.79554999999999998
aF0.80879999999999996
aF0.78646000000000005
aF0.67396
aF0.78254999999999997
aF0.65444999999999998
aF0.79290000000000005
aF0.80079
aF0.80474000000000001
aF0.78090999999999999
aF0.80069000000000001
aF0.80373000000000006
aF0.79110999999999998
aF0.78761999999999999
aF0.78761999999999999
aF0.80569000000000002
aF0.72057000000000004
aF0.69588000000000005
aF0.80373000000000006
aF0.80715000000000003
aF0.60511000000000004
aF0.67232000000000003
aF0.78520000000000001
aF0.79020999999999997
aF0.78254999999999997
aF0.79554999999999998
aF0.79554999999999998
aF0.78520000000000001
aF0.77880000000000005
aF0.78761999999999999
aF0.52178999999999998
aF0.70670999999999995
aF0.74173
aF0.79551000000000005
aF0.79920000000000002
aF0.78793000000000002
aF0.78646000000000005
aF0.58355999999999997
aF0.12792999999999999
aF0.070290000000000005
aF0.56437999999999999
aF0.20768
aF0.070290000000000005
aF0.23721999999999999
aF0.32064999999999999
aF0.19273000000000001
aF0.16314999999999999
aF0.28272000000000003
aF0.11644
aF0.036670000000000001
aF0.082170000000000007
aF0.13616
aF0.83106999999999998
aF0.28103
aF0.21718000000000001
aF0.039550000000000002
asS'dp'
p19
(lp20
F0.62214000000000003
aF0.62624000000000002
aF0.45289000000000001
aF0.48115000000000002
aF0.59972000000000003
aF0.83657999999999999
aF0.62873999999999997
aF0.61682999999999999
aF0.62214000000000003
aF0.58809999999999996
aF0.59955999999999998
aF0.2019
aF0.59955999999999998
aF0.62214000000000003
aF0.62624000000000002
aF0.64434999999999998
aF0.63032999999999995
aF0.61682999999999999
aF0.62624000000000002
aF0.61506000000000005
aF0.63266
aF0.63266
aF0.46195999999999998
aF0.63266
aF0.45202999999999999
aF0.63729000000000002
aF0.48187000000000002
aF0.17274999999999999
aF0.44029000000000001
aF0.30631000000000003
aF0.62873999999999997
aF0.63744999999999996
aF0.24962999999999999
aF0.1202
aF0.43646000000000001
aF0.58809999999999996
aF0.42671999999999999
aF0.2918
aF0.2918
aF0.30468000000000001
aF0.71179999999999999
aF0.44585000000000002
aF0.63032999999999995
aF0.61682999999999999
aF0.62624000000000002
aF0.47376000000000001
aF0.42251
aF0.53510999999999997
aF0.59955999999999998
aF0.65271000000000001
aF0.55674000000000001
aF0.48141
aF0.20488999999999999
aF0.43845000000000001
aF0.35998999999999998
aF0.62624000000000002
aF0.51698
aF0.2485
aF0.54505000000000003
aF0.14924999999999999
aF0.28360999999999997
aF0.45699000000000001
aF0.42924000000000001
aF0.29752000000000001
aF0.44029000000000001
aF0.59233999999999998
aF0.45746999999999999
aF0.61682999999999999
aF0.60750000000000004
aF0.25527
aF0.60375000000000001
aF0.065860000000000002
aF0.39422000000000001
aF0.60614000000000001
aF0.65910999999999997
aF0.46504000000000001
aF0.59955999999999998
aF0.44585000000000002
aF0.55859000000000003
aF0.78122000000000003
aF0.62624000000000002
aF0.63032999999999995
aF0.15340999999999999
aF0.62624000000000002
aF0.63266
aF0.63266
aF0.63917999999999997
aF0.62624000000000002
aF0.22739999999999999
aF0.37988
aF0.36701
aF0.84852000000000005
aF0.85541999999999996
aF0.62214000000000003
aF0.61506000000000005
aF0.84923999999999999
aF0.41821999999999998
aF0.46212999999999999
aF0.59535000000000005
aF0.57738
aF0.62624000000000002
aF0.46939999999999998
aF0.63917999999999997
aF0.44029000000000001
aF0.45451000000000003
aF0.12499
aF0.43902000000000002
aF0.47394999999999998
aF0.64651000000000003
aF0.62214000000000003
aF0.63729000000000002
aF0.61682999999999999
aF0.45746999999999999
aF0.62214000000000003
aF0.42981999999999998
aF0.62214000000000003
aF0.62624000000000002
aF0.31850000000000001
aF0.57516
aF0.61506000000000005
aF0.35421999999999998
aF0.28820000000000001
aF0.20826
aF0.62214000000000003
aF0.45289000000000001
aF0.61682999999999999
aF0.64132999999999996
aF0.43315999999999999
aF0.60614000000000001
aF0.61682999999999999
aF0.62214000000000003
aF0.45757999999999999
aF0.62624000000000002
aF0.13444
aF0.43719000000000002
aF0.35022999999999999
aF0.61682999999999999
aF0.64834999999999998
aF0.48324
aF0.46193000000000001
aF0.63032999999999995
aF0.60375000000000001
aF0.47281000000000001
aF0.62653999999999999
aF0.59955999999999998
aF0.63032999999999995
aF0.61817999999999995
aF0.59897999999999996
aF0.56491000000000002
aF0.63032999999999995
aF0.43475999999999998
aF0.39649000000000001
aF0.62624000000000002
aF0.60677000000000003
aF0.13983000000000001
aF0.52139999999999997
aF0.20619999999999999
aF0.62624000000000002
aF0.73592999999999997
aF0.84072000000000002
aF0.43845000000000001
aF0.17373
aF0.064509999999999998
aF0.46399000000000001
aF0.17383999999999999
aF0.60375000000000001
aF0.62214000000000003
aF0.62214000000000003
aF0.61107
aF0.62624000000000002
aF0.22287000000000001
aF0.47376000000000001
aF0.49453000000000003
aF0.61150000000000004
aF0.62624000000000002
aF0.43430999999999997
aF0.040770000000000001
aF0.62977000000000005
aF0.64434999999999998
aF0.14007
aF0.86099999999999999
aF0.86658999999999997
aF0.61682999999999999
aF0.45451000000000003
aF0.48560999999999999
aF0.47281000000000001
aF0.63266
aF0.47376000000000001
aF0.41022999999999998
aF0.45017000000000001
aF0.17199
aF0.2326
aF0.084959999999999994
aF0.44957999999999998
aF0.45451000000000003
aF0.46195999999999998
aF0.058869999999999999
aF0.78927000000000003
aF0.61150000000000004
aF0.46193000000000001
aF0.60614000000000001
aF0.60614000000000001
aF0.33976000000000001
aF0.63087000000000004
aF0.42920999999999998
aF0.61150000000000004
aF0.62624000000000002
aF0.62624000000000002
aF0.61682999999999999
aF0.46193000000000001
aF0.59535000000000005
aF0.21573000000000001
aF0.53956999999999999
aF0.40972999999999998
aF0.62568000000000001
aF0.63266
aF0.44829000000000002
aF0.63032999999999995
aF0.61150000000000004
aF0.61682999999999999
aF0.64834999999999998
aF0.64132999999999996
aF0.46193000000000001
aF0.59972000000000003
aF0.61506000000000005
aF0.63266
aF0.62624000000000002
aF0.63087000000000004
aF0.13667000000000001
aF0.60614000000000001
aF0.59955999999999998
aF0.58447000000000005
aF0.61682999999999999
aF0.60211999999999999
aF0.34992000000000001
aF0.59955999999999998
aF0.63266
aF0.43719000000000002
aF0.62873999999999997
aF0.61682999999999999
aF0.46195999999999998
aF0.053929999999999999
aF0.56111
aF0.58447000000000005
aF0.84923999999999999
aF0.44029000000000001
aF0.26919999999999999
aF0.35826000000000002
aF0.29553000000000001
aF0.65559000000000001
aF0.61682999999999999
aF0.45699000000000001
aF0.63917999999999997
aF0.63032999999999995
aF0.63266
aF0.65966999999999998
aF0.43719000000000002
aF0.62624000000000002
aF0.42924000000000001
aF0.61506000000000005
aF0.54069999999999996
aF0.61682999999999999
aF0.63744999999999996
aF0.048559999999999999
aF0.61506000000000005
aF0.60614000000000001
aF0.61682999999999999
aF0.61521999999999999
aF0.62624000000000002
aF0.39795999999999998
aF0.65559000000000001
aF0.63032999999999995
aF0.65459999999999996
aF0.49108000000000002
aF0.63729000000000002
aF0.84072000000000002
aF0.26249
aF0.46556999999999998
aF0.46504000000000001
aF0.61682999999999999
aF0.33872000000000002
aF0.27556999999999998
aF0.43669999999999998
aF0.62214000000000003
aF0.61682999999999999
aF0.43845000000000001
aF0.62214000000000003
aF0.17838000000000001
aF0.61150000000000004
aF0.65459999999999996
aF0.60375000000000001
aF0.65910999999999997
aF0.59535000000000005
aF0.62624000000000002
aF0.43719000000000002
aF0.43719000000000002
aF0.61150000000000004
aF0.63729000000000002
aF0.44212000000000001
aF0.60614000000000001
aF0.59955999999999998
aF0.47815000000000002
aF0.46504000000000001
aF0.62624000000000002
aF0.62624000000000002
aF0.45385999999999999
aF0.14568999999999999
aF0.12325999999999999
aF0.44581999999999999
aF0.62214000000000003
aF0.13450999999999999
aF0.46406999999999998
aF0.65232999999999997
aF0.46504000000000001
aF0.62624000000000002
aF0.46556999999999998
aF0.46639999999999998
aF0.23585
aF0.59955999999999998
aF0.48026000000000002
aF0.44585000000000002
aF0.76041000000000003
aF0.36892000000000003
aF0.85326999999999997
aF0.63266
aF0.61506000000000005
aF0.62214000000000003
aF0.63266
aF0.30552000000000001
aF0.45757999999999999
aF0.30413000000000001
aF0.44829000000000002
aF0.44212000000000001
aF0.24776000000000001
aF0.61682999999999999
aF0.65559000000000001
aF0.62214000000000003
aF0.43719000000000002
aF0.48560999999999999
aF0.61682999999999999
aF0.64434999999999998
aF0.34709000000000001
aF0.13062000000000001
aF0.20988999999999999
aF0.26743
aF0.63032999999999995
aF0.61506000000000005
aF0.62214000000000003
aF0.63266
aF0.85326999999999997
aF0.71643000000000001
aF0.64834999999999998
aF0.22477
aF0.069570000000000007
aF0.61204999999999998
aF0.63087000000000004
aF0.095850000000000005
aF0.47625000000000001
aF0.61150000000000004
aF0.80059999999999998
aF0.58447000000000005
aF0.62214000000000003
aF0.36832999999999999
aF0.45385999999999999
aF0.46956999999999999
aF0.60614000000000001
asS'multi'
p21
(lp22
F0.58355999999999997
aF0.12792999999999999
aF0.070290000000000005
aF0.56437999999999999
aF0.20768
aF0.070290000000000005
aF0.23721999999999999
aF0.32064999999999999
aF0.19273000000000001
aF0.16314999999999999
aF0.28272000000000003
aF0.11644
aF0.036670000000000001
aF0.082170000000000007
aF0.13616
aF0.83106999999999998
aF0.28103
aF0.21718000000000001
aF0.039550000000000002
asS'no'
p23
(lp24
F0.80069000000000001
aF0.78222999999999998
aF0.78425
aF0.79576000000000002
aF0.78425
aF0.78944999999999999
aF0.79020999999999997
aF0.79723999999999995
aF0.77095999999999998
aF0.79554999999999998
aF0.74644999999999995
aF0.71528999999999998
aF0.80079
aF0.69852000000000003
aF0.64439999999999997
aF0.74029
aF0.77403
aF0.80879999999999996
aF0.67430999999999996
aF0.74019999999999997
aF0.79079999999999995
aF0.79290000000000005
aF0.79757999999999996
aF0.67869000000000002
aF0.79834000000000005
aF0.79757999999999996
aF0.80373000000000006
aF0.63705999999999996
aF0.63009000000000004
aF0.63344
aF0.80569000000000002
aF0.74592999999999998
aF0.42381000000000002
aF0.66593999999999998
aF0.43237999999999999
aF0.78761999999999999
aF0.78747
aF0.78254999999999997
aF0.80079
aF0.81481999999999999
aF0.53598000000000001
aF0.79224000000000006
aF0.77707999999999999
aF0.73277000000000003
aF0.67869000000000002
aF0.79052999999999995
aF0.80203999999999998
aF0.78520000000000001
aF0.64281999999999995
aF0.63009000000000004
aF0.66264999999999996
aF0.66825000000000001
aF0.69306000000000001
aF0.78520000000000001
aF0.78425
aF0.74029
aF0.65769
aF0.79079999999999995
aF0.79834000000000005
aF0.78520000000000001
aF0.57264000000000004
aF0.78222999999999998
aF0.78254999999999997
aF0.77095999999999998
aF0.72302
aF0.66237999999999997
aF0.78927000000000003
aF0.68825000000000003
aF0.80356000000000005
aF0.78254999999999997
aF0.50792000000000004
aF0.79368000000000005
aF0.56860999999999995
aF0.78222999999999998
aF0.79052999999999995
aF0.77880000000000005
aF0.78747
aF0.81344000000000005
aF0.79554999999999998
aF0.80879999999999996
aF0.78646000000000005
aF0.67396
aF0.78254999999999997
aF0.65444999999999998
aF0.79290000000000005
aF0.80079
aF0.80474000000000001
aF0.78090999999999999
aF0.80069000000000001
aF0.80373000000000006
aF0.79110999999999998
aF0.78761999999999999
aF0.78761999999999999
aF0.80569000000000002
aF0.72057000000000004
aF0.69588000000000005
aF0.80373000000000006
aF0.80715000000000003
aF0.60511000000000004
aF0.67232000000000003
aF0.78520000000000001
aF0.79020999999999997
aF0.78254999999999997
aF0.79554999999999998
aF0.79554999999999998
aF0.78520000000000001
aF0.77880000000000005
aF0.78761999999999999
aF0.52178999999999998
aF0.70670999999999995
aF0.74173
aF0.79551000000000005
aF0.79920000000000002
aF0.78793000000000002
aF0.78646000000000005
asS'tt'
p25
(lp26
F0.44080000000000003
aF0.86046
aF0.93394999999999995
aF0.92596000000000001
aF0.93037000000000003
aF0.92713000000000001
aF0.93633999999999995
aF0.88317999999999997
aF0.90720000000000001
aF0.93732000000000004
aF0.93537999999999999
aF0.93664999999999998
aF0.93010999999999999
aF0.93732000000000004
aF0.77947999999999995
aF0.92403000000000002
aF0.92171000000000003
aF0.93537999999999999
aF0.86141999999999996
aF0.88058999999999998
aF0.85465000000000002
aF0.93149999999999999
aF0.94005000000000005
aF0.88275000000000003
aF0.93833999999999995
aF0.92113999999999996
aF0.93501999999999996
aF0.90254999999999996
aF0.93250999999999995
aF0.93613000000000002
aF0.92864999999999998
aF0.89964999999999995
aF0.93010999999999999
aF0.69459000000000004
aF0.79484999999999995
aF0.93149999999999999
aF0.92244000000000004
aF0.86963999999999997
aF0.9244
aF0.83072999999999997
aF0.76670000000000005
aF0.78310999999999997
aF0.29736000000000001
aF0.77947999999999995
aF0.94254000000000004
aF0.93537999999999999
aF0.90158000000000005
aF0.88092000000000004
aF0.88578000000000001
aF0.92396
aF0.91019000000000005
aF0.87256
aF0.91595000000000004
aF0.93664999999999998
aF0.84779000000000004
aF0.93437000000000003
aF0.89668000000000003
aF0.91371999999999998
aF0.92008999999999996
aF0.93593000000000004
aF0.86162000000000005
aF0.90686999999999995
aF0.90722000000000003
aF0.78898000000000001
aF0.49451000000000001
aF0.84240999999999999
aF0.88146000000000002
aF0.79361999999999999
aF0.81057999999999997
aF0.80003999999999997
aF0.74117999999999995
aF0.91761000000000004
aF0.91625000000000001
aF0.87653000000000003
aF0.91574
aF0.76966000000000001
aF0.93537999999999999
aF0.61240000000000006
aF0.87129999999999996
aF0.88800000000000001
aF0.90373999999999999
aF0.85833999999999999
aF0.73373999999999995
aF0.93825000000000003
aF0.93339000000000005
aF0.56599999999999995
aF0.88270999999999999
aF0.64263000000000003
aF0.85226000000000002
aF0.90464
aF0.90866000000000002
aF0.88344999999999996
aF0.91537000000000002
aF0.89285000000000003
aF0.85424
aF0.87773999999999996
aF0.92449000000000003
aF0.93593000000000004
aF0.89956999999999998
aF0.48463000000000001
aF0.93310999999999999
aF0.92723
aF0.92008999999999996
aF0.93250999999999995
aF0.88224000000000002
aF0.93825000000000003
aF0.91400000000000003
aF0.91473000000000004
aF0.93613000000000002
aF0.55900000000000005
aF0.93825000000000003
aF0.93010999999999999
aF0.93339000000000005
aF0.92573000000000005
aF0.77978000000000003
aF0.87099000000000004
aF0.71953
aF0.78573999999999999
aF0.85846
aF0.79674
aF0.93689999999999996
aF0.69121999999999995
aF0.87107000000000001
aF0.83262999999999998
aF0.91112000000000004
aF0.93732000000000004
aF0.81455
aF0.93537999999999999
aF0.28193000000000001
aF0.87773999999999996
aF0.76742999999999995
aF0.91371999999999998
aF0.92966000000000004
aF0.9093
aF0.62190000000000001
aF0.91537000000000002
aF0.93096000000000001
aF0.85318000000000005
aF0.79074
aF0.93537999999999999
aF0.83762999999999999
aF0.93496000000000001
aF0.86760999999999999
aF0.84225000000000005
aF0.93732000000000004
aF0.93010999999999999
aF0.93537999999999999
aF0.93613000000000002
aF0.85072999999999999
aF0.93613000000000002
aF0.93149999999999999
aF0.84519
aF0.92906999999999995
aF0.90495000000000003
aF0.93149999999999999
aF0.93310999999999999
aF0.31484000000000001
aF0.90312000000000003
aF0.81999
aF0.82867000000000002
aF0.88092000000000004
aF0.93633999999999995
aF0.93037000000000003
aF0.93537999999999999
aF0.92776999999999998
aF0.91979
aF0.91071999999999997
aF0.90944999999999998
aF0.93149999999999999
aF0.93537999999999999
aF0.84194999999999998
aF0.88454999999999995
aF0.90874999999999995
aF0.88927999999999996
aF0.91627999999999998
aF0.90158000000000005
aF0.90866000000000002
aF0.86026000000000002
aF0.22477
aF0.63141999999999998
aF0.90869
aF0.78902000000000005
aF0.78741000000000005
aF0.86900999999999995
aF0.53842999999999996
aF0.84618000000000004
aF0.88114999999999999
aF0.82938999999999996
aF0.92603999999999997
aF0.92945999999999995
aF0.88183
aF0.93537999999999999
aF0.93925000000000003
aF0.88927999999999996
aF0.9284
aF0.86487000000000003
aF0.93045
aF0.93544000000000005
aF0.88819000000000004
aF0.92893000000000003
aF0.93437000000000003
aF0.82598000000000005
aF0.93284
aF0.92776999999999998
aF0.93667
aF0.91625000000000001
aF0.92403000000000002
aF0.93613000000000002
aF0.88744999999999996
aF0.93886000000000003
aF0.93339000000000005
aF0.81405000000000005
aF0.87548999999999999
aF0.80557999999999996
aF0.85936999999999997
aF0.84247000000000005
aF0.86667000000000005
aF0.83443999999999996
aF0.86487000000000003
aF0.87612999999999996
aF0.90549999999999997
aF0.91256000000000004
aF0.91757999999999995
aF0.92723
aF0.93149999999999999
aF0.75432999999999995
aF0.88931000000000004
aF0.91627999999999998
aF0.80645999999999995
aF0.90495000000000003
aF0.93593000000000004
aF0.89019999999999999
aF0.92723
aF0.93537999999999999
aF0.93149999999999999
aF0.86070999999999998
aF0.93174000000000001
aF0.84240999999999999
aF0.82452999999999999
aF0.93201000000000001
aF0.93310999999999999
aF0.82342000000000004
aF0.93339000000000005
aF0.86324000000000001
aF0.68774999999999997
aF0.91019000000000005
aF0.93437000000000003
aF0.83852000000000004
aF0.93339000000000005
aF0.90866000000000002
aF0.92171000000000003
aF0.93833999999999995
aF0.93633999999999995
aF0.93339000000000005
aF0.9244
aF0.91395000000000004
aF0.91761000000000004
aF0.90861999999999998
aF0.88058999999999998
aF0.92784
aF0.92193999999999998
aF0.93010999999999999
aF0.93096000000000001
aF0.90307999999999999
aF0.9284
aF0.93833999999999995
aF0.36137000000000002
aF0.92945999999999995
aF0.93593000000000004
aF0.93149999999999999
aF0.91537000000000002
aF0.93008000000000002
aF0.92603999999999997
aF0.87102000000000002
aF0.83359000000000005
aF0.77978000000000003
aF0.69896999999999998
aF0.80557999999999996
aF0.86487000000000003
aF0.93764000000000003
aF0.93149999999999999
aF0.93833999999999995
aF0.92242999999999997
aF0.93447000000000002
aF0.88895999999999997
aF0.87975000000000003
aF0.84545999999999999
aF0.85789000000000004
aF0.93208000000000002
aF0.92906999999999995
aF0.55128999999999995
aF0.91473000000000004
aF0.3931
aF0.93855
aF0.92008999999999996
aF0.92906999999999995
aF0.91400000000000003
aF0.77009000000000005
aF0.78478999999999999
aF0.93149999999999999
aF0.91371999999999998
aF0.92893000000000003
aF0.93613000000000002
aF0.93010999999999999
aF0.93201000000000001
aF0.88931000000000004
aF0.93437000000000003
aF0.93925000000000003
aF0.86180000000000001
aF0.88207000000000002
aF0.93072999999999995
aF0.23052
aF0.84907999999999995
aF0.86414000000000002
aF0.91473000000000004
aF0.93613000000000002
aF0.93010999999999999
aF0.92459999999999998
aF0.91469999999999996
aF0.87973999999999997
aF0.79520000000000002
aF0.93008000000000002
aF0.93437000000000003
aF0.59968999999999995
aF0.93250999999999995
aF0.86026000000000002
aF0.93833999999999995
aF0.93784999999999996
aF0.92459999999999998
aF0.93072999999999995
aF0.91574
aF0.93149999999999999
aF0.82338
aF0.85585999999999995
aF0.93339000000000005
aF0.92603999999999997
aF0.88160000000000005
aF0.79849000000000003
aF0.92449000000000003
aF0.93732000000000004
aF0.93732000000000004
aF0.93537999999999999
aF0.87256
aF0.91400000000000003
aF0.87961999999999996
aF0.55666000000000004
aF0.89731000000000005
aF0.93250999999999995
aF0.93732000000000004
aF0.85148000000000001
aF0.93693000000000004
aF0.86260999999999999
aF0.92449000000000003
aF0.93732000000000004
aF0.93008000000000002
aF0.91761000000000004
aF0.89451000000000003
aF0.90158000000000005
aF0.91249000000000002
aF0.91256000000000004
aF0.93537999999999999
aF0.81023999999999996
aF0.74270999999999998
aF0.88812000000000002
aF0.88454999999999995
aF0.93149999999999999
aF0.93833999999999995
aF0.90866000000000002
aF0.90312000000000003
aF0.93208000000000002
aF0.93196999999999997
aF0.59426999999999996
aF0.87470000000000003
aF0.93879999999999997
aF0.90549999999999997
aF0.88536000000000004
aF0.93140000000000001
aF0.87846000000000002
aF0.93633999999999995
aF0.93613000000000002
aF0.92459999999999998
aF0.90686999999999995
aF0.93008000000000002
aF0.91371999999999998
aF0.73365000000000002
aF0.92830000000000001
aF0.93593000000000004
aF0.93537999999999999
aF0.93976999999999999
aF0.93732000000000004
aF0.73080999999999996
aF0.85836000000000001
aF0.93437000000000003
aF0.89542999999999995
aF0.90464
aF0.86960999999999999
aF0.92747999999999997
aF0.84074000000000004
aF0.83809
aF0.87951000000000001
aF0.93613000000000002
aF0.91256000000000004
aF0.93339000000000005
aF0.85631000000000002
aF0.87148999999999999
aF0.91320000000000001
aF0.83018000000000003
aF0.93633999999999995
aF0.93149999999999999
as.