(dp0
S'multi3'
p1
(dp2
F0.11
F1.0
ssS'multi2'
p3
(dp4
F0.44
F0.5
sF0.10000000000000001
F0.5
ssS'multi'
p5
(dp6
F0.44
F0.33333333333333331
sF0.11
F0.33333333333333331
sF0.10000000000000001
F0.33333333333333331
ssS'multi5'
p7
(dp8
sS'multi4'
p9
(dp10
sS'bn'
p11
(dp12
F0.42999999999999999
F0.090909090909090912
sF0.57999999999999996
F0.045454545454545456
sF0.60999999999999999
F0.13636363636363635
sF0.52000000000000002
F0.045454545454545456
sF0.63
F0.090909090909090912
sF0.33000000000000002
F0.045454545454545456
sF0.59999999999999998
F0.045454545454545456
sF0.12
F0.045454545454545456
sF0.17000000000000001
F0.045454545454545456
sF0.41999999999999998
F0.045454545454545456
sF0.47999999999999998
F0.045454545454545456
sF0.45000000000000001
F0.090909090909090912
sF0.62
F0.090909090909090912
sF0.58999999999999997
F0.045454545454545456
sF0.53000000000000003
F0.045454545454545456
sF0.16
F0.045454545454545456
ssS'no'
p13
(dp14
F0.75
F0.026178010471204188
sF0.68999999999999995
F0.015706806282722512
sF0.63
F0.015706806282722512
sF0.48999999999999999
F0.010471204188481676
sF0.40999999999999998
F0.005235602094240838
sF0.76000000000000001
F0.036649214659685861
sF0.69999999999999996
F0.026178010471204188
sF0.16
F0.005235602094240838
sF0.57999999999999996
F0.010471204188481676
sF0.77000000000000002
F0.062827225130890049
sF0.70999999999999996
F0.010471204188481676
sF0.65000000000000002
F0.031413612565445025
sF0.64000000000000001
F0.010471204188481676
sF0.58999999999999997
F0.020942408376963352
sF0.78000000000000003
F0.1099476439790576
sF0.71999999999999997
F0.041884816753926704
sF0.66000000000000003
F0.020942408376963352
sF0.59999999999999998
F0.005235602094240838
sF0.79000000000000004
F0.16753926701570682
sF0.72999999999999998
F0.020942408376963352
sF0.56999999999999995
F0.005235602094240838
sF0.67000000000000004
F0.036649214659685861
sF0.81000000000000005
F0.062827225130890049
sF0.60999999999999999
F0.010471204188481676
sF0.80000000000000004
F0.094240837696335081
sF0.55000000000000004
F0.015706806282722512
sF0.54000000000000004
F0.015706806282722512
sF0.73999999999999999
F0.031413612565445025
sF0.38
F0.005235602094240838
sF0.53000000000000003
F0.010471204188481676
sF0.68000000000000005
F0.015706806282722512
sF0.13
F0.005235602094240838
sF0.62
F0.010471204188481676
sF0.51000000000000001
F0.005235602094240838
sF0.56000000000000005
F0.020942408376963352
ssS'ap'
p15
(dp16
F0.5
F0.0061349693251533744
sF0.75
F0.012269938650306749
sF0.37
F0.0061349693251533744
sF0.59999999999999998
F0.0061349693251533744
sF0.46999999999999997
F0.0061349693251533744
sF0.44
F0.0061349693251533744
sF0.48999999999999999
F0.0061349693251533744
sF0.35999999999999999
F0.012269938650306749
sF0.81999999999999995
F0.049079754601226995
sF0.51000000000000001
F0.018404907975460124
sF0.70999999999999996
F0.012269938650306749
sF0.34999999999999998
F0.012269938650306749
sF0.69999999999999996
F0.018404907975460124
sF0.58999999999999997
F0.0061349693251533744
sF0.64000000000000001
F0.012269938650306749
sF0.57999999999999996
F0.012269938650306749
sF0.059999999999999998
F0.0061349693251533744
sF0.77000000000000002
F0.036809815950920248
sF0.67000000000000004
F0.0061349693251533744
sF0.23999999999999999
F0.0061349693251533744
sF0.45000000000000001
F0.018404907975460124
sF0.83999999999999997
F0.10429447852760736
sF0.39000000000000001
F0.0061349693251533744
sF0.71999999999999997
F0.018404907975460124
sF0.66000000000000003
F0.024539877300613498
sF0.29999999999999999
F0.012269938650306749
sF0.84999999999999998
F0.09202453987730061
sF0.40000000000000002
F0.012269938650306749
sF0.54000000000000004
F0.0061349693251533744
sF0.82999999999999996
F0.085889570552147243
sF0.60999999999999999
F0.0061349693251533744
sF0.72999999999999998
F0.018404907975460124
sF0.56999999999999995
F0.030674846625766871
sF0.23000000000000001
F0.012269938650306749
sF0.85999999999999999
F0.042944785276073622
sF0.55000000000000004
F0.0061349693251533744
sF0.80000000000000004
F0.049079754601226995
sF0.79000000000000004
F0.049079754601226995
sF0.73999999999999999
F0.024539877300613498
sF0.63
F0.0061349693251533744
sF0.78000000000000003
F0.030674846625766871
sF0.68000000000000005
F0.018404907975460124
sF0.62
F0.012269938650306749
sF0.76000000000000001
F0.030674846625766871
sF0.81000000000000005
F0.024539877300613498
ssS'single'
p17
(dp18
F0.75
F0.0085937500000000007
sF0.5
F0.0023437499999999999
sF0.25
F0.0015625000000000001
sF0.12
F0.0015625000000000001
sF0.38
F0.00390625
sF0.47999999999999998
F0.00390625
sF0.48999999999999999
F0.00390625
sF0.23999999999999999
F0.0023437499999999999
sF0.13
F0.00078125000000000004
sF0.67000000000000004
F0.0070312500000000002
sF0.68999999999999995
F0.0023437499999999999
sF0.78000000000000003
F0.0234375
sF0.40000000000000002
F0.0023437499999999999
sF0.79000000000000004
F0.039843749999999997
sF0.46000000000000002
F0.0062500000000000003
sF0.84999999999999998
F0.02734375
sF0.55000000000000004
F0.0031250000000000002
sF0.050000000000000003
F0.00078125000000000004
sF0.80000000000000004
F0.0234375
sF0.90000000000000002
F0.04296875
sF0.39000000000000001
F0.0015625000000000001
sF0.51000000000000001
F0.00390625
sF0.070000000000000007
F0.0023437499999999999
sF0.19
F0.0015625000000000001
sF0.60999999999999999
F0.01328125
sF0.71999999999999997
F0.0093749999999999997
sF0.56999999999999995
F0.010937499999999999
sF0.41999999999999998
F0.0023437499999999999
sF0.68000000000000005
F0.0062500000000000003
sF0.57999999999999996
F0.0078125
sF0.40999999999999998
F0.0015625000000000001
sF0.64000000000000001
F0.0093749999999999997
sF0.83999999999999997
F0.02734375
sF0.14000000000000001
F0.00078125000000000004
sF0.29999999999999999
F0.00390625
sF0.14999999999999999
F0.00078125000000000004
sF0.20000000000000001
F0.00078125000000000004
sF0.81000000000000005
F0.017187500000000001
sF0.85999999999999999
F0.01953125
sF0.28000000000000003
F0.0031250000000000002
sF0.76000000000000001
F0.012500000000000001
sF0.77000000000000002
F0.017968749999999999
sF0.87
F0.034375000000000003
sF0.63
F0.01171875
sF0.72999999999999998
F0.0070312500000000002
sF0.92000000000000004
F0.0859375
sF0.89000000000000001
F0.032812500000000001
sF0.93999999999999995
F0.01171875
sF0.22
F0.0015625000000000001
sF0.45000000000000001
F0.012500000000000001
sF0.26000000000000001
F0.00078125000000000004
sF0.93000000000000005
F0.1640625
sF0.91000000000000003
F0.067968749999999994
sF0.44
F0.0085937500000000007
sF0.66000000000000003
F0.0093749999999999997
sF0.81999999999999995
F0.017968749999999999
sF0.23000000000000001
F0.0023437499999999999
sF0.16
F0.0023437499999999999
sF0.88
F0.025000000000000001
sF0.53000000000000003
F0.0031250000000000002
sF0.34000000000000002
F0.0015625000000000001
sF0.62
F0.0140625
sF0.17000000000000001
F0.0023437499999999999
sF0.42999999999999999
F0.0031250000000000002
sF0.20999999999999999
F0.0015625000000000001
sF0.73999999999999999
F0.01015625
sF0.59999999999999998
F0.0023437499999999999
sF0.46999999999999997
F0.0023437499999999999
sF0.28999999999999998
F0.00078125000000000004
sF0.34999999999999998
F0.00390625
sF0.69999999999999996
F0.0062500000000000003
sF0.080000000000000002
F0.00078125000000000004
sF0.33000000000000002
F0.0023437499999999999
sF0.70999999999999996
F0.0046874999999999998
sF0.56000000000000005
F0.00390625
sF0.31
F0.00078125000000000004
sF0.58999999999999997
F0.0070312500000000002
sF0.35999999999999999
F0.0023437499999999999
sF0.27000000000000002
F0.00390625
sF0.82999999999999996
F0.022656249999999999
sF0.52000000000000002
F0.0015625000000000001
sF0.65000000000000002
F0.0078125
sF0.54000000000000004
F0.0070312500000000002
sF0.32000000000000001
F0.0023437499999999999
sF0.37
F0.0023437499999999999
sF0.059999999999999998
F0.00078125000000000004
ssS'yes'
p19
(dp20
F0.75
F0.0017953321364452424
sF0.93999999999999995
F0.025134649910233394
sF0.88
F0.043087971274685818
sF0.81999999999999995
F0.014362657091561939
sF0.76000000000000001
F0.0017953321364452424
sF0.89000000000000001
F0.050269299820466788
sF0.82999999999999996
F0.014362657091561939
sF0.77000000000000002
F0.0053859964093357273
sF0.92000000000000004
F0.16696588868940754
sF0.66000000000000003
F0.0017953321364452424
sF0.90000000000000002
F0.075403949730700179
sF0.83999999999999997
F0.010771992818671455
sF0.78000000000000003
F0.0017953321364452424
sF0.91000000000000003
F0.12746858168761221
sF0.84999999999999998
F0.014362657091561939
sF0.79000000000000004
F0.0071813285457809697
sF0.56999999999999995
F0.0017953321364452424
sF0.67000000000000004
F0.0017953321364452424
sF0.85999999999999999
F0.026929982046678635
sF0.93000000000000005
F0.34470377019748655
sF0.87
F0.057450628366247758
sF0.81000000000000005
F0.0053859964093357273
ssS'total'
p21
(dp22
F0.75
F0.0085736554949337497
sF0.5
F0.0023382696804364772
sF0.25
F0.001558846453624318
sF0.10000000000000001
F0.00077942322681215901
sF0.12
F0.001558846453624318
sF0.38
F0.003897116134060795
sF0.47999999999999998
F0.003897116134060795
sF0.48999999999999999
F0.003897116134060795
sF0.23999999999999999
F0.0023382696804364772
sF0.13
F0.00077942322681215901
sF0.67000000000000004
F0.007014809041309431
sF0.68999999999999995
F0.0023382696804364772
sF0.78000000000000003
F0.023382696804364771
sF0.40000000000000002
F0.0023382696804364772
sF0.79000000000000004
F0.039750584567420109
sF0.46000000000000002
F0.0062353858144972721
sF0.84999999999999998
F0.027279812938425563
sF0.55000000000000004
F0.0031176929072486361
sF0.050000000000000003
F0.00077942322681215901
sF0.80000000000000004
F0.023382696804364771
sF0.90000000000000002
F0.042868277474668745
sF0.39000000000000001
F0.001558846453624318
sF0.51000000000000001
F0.003897116134060795
sF0.070000000000000007
F0.0023382696804364772
sF0.19
F0.001558846453624318
sF0.60999999999999999
F0.013250194855806703
sF0.71999999999999997
F0.0093530787217459086
sF0.56999999999999995
F0.010911925175370226
sF0.41999999999999998
F0.0023382696804364772
sF0.68000000000000005
F0.0062353858144972721
sF0.57999999999999996
F0.0077942322681215899
sF0.40999999999999998
F0.001558846453624318
sF0.64000000000000001
F0.0093530787217459086
sF0.83999999999999997
F0.027279812938425563
sF0.14000000000000001
F0.00077942322681215901
sF0.29999999999999999
F0.003897116134060795
sF0.14999999999999999
F0.00077942322681215901
sF0.20000000000000001
F0.00077942322681215901
sF0.81000000000000005
F0.017147310989867499
sF0.85999999999999999
F0.019485580670303974
sF0.28000000000000003
F0.0031176929072486361
sF0.76000000000000001
F0.012470771628994544
sF0.77000000000000002
F0.017926734216679657
sF0.87
F0.034294621979734999
sF0.63
F0.011691348402182385
sF0.72999999999999998
F0.007014809041309431
sF0.11
F0.00077942322681215901
sF0.92000000000000004
F0.08573655494933749
sF0.89000000000000001
F0.032735775526110678
sF0.93999999999999995
F0.011691348402182385
sF0.22
F0.001558846453624318
sF0.45000000000000001
F0.012470771628994544
sF0.26000000000000001
F0.00077942322681215901
sF0.93000000000000005
F0.16367887763055339
sF0.91000000000000003
F0.06780982073265783
sF0.44
F0.0093530787217459086
sF0.66000000000000003
F0.0093530787217459086
sF0.81999999999999995
F0.017926734216679657
sF0.23000000000000001
F0.0023382696804364772
sF0.16
F0.0023382696804364772
sF0.88
F0.024941543257989088
sF0.53000000000000003
F0.0031176929072486361
sF0.34000000000000002
F0.001558846453624318
sF0.62
F0.014029618082618862
sF0.17000000000000001
F0.0023382696804364772
sF0.42999999999999999
F0.0031176929072486361
sF0.20999999999999999
F0.001558846453624318
sF0.73999999999999999
F0.010132501948558068
sF0.59999999999999998
F0.0023382696804364772
sF0.46999999999999997
F0.0023382696804364772
sF0.28999999999999998
F0.00077942322681215901
sF0.34999999999999998
F0.003897116134060795
sF0.69999999999999996
F0.0062353858144972721
sF0.080000000000000002
F0.00077942322681215901
sF0.33000000000000002
F0.0023382696804364772
sF0.70999999999999996
F0.0046765393608729543
sF0.56000000000000005
F0.003897116134060795
sF0.31
F0.00077942322681215901
sF0.58999999999999997
F0.007014809041309431
sF0.35999999999999999
F0.0023382696804364772
sF0.27000000000000002
F0.003897116134060795
sF0.82999999999999996
F0.02260327357755261
sF0.52000000000000002
F0.001558846453624318
sF0.65000000000000002
F0.0077942322681215899
sF0.54000000000000004
F0.007014809041309431
sF0.32000000000000001
F0.0023382696804364772
sF0.37
F0.0023382696804364772
sF0.059999999999999998
F0.00077942322681215901
ssS'tt'
p23
(dp24
F0.75
F0.010869565217391304
sF0.25
F0.005434782608695652
sF0.93999999999999995
F0.005434782608695652
sF0.63
F0.005434782608695652
sF0.60999999999999999
F0.010869565217391304
sF0.81999999999999995
F0.038043478260869568
sF0.76000000000000001
F0.010869565217391304
sF0.47999999999999998
F0.005434782608695652
sF0.48999999999999999
F0.005434782608695652
sF0.58999999999999997
F0.010869565217391304
sF0.89000000000000001
F0.076086956521739135
sF0.41999999999999998
F0.005434782608695652
sF0.68000000000000005
F0.005434782608695652
sF0.82999999999999996
F0.032608695652173912
sF0.77000000000000002
F0.005434782608695652
sF0.92000000000000004
F0.092391304347826081
sF0.33000000000000002
F0.005434782608695652
sF0.22
F0.005434782608695652
sF0.70999999999999996
F0.010869565217391304
sF0.90000000000000002
F0.070652173913043473
sF0.64000000000000001
F0.005434782608695652
sF0.83999999999999997
F0.043478260869565216
sF0.78000000000000003
F0.016304347826086956
sF0.62
F0.010869565217391304
sF0.27000000000000002
F0.005434782608695652
sF0.91000000000000003
F0.086956521739130432
sF0.84999999999999998
F0.043478260869565216
sF0.79000000000000004
F0.038043478260869568
sF0.57999999999999996
F0.010869565217391304
sF0.72999999999999998
F0.010869565217391304
sF0.56999999999999995
F0.016304347826086956
sF0.46000000000000002
F0.005434782608695652
sF0.14000000000000001
F0.005434782608695652
sF0.85999999999999999
F0.010869565217391304
sF0.80000000000000004
F0.016304347826086956
sF0.050000000000000003
F0.005434782608695652
sF0.54000000000000004
F0.010869565217391304
sF0.45000000000000001
F0.005434782608695652
sF0.73999999999999999
F0.005434782608695652
sF0.88
F0.043478260869565216
sF0.53000000000000003
F0.005434782608695652
sF0.93000000000000005
F0.097826086956521743
sF0.87
F0.065217391304347824
sF0.81000000000000005
F0.016304347826086956
ssS'dp'
p25
(dp26
F0.75
F0.0061349693251533744
sF0.5
F0.012269938650306749
sF0.37
F0.012269938650306749
sF0.29999999999999999
F0.018404907975460124
sF0.46999999999999997
F0.012269938650306749
sF0.25
F0.0061349693251533744
sF0.44
F0.061349693251533742
sF0.42999999999999999
F0.012269938650306749
sF0.35999999999999999
F0.0061349693251533744
sF0.56999999999999995
F0.024539877300613498
sF0.52000000000000002
F0.0061349693251533744
sF0.38
F0.024539877300613498
sF0.23999999999999999
F0.012269938650306749
sF0.34999999999999998
F0.018404907975460124
sF0.41999999999999998
F0.0061349693251533744
sF0.64000000000000001
F0.042944785276073622
sF0.34000000000000002
F0.012269938650306749
sF0.82999999999999996
F0.0061349693251533744
sF0.070000000000000007
F0.018404907975460124
sF0.12
F0.0061349693251533744
sF0.26000000000000001
F0.0061349693251533744
sF0.23000000000000001
F0.0061349693251533744
sF0.33000000000000002
F0.0061349693251533744
sF0.22
F0.0061349693251533744
sF0.47999999999999998
F0.018404907975460124
sF0.45000000000000001
F0.061349693251533742
sF0.32000000000000001
F0.018404907975460124
sF0.83999999999999997
F0.024539877300613498
sF0.63
F0.049079754601226995
sF0.31
F0.0061349693251533744
sF0.58999999999999997
F0.0061349693251533744
sF0.17000000000000001
F0.012269938650306749
sF0.71999999999999997
F0.0061349693251533744
sF0.16
F0.0061349693251533744
sF0.66000000000000003
F0.018404907975460124
sF0.84999999999999998
F0.024539877300613498
sF0.14999999999999999
F0.0061349693251533744
sF0.80000000000000004
F0.0061349693251533744
sF0.27000000000000002
F0.024539877300613498
sF0.57999999999999996
F0.018404907975460124
sF0.85999999999999999
F0.0061349693251533744
sF0.48999999999999999
F0.0061349693251533744
sF0.40999999999999998
F0.0061349693251533744
sF0.46000000000000002
F0.042944785276073622
sF0.28000000000000003
F0.024539877300613498
sF0.60999999999999999
F0.055214723926380369
sF0.080000000000000002
F0.0061349693251533744
sF0.20000000000000001
F0.0061349693251533744
sF0.40000000000000002
F0.0061349693251533744
sF0.54000000000000004
F0.018404907975460124
sF0.65000000000000002
F0.024539877300613498
sF0.73999999999999999
F0.012269938650306749
sF0.28999999999999998
F0.0061349693251533744
sF0.51000000000000001
F0.0061349693251533744
sF0.39000000000000001
F0.0061349693251533744
sF0.68000000000000005
F0.0061349693251533744
sF0.77000000000000002
F0.0061349693251533744
sF0.20999999999999999
F0.012269938650306749
sF0.62
F0.061349693251533742
sF0.76000000000000001
F0.0061349693251533744
sF0.56000000000000005
F0.0061349693251533744
sF0.19
F0.012269938650306749
ss.