(dp0
S'multi3'
p1
(dp2
F0.11
F1.0
ssS'multi2'
p3
(dp4
F0.17999999999999999
F0.045454545454545456
sF0.28999999999999998
F0.045454545454545456
sF0.10000000000000001
F0.090909090909090912
sF0.47999999999999998
F0.045454545454545456
sF0.46000000000000002
F0.090909090909090912
sF0.44
F0.090909090909090912
sF0.089999999999999997
F0.045454545454545456
sF0.35999999999999999
F0.045454545454545456
sF0.12
F0.045454545454545456
sF0.17000000000000001
F0.045454545454545456
sF0.059999999999999998
F0.045454545454545456
sF0.01
F0.045454545454545456
sF0.45000000000000001
F0.045454545454545456
sF0.19
F0.090909090909090912
sF0.82999999999999996
F0.045454545454545456
sF0.38
F0.045454545454545456
sF0.23000000000000001
F0.045454545454545456
sF0.02
F0.045454545454545456
ssS'multi'
p5
(dp6
F0.17999999999999999
F0.043478260869565216
sF0.28999999999999998
F0.043478260869565216
sF0.10000000000000001
F0.086956521739130432
sF0.47999999999999998
F0.043478260869565216
sF0.46000000000000002
F0.086956521739130432
sF0.44
F0.086956521739130432
sF0.089999999999999997
F0.043478260869565216
sF0.35999999999999999
F0.043478260869565216
sF0.12
F0.043478260869565216
sF0.17000000000000001
F0.043478260869565216
sF0.059999999999999998
F0.043478260869565216
sF0.01
F0.043478260869565216
sF0.45000000000000001
F0.043478260869565216
sF0.19
F0.086956521739130432
sF0.82999999999999996
F0.043478260869565216
sF0.38
F0.043478260869565216
sF0.23000000000000001
F0.043478260869565216
sF0.11
F0.043478260869565216
sF0.02
F0.043478260869565216
ssS'multi5'
p7
(dp8
sS'multi4'
p9
(dp10
sS'bn'
p11
(dp12
F0.5
F0.016949152542372881
sF0.44
F0.050847457627118647
sF0.38
F0.016949152542372881
sF0.12
F0.016949152542372881
sF0.34999999999999998
F0.016949152542372881
sF0.41999999999999998
F0.016949152542372881
sF0.32000000000000001
F0.050847457627118647
sF0.17000000000000001
F0.016949152542372881
sF0.28999999999999998
F0.016949152542372881
sF0.26000000000000001
F0.016949152542372881
sF0.33000000000000002
F0.033898305084745763
sF0.22
F0.016949152542372881
sF0.47999999999999998
F0.033898305084745763
sF0.45000000000000001
F0.033898305084745763
sF0.16
F0.016949152542372881
sF0.58999999999999997
F0.033898305084745763
sF0.11
F0.016949152542372881
sF0.35999999999999999
F0.016949152542372881
sF0.42999999999999999
F0.084745762711864403
sF0.59999999999999998
F0.016949152542372881
sF0.54000000000000004
F0.016949152542372881
sF0.66000000000000003
F0.016949152542372881
sF0.57999999999999996
F0.016949152542372881
sF0.46000000000000002
F0.016949152542372881
sF0.53000000000000003
F0.016949152542372881
sF0.60999999999999999
F0.11864406779661017
sF0.40000000000000002
F0.016949152542372881
sF0.37
F0.016949152542372881
sF0.39000000000000001
F0.016949152542372881
sF0.34000000000000002
F0.016949152542372881
sF0.52000000000000002
F0.033898305084745763
sF0.62
F0.067796610169491525
sF0.51000000000000001
F0.016949152542372881
sF0.63
F0.067796610169491525
ssS'no'
p13
(dp14
F0.75
F0.039130434782608699
sF0.25
F0.0043478260869565218
sF0.37
F0.0021739130434782609
sF0.68999999999999995
F0.013043478260869565
sF0.5
F0.0021739130434782609
sF0.44
F0.0021739130434782609
sF0.48999999999999999
F0.0065217391304347823
sF0.81999999999999995
F0.0086956521739130436
sF0.76000000000000001
F0.030434782608695653
sF0.47999999999999998
F0.0021739130434782609
sF0.34999999999999998
F0.0021739130434782609
sF0.69999999999999996
F0.02391304347826087
sF0.13
F0.0021739130434782609
sF0.64000000000000001
F0.013043478260869565
sF0.46999999999999997
F0.0021739130434782609
sF0.57999999999999996
F0.0086956521739130436
sF0.77000000000000002
F0.05434782608695652
sF0.46000000000000002
F0.0021739130434782609
sF0.40999999999999998
F0.0021739130434782609
sF0.70999999999999996
F0.019565217391304349
sF0.65000000000000002
F0.030434782608695653
sF0.81000000000000005
F0.067391304347826086
sF0.56000000000000005
F0.010869565217391304
sF0.58999999999999997
F0.010869565217391304
sF0.53000000000000003
F0.010869565217391304
sF0.71999999999999997
F0.039130434782608699
sF0.66000000000000003
F0.013043478260869565
sF0.59999999999999998
F0.0065217391304347823
sF0.79000000000000004
F0.14565217391304347
sF0.82999999999999996
F0.0043478260869565218
sF0.60999999999999999
F0.0086956521739130436
sF0.72999999999999998
F0.032608695652173912
sF0.56999999999999995
F0.010869565217391304
sF0.67000000000000004
F0.026086956521739129
sF0.14000000000000001
F0.0021739130434782609
sF0.42999999999999999
F0.0021739130434782609
sF0.16
F0.0021739130434782609
sF0.55000000000000004
F0.0065217391304347823
sF0.80000000000000004
F0.095652173913043481
sF0.54000000000000004
F0.010869565217391304
sF0.45000000000000001
F0.0021739130434782609
sF0.73999999999999999
F0.036956521739130437
sF0.38
F0.0021739130434782609
sF0.78000000000000003
F0.12391304347826088
sF0.68000000000000005
F0.021739130434782608
sF0.52000000000000002
F0.0043478260869565218
sF0.62
F0.0065217391304347823
sF0.51000000000000001
F0.0043478260869565218
sF0.63
F0.017391304347826087
sF0.39000000000000001
F0.0021739130434782609
ssS'ap'
p15
(dp16
F0.75
F0.010526315789473684
sF0.5
F0.013157894736842105
sF0.37
F0.005263157894736842
sF0.29999999999999999
F0.005263157894736842
sF0.68999999999999995
F0.013157894736842105
sF0.63
F0.013157894736842105
sF0.48999999999999999
F0.0078947368421052634
sF0.17999999999999999
F0.002631578947368421
sF0.81999999999999995
F0.039473684210526314
sF0.35999999999999999
F0.0078947368421052634
sF0.51000000000000001
F0.013157894736842105
sF0.47999999999999998
F0.005263157894736842
sF0.34999999999999998
F0.013157894736842105
sF0.69999999999999996
F0.013157894736842105
sF0.20999999999999999
F0.002631578947368421
sF0.13
F0.002631578947368421
sF0.16
F0.005263157894736842
sF0.46999999999999997
F0.0078947368421052634
sF0.41999999999999998
F0.005263157894736842
sF0.34000000000000002
F0.002631578947368421
sF0.82999999999999996
F0.068421052631578952
sF0.23999999999999999
F0.002631578947368421
sF0.77000000000000002
F0.031578947368421054
sF0.23000000000000001
F0.005263157894736842
sF0.33000000000000002
F0.002631578947368421
sF0.40999999999999998
F0.002631578947368421
sF0.70999999999999996
F0.015789473684210527
sF0.65000000000000002
F0.013157894736842105
sF0.32000000000000001
F0.005263157894736842
sF0.83999999999999997
F0.10526315789473684
sF0.44
F0.002631578947368421
sF0.39000000000000001
F0.010526315789473684
sF0.62
F0.015789473684210527
sF0.58999999999999997
F0.0078947368421052634
sF0.71999999999999997
F0.026315789473684209
sF0.27000000000000002
F0.002631578947368421
sF0.66000000000000003
F0.02368421052631579
sF0.59999999999999998
F0.010526315789473684
sF0.84999999999999998
F0.063157894736842107
sF0.55000000000000004
F0.005263157894736842
sF0.79000000000000004
F0.057894736842105263
sF0.57999999999999996
F0.010526315789473684
sF0.60999999999999999
F0.005263157894736842
sF0.72999999999999998
F0.026315789473684209
sF0.56999999999999995
F0.02368421052631579
sF0.67000000000000004
F0.0078947368421052634
sF0.56000000000000005
F0.002631578947368421
sF0.85999999999999999
F0.026315789473684209
sF0.64000000000000001
F0.010526315789473684
sF0.40000000000000002
F0.0078947368421052634
sF0.80000000000000004
F0.050000000000000003
sF0.54000000000000004
F0.005263157894736842
sF0.45000000000000001
F0.010526315789473684
sF0.73999999999999999
F0.018421052631578946
sF0.76000000000000001
F0.021052631578947368
sF0.78000000000000003
F0.028947368421052631
sF0.68000000000000005
F0.013157894736842105
sF0.52000000000000002
F0.002631578947368421
sF0.31
F0.002631578947368421
sF0.38
F0.005263157894736842
sF0.19
F0.002631578947368421
sF0.81000000000000005
F0.04736842105263158
sF0.059999999999999998
F0.002631578947368421
ssS'single'
p17
(dp18
F0.5
F0.0048242591316333561
sF0.25
F0.0024121295658166781
sF0.75
F0.012060647829083391
sF0.89000000000000001
F0.032736044107512061
sF0.38
F0.0041350792556857337
sF0.70999999999999996
F0.0082701585113714674
sF0.14999999999999999
F0.00068917987594762232
sF0.47999999999999998
F0.006202618883528601
sF0.13
F0.0013783597518952446
sF0.23000000000000001
F0.0013783597518952446
sF0.23999999999999999
F0.0013783597518952446
sF0.93999999999999995
F0.019297036526533425
sF0.78000000000000003
F0.029634734665747762
sF0.40000000000000002
F0.0034458993797381117
sF0.83999999999999997
F0.031013094417643005
sF0.64000000000000001
F0.0096485182632667123
sF0.46000000000000002
F0.0075809786354238459
sF0.55000000000000004
F0.0027567195037904893
sF0.10000000000000001
F0.00034458993797381116
sF0.90000000000000002
F0.046175051688490697
sF0.39000000000000001
F0.0037904893177119229
sF0.76000000000000001
F0.011371467953135768
sF0.28000000000000003
F0.0017229496898690559
sF0.19
F0.0010337698139214334
sF0.85999999999999999
F0.022742935906271536
sF0.71999999999999997
F0.011371467953135768
sF0.56999999999999995
F0.010682288077188146
sF0.58999999999999997
F0.0086147484493452799
sF0.68000000000000005
F0.0058580289455547902
sF0.28999999999999998
F0.00068917987594762232
sF0.81999999999999995
F0.01826326671261199
sF0.32000000000000001
F0.0041350792556857337
sF0.41999999999999998
F0.0041350792556857337
sF0.14000000000000001
F0.0020675396278428669
sF0.84999999999999998
F0.028600964851826328
sF0.29999999999999999
F0.0034458993797381117
sF0.80000000000000004
F0.030323914541695383
sF0.070000000000000007
F0.0013783597518952446
sF0.42999999999999999
F0.0048242591316333561
sF0.51000000000000001
F0.0044796691936595454
sF0.77000000000000002
F0.015851137146795313
sF0.87
F0.025155065472088216
sF0.81000000000000005
F0.02653342522398346
sF0.44
F0.0075809786354238459
sF0.48999999999999999
F0.0044796691936595454
sF0.11
F0.00034458993797381116
sF0.35999999999999999
F0.0027567195037904893
sF0.67000000000000004
F0.006202618883528601
sF0.040000000000000001
F0.00034458993797381116
sF0.46999999999999997
F0.0058580289455547902
sF0.22
F0.0017229496898690559
sF0.79000000000000004
F0.040661612680909717
sF0.45000000000000001
F0.0096485182632667123
sF0.26000000000000001
F0.0010337698139214334
sF0.65000000000000002
F0.010682288077188146
sF0.33000000000000002
F0.0024121295658166781
sF0.91000000000000003
F0.058580289455547899
sF0.40999999999999998
F0.0013783597518952446
sF0.92000000000000004
F0.073397656788421778
sF0.52000000000000002
F0.0024121295658166781
sF0.16
F0.0020675396278428669
sF0.88
F0.026878015161957272
sF0.53000000000000003
F0.0037904893177119229
sF0.17000000000000001
F0.0013783597518952446
sF0.62
F0.010682288077188146
sF0.20999999999999999
F0.0017229496898690559
sF0.37
F0.0027567195037904893
sF0.59999999999999998
F0.0058580289455547902
sF0.68999999999999995
F0.006202618883528601
sF0.57999999999999996
F0.0058580289455547902
sF0.34000000000000002
F0.0027567195037904893
sF0.34999999999999998
F0.0041350792556857337
sF0.69999999999999996
F0.0065472088215024118
sF0.080000000000000002
F0.00068917987594762232
sF0.66000000000000003
F0.0072363886974500342
sF0.12
F0.0020675396278428669
sF0.56000000000000005
F0.0037904893177119229
sF0.93000000000000005
F0.11888352860096485
sF0.31
F0.0013783597518952446
sF0.17999999999999999
F0.0010337698139214334
sF0.54000000000000004
F0.0048242591316333561
sF0.82999999999999996
F0.024121295658166782
sF0.60999999999999999
F0.014128187456926258
sF0.72999999999999998
F0.01171605789110958
sF0.63
F0.011371467953135768
sF0.27000000000000002
F0.0020675396278428669
sF0.050000000000000003
F0.00034458993797381116
sF0.73999999999999999
F0.01171605789110958
sF0.059999999999999998
F0.0013783597518952446
sF0.20000000000000001
F0.00068917987594762232
ssS'yes'
p19
(dp20
F0.75
F0.0017035775127768314
sF0.93999999999999995
F0.045996592844974447
sF0.88
F0.049403747870528106
sF0.81999999999999995
F0.011073253833049404
sF0.76000000000000001
F0.0042589437819420782
sF0.89000000000000001
F0.059625212947189095
sF0.68999999999999995
F0.0017035775127768314
sF0.82999999999999996
F0.022998296422487224
sF0.77000000000000002
F0.0051107325383304937
sF0.92000000000000004
F0.15076660988074958
sF0.66000000000000003
F0.00085178875638841568
sF0.90000000000000002
F0.088586030664395229
sF0.83999999999999997
F0.019591141396933562
sF0.78000000000000003
F0.00596252129471891
sF0.71999999999999997
F0.00085178875638841568
sF0.91000000000000003
F0.11925042589437819
sF0.84999999999999998
F0.028960817717206135
sF0.79000000000000004
F0.011073253833049404
sF0.57999999999999996
F0.00085178875638841568
sF0.72999999999999998
F0.0017035775127768314
sF0.56999999999999995
F0.0017035775127768314
sF0.67000000000000004
F0.0017035775127768314
sF0.81000000000000005
F0.014480408858603067
sF0.85999999999999999
F0.033219761499148209
sF0.80000000000000004
F0.0093696763202725727
sF0.73999999999999999
F0.00085178875638841568
sF0.39000000000000001
F0.00085178875638841568
sF0.93000000000000005
F0.26575809199318567
sF0.87
F0.040885860306643949
sF0.56000000000000005
F0.00085178875638841568
ssS'total'
p21
(dp22
F0.5
F0.0047863247863247863
sF0.25
F0.0023931623931623932
sF0.75
F0.011965811965811967
sF0.89000000000000001
F0.032478632478632481
sF0.38
F0.0044444444444444444
sF0.70999999999999996
F0.0082051282051282051
sF0.14999999999999999
F0.00068376068376068376
sF0.47999999999999998
F0.0064957264957264957
sF0.13
F0.0013675213675213675
sF0.23000000000000001
F0.0017094017094017094
sF0.23999999999999999
F0.0013675213675213675
sF0.93999999999999995
F0.019145299145299145
sF0.78000000000000003
F0.029401709401709403
sF0.40000000000000002
F0.0034188034188034188
sF0.83999999999999997
F0.030769230769230771
sF0.64000000000000001
F0.0095726495726495726
sF0.46000000000000002
F0.0082051282051282051
sF0.55000000000000004
F0.002735042735042735
sF0.10000000000000001
F0.0010256410256410256
sF0.90000000000000002
F0.04581196581196581
sF0.39000000000000001
F0.0037606837606837607
sF0.76000000000000001
F0.011282051282051283
sF0.28000000000000003
F0.0017094017094017094
sF0.19
F0.0017094017094017094
sF0.85999999999999999
F0.022564102564102566
sF0.71999999999999997
F0.011282051282051283
sF0.56999999999999995
F0.010598290598290599
sF0.58999999999999997
F0.0085470085470085479
sF0.68000000000000005
F0.005811965811965812
sF0.28999999999999998
F0.0010256410256410256
sF0.81999999999999995
F0.018119658119658121
sF0.089999999999999997
F0.00034188034188034188
sF0.32000000000000001
F0.0041025641025641026
sF0.41999999999999998
F0.0041025641025641026
sF0.14000000000000001
F0.0020512820512820513
sF0.84999999999999998
F0.028376068376068375
sF0.29999999999999999
F0.0034188034188034188
sF0.80000000000000004
F0.030085470085470085
sF0.070000000000000007
F0.0013675213675213675
sF0.42999999999999999
F0.0047863247863247863
sF0.51000000000000001
F0.0044444444444444444
sF0.77000000000000002
F0.015726495726495728
sF0.87
F0.024957264957264958
sF0.81000000000000005
F0.026324786324786326
sF0.44
F0.0082051282051282051
sF0.48999999999999999
F0.0044444444444444444
sF0.11
F0.00068376068376068376
sF0.35999999999999999
F0.0030769230769230769
sF0.67000000000000004
F0.0061538461538461538
sF0.040000000000000001
F0.00034188034188034188
sF0.46999999999999997
F0.005811965811965812
sF0.22
F0.0017094017094017094
sF0.79000000000000004
F0.04034188034188034
sF0.45000000000000001
F0.0099145299145299154
sF0.26000000000000001
F0.0010256410256410256
sF0.65000000000000002
F0.010598290598290599
sF0.33000000000000002
F0.0023931623931623932
sF0.01
F0.00034188034188034188
sF0.91000000000000003
F0.058119658119658121
sF0.40999999999999998
F0.0013675213675213675
sF0.92000000000000004
F0.072820512820512814
sF0.52000000000000002
F0.0023931623931623932
sF0.16
F0.0020512820512820513
sF0.02
F0.00034188034188034188
sF0.88
F0.026666666666666668
sF0.53000000000000003
F0.0037606837606837607
sF0.17000000000000001
F0.0017094017094017094
sF0.62
F0.010598290598290599
sF0.20999999999999999
F0.0017094017094017094
sF0.37
F0.002735042735042735
sF0.59999999999999998
F0.005811965811965812
sF0.68999999999999995
F0.0061538461538461538
sF0.57999999999999996
F0.005811965811965812
sF0.34000000000000002
F0.002735042735042735
sF0.34999999999999998
F0.0041025641025641026
sF0.69999999999999996
F0.0064957264957264957
sF0.080000000000000002
F0.00068376068376068376
sF0.66000000000000003
F0.0071794871794871795
sF0.12
F0.0023931623931623932
sF0.56000000000000005
F0.0037606837606837607
sF0.93000000000000005
F0.11794871794871795
sF0.31
F0.0013675213675213675
sF0.17999999999999999
F0.0013675213675213675
sF0.54000000000000004
F0.0047863247863247863
sF0.82999999999999996
F0.024273504273504273
sF0.60999999999999999
F0.014017094017094018
sF0.72999999999999998
F0.011623931623931624
sF0.63
F0.011282051282051283
sF0.27000000000000002
F0.0020512820512820513
sF0.050000000000000003
F0.00034188034188034188
sF0.73999999999999999
F0.011623931623931624
sF0.059999999999999998
F0.0017094017094017094
sF0.20000000000000001
F0.00068376068376068376
ssS'tt'
p23
(dp24
F0.75
F0.018691588785046728
sF0.5
F0.0023364485981308409
sF0.14999999999999999
F0.0023364485981308409
sF0.68999999999999995
F0.0070093457943925233
sF0.25
F0.0023364485981308409
sF0.88
F0.046728971962616821
sF0.42999999999999999
F0.0070093457943925233
sF0.35999999999999999
F0.0023364485981308409
sF0.81999999999999995
F0.039719626168224297
sF0.76000000000000001
F0.011682242990654205
sF0.47999999999999998
F0.0046728971962616819
sF0.48999999999999999
F0.0023364485981308409
sF0.69999999999999996
F0.0023364485981308409
sF0.60999999999999999
F0.011682242990654205
sF0.41999999999999998
F0.0070093457943925233
sF0.89000000000000001
F0.058411214953271028
sF0.93999999999999995
F0.0046728971962616819
sF0.17000000000000001
F0.0023364485981308409
sF0.82999999999999996
F0.028037383177570093
sF0.77000000000000002
F0.0046728971962616819
sF0.67000000000000004
F0.0023364485981308409
sF0.33000000000000002
F0.0046728971962616819
sF0.56999999999999995
F0.0070093457943925233
sF0.22
F0.0023364485981308409
sF0.70999999999999996
F0.011682242990654205
sF0.90000000000000002
F0.070093457943925228
sF0.14000000000000001
F0.0023364485981308409
sF0.68000000000000005
F0.0023364485981308409
sF0.83999999999999997
F0.049065420560747662
sF0.63
F0.0046728971962616819
sF0.45000000000000001
F0.0023364485981308409
sF0.31
F0.0023364485981308409
sF0.58999999999999997
F0.0070093457943925233
sF0.29999999999999999
F0.0023364485981308409
sF0.71999999999999997
F0.0070093457943925233
sF0.27000000000000002
F0.0023364485981308409
sF0.91000000000000003
F0.070093457943925228
sF0.84999999999999998
F0.042056074766355138
sF0.59999999999999998
F0.0023364485981308409
sF0.20000000000000001
F0.0023364485981308409
sF0.79000000000000004
F0.032710280373831772
sF0.57999999999999996
F0.0093457943925233638
sF0.72999999999999998
F0.011682242990654205
sF0.46000000000000002
F0.0023364485981308409
sF0.40999999999999998
F0.0023364485981308409
sF0.92000000000000004
F0.084112149532710276
sF0.53000000000000003
F0.0046728971962616819
sF0.85999999999999999
F0.037383177570093455
sF0.64000000000000001
F0.0023364485981308409
sF0.80000000000000004
F0.025700934579439252
sF0.55000000000000004
F0.0023364485981308409
sF0.54000000000000004
F0.0046728971962616819
sF0.050000000000000003
F0.0023364485981308409
sF0.65000000000000002
F0.0070093457943925233
sF0.73999999999999999
F0.014018691588785047
sF0.78000000000000003
F0.02336448598130841
sF0.93000000000000005
F0.077102803738317752
sF0.62
F0.0070093457943925233
sF0.87
F0.058411214953271028
sF0.51000000000000001
F0.0023364485981308409
sF0.81000000000000005
F0.025700934579439252
ssS'dp'
p25
(dp26
F0.25
F0.0099750623441396506
sF0.5
F0.014962593516209476
sF0.37
F0.0099750623441396506
sF0.29999999999999999
F0.017456359102244388
sF0.68999999999999995
F0.0049875311720698253
sF0.75
F0.007481296758104738
sF0.10000000000000001
F0.0024937655860349127
sF0.040000000000000001
F0.0024937655860349127
sF0.63
F0.034912718204488775
sF0.72999999999999998
F0.0049875311720698253
sF0.35999999999999999
F0.007481296758104738
sF0.56999999999999995
F0.029925187032418952
sF0.71999999999999997
F0.0024937655860349127
sF0.12
F0.012468827930174564
sF0.26000000000000001
F0.0049875311720698253
sF0.38
F0.019950124688279301
sF0.23999999999999999
F0.007481296758104738
sF0.34999999999999998
F0.012468827930174564
sF0.69999999999999996
F0.0049875311720698253
sF0.41999999999999998
F0.014962593516209476
sF0.28000000000000003
F0.012468827930174564
sF0.64000000000000001
F0.042394014962593519
sF0.46999999999999997
F0.032418952618453865
sF0.14999999999999999
F0.0024937655860349127
sF0.27000000000000002
F0.0099750623441396506
sF0.82999999999999996
F0.007481296758104738
sF0.059999999999999998
F0.007481296758104738
sF0.13
F0.0049875311720698253
sF0.46000000000000002
F0.04738154613466334
sF0.66000000000000003
F0.0099750623441396506
sF0.40999999999999998
F0.0024937655860349127
sF0.22
F0.007481296758104738
sF0.70999999999999996
F0.0099750623441396506
sF0.65000000000000002
F0.022443890274314215
sF0.56000000000000005
F0.0099750623441396506
sF0.16
F0.0049875311720698253
sF0.20999999999999999
F0.0099750623441396506
sF0.44
F0.042394014962593519
sF0.39000000000000001
F0.0099750623441396506
sF0.62
F0.037406483790523692
sF0.83999999999999997
F0.014962593516209476
sF0.68000000000000005
F0.0024937655860349127
sF0.17999999999999999
F0.0049875311720698253
sF0.14000000000000001
F0.0099750623441396506
sF0.54000000000000004
F0.0099750623441396506
sF0.42999999999999999
F0.012468827930174564
sF0.84999999999999998
F0.017456359102244388
sF0.59999999999999998
F0.019950124688279301
sF0.40000000000000002
F0.014962593516209476
sF0.58999999999999997
F0.029925187032418952
sF0.47999999999999998
F0.027431421446384038
sF0.57999999999999996
F0.007481296758104738
sF0.33000000000000002
F0.0049875311720698253
sF0.85999999999999999
F0.0024937655860349127
sF0.48999999999999999
F0.014962593516209476
sF0.81999999999999995
F0.0099750623441396506
sF0.23000000000000001
F0.0049875311720698253
sF0.78000000000000003
F0.0024937655860349127
sF0.60999999999999999
F0.057356608478802994
sF0.32000000000000001
F0.017456359102244388
sF0.55000000000000004
F0.0049875311720698253
sF0.80000000000000004
F0.007481296758104738
sF0.79000000000000004
F0.0049875311720698253
sF0.45000000000000001
F0.049875311720698257
sF0.77000000000000002
F0.0024937655860349127
sF0.73999999999999999
F0.007481296758104738
sF0.28999999999999998
F0.0024937655860349127
sF0.76000000000000001
F0.0024937655860349127
sF0.53000000000000003
F0.007481296758104738
sF0.34000000000000002
F0.014962593516209476
sF0.52000000000000002
F0.0049875311720698253
sF0.080000000000000002
F0.0049875311720698253
sF0.31
F0.0049875311720698253
sF0.17000000000000001
F0.0049875311720698253
sF0.51000000000000001
F0.0099750623441396506
sF0.070000000000000007
F0.0099750623441396506
sF0.19
F0.0049875311720698253
sF0.20000000000000001
F0.0024937655860349127
ss.