(dp0
S'multi3'
p1
(lp2
F0.11982
asS'multi2'
p3
(lp4
F0.10524
aF0.44829000000000002
asS'multi5'
p5
(lp6
sS'multi4'
p7
(lp8
sS'bn'
p9
(lp10
F0.59233999999999998
aF0.43847000000000003
aF0.42679
aF0.12903000000000001
aF0.16274
aF0.63178999999999996
aF0.62639999999999996
aF0.61521999999999999
aF0.33510000000000001
aF0.58447000000000005
aF0.45632
aF0.61521999999999999
aF0.60614000000000001
aF0.45606999999999998
aF0.53069
aF0.43293999999999999
aF0.62624000000000002
aF0.63841000000000003
aF0.17091999999999999
aF0.48411999999999999
aF0.61477000000000004
aF0.52883000000000002
asS'ap'
p11
(lp12
F0.58886000000000005
aF0.55071000000000003
aF0.83389999999999997
aF0.85304000000000002
aF0.85892999999999997
aF0.84614
aF0.85892999999999997
aF0.82223999999999997
aF0.74765000000000004
aF0.79127999999999998
aF0.83504
aF0.23094999999999999
aF0.70081000000000004
aF0.85304000000000002
aF0.54634000000000005
aF0.24451999999999999
aF0.51173000000000002
aF0.74041999999999997
aF0.83984999999999999
aF0.84996000000000005
aF0.77263000000000004
aF0.51683000000000001
aF0.78544000000000003
aF0.74524999999999997
aF0.62519999999999998
aF0.64137999999999995
aF0.74377000000000004
aF0.80974999999999997
aF0.68183000000000005
aF0.76424999999999998
aF0.57732000000000006
aF0.57408000000000003
aF0.57564000000000004
aF0.57303999999999999
aF0.84938999999999998
aF0.39444000000000001
aF0.84177000000000002
aF0.78541000000000005
aF0.71897999999999995
aF0.72611999999999999
aF0.81669999999999998
aF0.068250000000000005
aF0.73216000000000003
aF0.44396999999999998
aF0.82233999999999996
aF0.51870000000000005
aF0.84148000000000001
aF0.23866000000000001
aF0.73655000000000004
aF0.80225999999999997
aF0.49063000000000001
aF0.36682999999999999
aF0.71414999999999995
aF0.79737999999999998
aF0.85304000000000002
aF0.85892999999999997
aF0.83699000000000001
aF0.50614999999999999
aF0.86345000000000005
aF0.82042999999999999
aF0.70062000000000002
aF0.84494999999999998
aF0.37154999999999999
aF0.85177000000000003
aF0.78442000000000001
aF0.83335999999999999
aF0.66481000000000001
aF0.76043000000000005
aF0.82899999999999996
aF0.85592000000000001
aF0.84248000000000001
aF0.40849999999999997
aF0.30776999999999999
aF0.83504
aF0.83875
aF0.81669999999999998
aF0.81427000000000005
aF0.30158000000000001
aF0.66739999999999999
aF0.68184999999999996
aF0.68401999999999996
aF0.72990999999999995
aF0.62590000000000001
aF0.57501000000000002
aF0.66234000000000004
aF0.84004000000000001
aF0.77144000000000001
aF0.83074000000000003
aF0.84923999999999999
aF0.86307999999999996
aF0.86663000000000001
aF0.82196000000000002
aF0.80637000000000003
aF0.75926000000000005
aF0.77786
aF0.79764000000000002
aF0.76431000000000004
aF0.83747000000000005
aF0.83504
aF0.83640999999999999
aF0.83699000000000001
aF0.84089000000000003
aF0.80986000000000002
aF0.85326999999999997
aF0.77854000000000001
aF0.78837999999999997
aF0.79305999999999999
aF0.83984999999999999
aF0.36653999999999998
aF0.35004000000000002
aF0.45956999999999998
aF0.85958000000000001
aF0.85055000000000003
aF0.72858000000000001
aF0.67547000000000001
aF0.77627999999999997
aF0.78583999999999998
aF0.85751999999999995
aF0.76044999999999996
aF0.83260999999999996
aF0.40876000000000001
aF0.58401000000000003
aF0.66178999999999999
aF0.80698000000000003
aF0.84436999999999995
aF0.86092999999999997
aF0.85958000000000001
aF0.82106000000000001
aF0.77617000000000003
aF0.84436999999999995
aF0.79293000000000002
aF0.73655000000000004
aF0.86282999999999999
aF0.79286999999999996
aF0.80059999999999998
aF0.59043000000000001
aF0.84852000000000005
aF0.60712999999999995
aF0.61568999999999996
aF0.80284
aF0.82125000000000004
aF0.84287999999999996
aF0.47888999999999998
aF0.45468999999999998
aF0.79573000000000005
aF0.63039000000000001
aF0.82194999999999996
aF0.35128999999999999
aF0.75926000000000005
aF0.84840000000000004
aF0.84702999999999995
aF0.84436999999999995
aF0.64707999999999999
aF0.81433
aF0.76022999999999996
aF0.80742999999999998
aF0.45624999999999999
aF0.85307999999999995
aF0.86009000000000002
aF0.85304000000000002
aF0.70359000000000005
aF0.79764000000000002
aF0.86477000000000004
asS'single'
p13
(lp14
F0.59233999999999998
aF0.43847000000000003
aF0.42679
aF0.12903000000000001
aF0.16274
aF0.63178999999999996
aF0.62639999999999996
aF0.61521999999999999
aF0.33510000000000001
aF0.58447000000000005
aF0.45632
aF0.61521999999999999
aF0.60614000000000001
aF0.45606999999999998
aF0.53069
aF0.43293999999999999
aF0.62624000000000002
aF0.63841000000000003
aF0.17091999999999999
aF0.48411999999999999
aF0.61477000000000004
aF0.52883000000000002
aF0.85326999999999997
aF0.38856000000000002
aF0.62624000000000002
aF0.64651000000000003
aF0.44886999999999999
aF0.75387999999999999
aF0.46939999999999998
aF0.24962999999999999
aF0.22445999999999999
aF0.45451000000000003
aF0.56672
aF0.83782000000000001
aF0.44425999999999999
aF0.64132999999999996
aF0.26085999999999998
aF0.40747
aF0.74275999999999998
aF0.45617000000000002
aF0.46639999999999998
aF0.47116999999999998
aF0.15171000000000001
aF0.48074
aF0.48115000000000002
aF0.64686999999999995
aF0.74419000000000002
aF0.58767999999999998
aF0.45017000000000001
aF0.84840000000000004
aF0.63266
aF0.58375999999999995
aF0.57828000000000002
aF0.30731999999999998
aF0.85326999999999997
aF0.85326999999999997
aF0.27587
aF0.27742
aF0.46406999999999998
aF0.62214000000000003
aF0.28138999999999997
aF0.28431000000000001
aF0.44029000000000001
aF0.37744
aF0.68398999999999999
aF0.35482000000000002
aF0.42924000000000001
aF0.38112000000000001
aF0.41367999999999999
aF0.44732
aF0.63917999999999997
aF0.28378999999999999
aF0.44969999999999999
aF0.31414999999999998
aF0.62214000000000003
aF0.32741999999999999
aF0.63397999999999999
aF0.62624000000000002
aF0.57899
aF0.62678999999999996
aF0.30125999999999997
aF0.35608000000000001
aF0.66624000000000005
aF0.2074
aF0.29553000000000001
aF0.61817999999999995
aF0.66310000000000002
aF0.57045000000000001
aF0.44029000000000001
aF0.28138999999999997
aF0.45017000000000001
aF0.24129999999999999
aF0.84852000000000005
aF0.49914999999999998
aF0.66156999999999999
aF0.50838000000000005
aF0.47815000000000002
aF0.76617000000000002
aF0.46939999999999998
aF0.63032999999999995
aF0.61506000000000005
aF0.44602000000000003
aF0.12323000000000001
aF0.21687000000000001
aF0.21687000000000001
aF0.27676000000000001
aF0.38402999999999998
aF0.45451000000000003
aF0.80764999999999998
aF0.65271000000000001
aF0.25914999999999999
aF0.64434999999999998
aF0.64258000000000004
aF0.54246000000000005
aF0.61150000000000004
aF0.63032999999999995
aF0.45699000000000001
aF0.34105000000000002
aF0.27127000000000001
aF0.59955999999999998
aF0.62363000000000002
aF0.46292
aF0.33845999999999998
aF0.64134999999999998
aF0.54945999999999995
aF0.30468000000000001
aF0.51304000000000005
aF0.50553999999999999
aF0.3221
aF0.63729000000000002
aF0.23357
aF0.077119999999999994
aF0.61506000000000005
aF0.77251000000000003
aF0.84923999999999999
aF0.72067999999999999
aF0.43475999999999998
aF0.52139999999999997
aF0.36758000000000002
aF0.64478999999999997
aF0.076100000000000001
aF0.48315999999999998
aF0.35276999999999997
aF0.44573000000000002
aF0.45312999999999998
aF0.86099999999999999
aF0.61682999999999999
aF0.62624000000000002
aF0.63032999999999995
aF0.85809999999999997
aF0.65459999999999996
aF0.61506000000000005
aF0.61309999999999998
aF0.61107
aF0.54278999999999999
aF0.085709999999999995
aF0.071139999999999995
aF0.62678999999999996
aF0.17352999999999999
aF0.61682999999999999
aF0.62214000000000003
aF0.38819999999999999
aF0.45282
aF0.46817999999999999
aF0.58172000000000001
aF0.17077999999999999
aF0.19161
aF0.37975999999999999
aF0.44573000000000002
aF0.46454000000000001
aF0.34849000000000002
aF0.62214000000000003
aF0.19950999999999999
aF0.39157999999999998
aF0.65556999999999999
aF0.16725000000000001
aF0.32157999999999998
aF0.84923999999999999
aF0.45451000000000003
aF0.65952999999999995
aF0.44029000000000001
aF0.43412000000000001
aF0.57045000000000001
aF0.45522000000000001
aF0.63032999999999995
aF0.58886000000000005
aF0.55071000000000003
aF0.83389999999999997
aF0.85304000000000002
aF0.85892999999999997
aF0.84614
aF0.85892999999999997
aF0.82223999999999997
aF0.74765000000000004
aF0.79127999999999998
aF0.83504
aF0.23094999999999999
aF0.70081000000000004
aF0.85304000000000002
aF0.54634000000000005
aF0.24451999999999999
aF0.51173000000000002
aF0.74041999999999997
aF0.83984999999999999
aF0.84996000000000005
aF0.77263000000000004
aF0.51683000000000001
aF0.78544000000000003
aF0.74524999999999997
aF0.62519999999999998
aF0.64137999999999995
aF0.74377000000000004
aF0.80974999999999997
aF0.68183000000000005
aF0.76424999999999998
aF0.57732000000000006
aF0.57408000000000003
aF0.57564000000000004
aF0.57303999999999999
aF0.84938999999999998
aF0.39444000000000001
aF0.84177000000000002
aF0.78541000000000005
aF0.71897999999999995
aF0.72611999999999999
aF0.81669999999999998
aF0.068250000000000005
aF0.73216000000000003
aF0.44396999999999998
aF0.82233999999999996
aF0.51870000000000005
aF0.84148000000000001
aF0.23866000000000001
aF0.73655000000000004
aF0.80225999999999997
aF0.49063000000000001
aF0.36682999999999999
aF0.71414999999999995
aF0.79737999999999998
aF0.85304000000000002
aF0.85892999999999997
aF0.83699000000000001
aF0.50614999999999999
aF0.86345000000000005
aF0.82042999999999999
aF0.70062000000000002
aF0.84494999999999998
aF0.37154999999999999
aF0.85177000000000003
aF0.78442000000000001
aF0.83335999999999999
aF0.66481000000000001
aF0.76043000000000005
aF0.82899999999999996
aF0.85592000000000001
aF0.84248000000000001
aF0.40849999999999997
aF0.30776999999999999
aF0.83504
aF0.83875
aF0.81669999999999998
aF0.81427000000000005
aF0.30158000000000001
aF0.66739999999999999
aF0.68184999999999996
aF0.68401999999999996
aF0.72990999999999995
aF0.62590000000000001
aF0.57501000000000002
aF0.66234000000000004
aF0.84004000000000001
aF0.77144000000000001
aF0.83074000000000003
aF0.84923999999999999
aF0.86307999999999996
aF0.86663000000000001
aF0.82196000000000002
aF0.80637000000000003
aF0.75926000000000005
aF0.77786
aF0.79764000000000002
aF0.76431000000000004
aF0.83747000000000005
aF0.83504
aF0.83640999999999999
aF0.83699000000000001
aF0.84089000000000003
aF0.80986000000000002
aF0.85326999999999997
aF0.77854000000000001
aF0.78837999999999997
aF0.79305999999999999
aF0.83984999999999999
aF0.36653999999999998
aF0.35004000000000002
aF0.45956999999999998
aF0.85958000000000001
aF0.85055000000000003
aF0.72858000000000001
aF0.67547000000000001
aF0.77627999999999997
aF0.78583999999999998
aF0.85751999999999995
aF0.76044999999999996
aF0.83260999999999996
aF0.40876000000000001
aF0.58401000000000003
aF0.66178999999999999
aF0.80698000000000003
aF0.84436999999999995
aF0.86092999999999997
aF0.85958000000000001
aF0.82106000000000001
aF0.77617000000000003
aF0.84436999999999995
aF0.79293000000000002
aF0.73655000000000004
aF0.86282999999999999
aF0.79286999999999996
aF0.80059999999999998
aF0.59043000000000001
aF0.84852000000000005
aF0.60712999999999995
aF0.61568999999999996
aF0.80284
aF0.82125000000000004
aF0.84287999999999996
aF0.47888999999999998
aF0.45468999999999998
aF0.79573000000000005
aF0.63039000000000001
aF0.82194999999999996
aF0.35128999999999999
aF0.75926000000000005
aF0.84840000000000004
aF0.84702999999999995
aF0.84436999999999995
aF0.64707999999999999
aF0.81433
aF0.76022999999999996
aF0.80742999999999998
aF0.45624999999999999
aF0.85307999999999995
aF0.86009000000000002
aF0.85304000000000002
aF0.70359000000000005
aF0.79764000000000002
aF0.86477000000000004
aF0.93728
aF0.92935000000000001
aF0.93437000000000003
aF0.59628000000000003
aF0.92915999999999999
aF0.84948000000000001
aF0.92391000000000001
aF0.92530000000000001
aF0.87651999999999997
aF0.90468000000000004
aF0.81671000000000005
aF0.92059999999999997
aF0.90300999999999998
aF0.84013000000000004
aF0.89285000000000003
aF0.92186999999999997
aF0.77547999999999995
aF0.78532000000000002
aF0.79561999999999999
aF0.75241999999999998
aF0.93223
aF0.90195000000000003
aF0.92522000000000004
aF0.90554000000000001
aF0.85807999999999995
aF0.79113999999999995
aF0.62958000000000003
aF0.80164999999999997
aF0.91837999999999997
aF0.82225000000000004
aF0.91957999999999995
aF0.89953000000000005
aF0.93379000000000001
aF0.89663999999999999
aF0.93281000000000003
aF0.46039999999999998
aF0.89768000000000003
aF0.87343999999999999
aF0.42514999999999997
aF0.85750999999999999
aF0.055039999999999999
aF0.25291999999999998
aF0.93269999999999997
aF0.84850000000000003
aF0.83487
aF0.87560000000000004
aF0.89881
aF0.90781000000000001
aF0.92186999999999997
aF0.45330999999999999
aF0.71089000000000002
aF0.89287000000000005
aF0.89080000000000004
aF0.84723000000000004
aF0.79661000000000004
aF0.92647999999999997
aF0.86207999999999996
aF0.79047000000000001
aF0.63354999999999995
aF0.83962999999999999
aF0.85760999999999998
aF0.91420000000000001
aF0.73663999999999996
aF0.93711
aF0.79335
aF0.84560999999999997
aF0.61136999999999997
aF0.91330999999999996
aF0.83289999999999997
aF0.93255999999999994
aF0.85760999999999998
aF0.90942999999999996
aF0.78573000000000004
aF0.59140000000000004
aF0.83555999999999997
aF0.82408999999999999
aF0.76395999999999997
aF0.79727999999999999
aF0.88446000000000002
aF0.58416999999999997
aF0.93095000000000006
aF0.93049000000000004
aF0.14274000000000001
aF0.93030999999999997
aF0.93496000000000001
aF0.92617000000000005
aF0.90039000000000002
aF0.88341000000000003
aF0.89605000000000001
aF0.91761000000000004
aF0.76092000000000004
aF0.57730000000000004
aF0.48063
aF0.82045000000000001
aF0.84560999999999997
aF0.85758000000000001
aF0.80930000000000002
aF0.91595000000000004
aF0.92208999999999997
aF0.92935000000000001
aF0.82648999999999995
aF0.92303000000000002
aF0.84031
aF0.85797000000000001
aF0.88515999999999995
aF0.64812000000000003
aF0.91361000000000003
aF0.88515999999999995
aF0.90132999999999996
aF0.91356999999999999
aF0.87383
aF0.92915999999999999
aF0.92976999999999999
aF0.9194
aF0.83384999999999998
aF0.89703999999999995
aF0.90746000000000004
aF0.91600000000000004
aF0.54393999999999998
aF0.92042000000000002
aF0.82155
aF0.94040999999999997
aF0.87802999999999998
aF0.89080000000000004
aF0.85877999999999999
aF0.53656000000000004
aF0.68889
aF0.33528000000000002
aF0.82394999999999996
aF0.93764999999999998
aF0.54264999999999997
aF0.89756000000000002
aF0.90544000000000002
aF0.90283000000000002
aF0.93899999999999995
aF0.93095000000000006
aF0.79254999999999998
aF0.61414000000000002
aF0.89890999999999999
aF0.93516999999999995
aF0.87072000000000005
aF0.22427
aF0.82830999999999999
aF0.88573000000000002
aF0.88507999999999998
aF0.93095000000000006
aF0.92186999999999997
aF0.27428999999999998
aF0.89953000000000005
aF0.87048000000000003
aF0.87810999999999995
aF0.88405999999999996
aF0.71484000000000003
aF0.83384999999999998
aF0.91420000000000001
aF0.84611999999999998
aF0.75775000000000003
aF0.91595000000000004
aF0.57103999999999999
aF0.87710999999999995
aF0.73255000000000003
aF0.49584
aF0.80832000000000004
aF0.58569000000000004
aF0.85043999999999997
aF0.90132999999999996
aF0.81169000000000002
aF0.93113999999999997
aF0.91808999999999996
aF0.62222999999999995
aF0.89270000000000005
aF0.91734000000000004
aF0.88507999999999998
aF0.91808999999999996
aF0.90554000000000001
aF0.87383
aF0.87107999999999997
aF0.57235999999999998
aF0.87683
aF0.74209999999999998
aF0.81711999999999996
aF0.86297000000000001
aF0.78434999999999999
aF0.91066000000000003
aF0.93784999999999996
aF0.93711
aF0.94028999999999996
aF0.93925000000000003
aF0.93998999999999999
aF0.93930000000000002
aF0.93220999999999998
aF0.93459999999999999
aF0.92645999999999995
aF0.93886000000000003
aF0.93955
aF0.93728
aF0.93339000000000005
aF0.92830000000000001
aF0.92425999999999997
aF0.93140999999999996
aF0.93593000000000004
aF0.91984999999999995
aF0.86212999999999995
aF0.92930999999999997
aF0.92159999999999997
aF0.92645999999999995
aF0.93459999999999999
aF0.89829000000000003
aF0.88224999999999998
aF0.91371999999999998
aF0.91225999999999996
aF0.92018
aF0.93633999999999995
aF0.93764000000000003
aF0.90805999999999998
aF0.93140999999999996
aF0.92744000000000004
aF0.92983000000000005
aF0.91627999999999998
aF0.92615999999999998
aF0.93074000000000001
aF0.93537999999999999
aF0.93689999999999996
aF0.92181000000000002
aF0.93220999999999998
aF0.93655999999999995
aF0.89788999999999997
aF0.90307999999999999
aF0.92615999999999998
aF0.91915000000000002
aF0.93345999999999996
aF0.93689999999999996
aF0.93742000000000003
aF0.87107000000000001
aF0.87241999999999997
aF0.87607000000000002
aF0.87411000000000005
aF0.88388999999999995
aF0.87887999999999999
aF0.87955000000000005
aF0.93613000000000002
aF0.91915000000000002
aF0.91225999999999996
aF0.93833999999999995
aF0.93879999999999997
aF0.92645999999999995
aF0.93784999999999996
aF0.90132999999999996
aF0.90664999999999996
aF0.92422000000000004
aF0.92827999999999999
aF0.90444999999999998
aF0.91385000000000005
aF0.91681000000000001
aF0.86904000000000003
aF0.87726999999999999
aF0.88295000000000001
aF0.78691
aF0.81120000000000003
aF0.81911
aF0.82835999999999999
aF0.86904000000000003
aF0.83111999999999997
aF0.77734000000000003
aF0.93645999999999996
aF0.93925000000000003
aF0.93689999999999996
aF0.94057999999999997
aF0.92008999999999996
aF0.92391000000000001
aF0.92608999999999997
aF0.92100000000000004
aF0.92617000000000005
aF0.91832000000000003
aF0.93459999999999999
aF0.92391000000000001
aF0.92208999999999997
aF0.90864
aF0.90551999999999999
aF0.91125999999999996
aF0.93259000000000003
aF0.87712000000000001
aF0.93742000000000003
aF0.94050999999999996
aF0.93655999999999995
aF0.93784999999999996
aF0.94040999999999997
aF0.90908999999999995
aF0.94181999999999999
aF0.57328999999999997
aF0.94059999999999999
aF0.93655999999999995
aF0.93667
aF0.91735
aF0.92008999999999996
aF0.91984999999999995
aF0.92530000000000001
aF0.93886000000000003
aF0.93855
aF0.93915999999999999
aF0.89188999999999996
aF0.90864
aF0.77058000000000004
aF0.88012000000000001
aF0.88548000000000004
aF0.82589999999999997
aF0.87046000000000001
aF0.87826000000000004
aF0.82094999999999996
aF0.93645999999999996
aF0.93930000000000002
aF0.94050999999999996
aF0.91486000000000001
aF0.91984999999999995
aF0.90781000000000001
aF0.89180999999999999
aF0.91625000000000001
aF0.92086999999999997
aF0.93454000000000004
aF0.87470000000000003
aF0.79759000000000002
aF0.90200000000000002
aF0.91830000000000001
aF0.92310000000000003
aF0.91474
aF0.93140999999999996
aF0.9194
aF0.91276999999999997
aF0.92617000000000005
aF0.92645999999999995
aF0.93154000000000003
aF0.92310000000000003
aF0.92752000000000001
aF0.91915000000000002
aF0.93535999999999997
aF0.93496000000000001
aF0.93533999999999995
aF0.87473999999999996
aF0.91761000000000004
aF0.91330999999999996
aF0.91371999999999998
aF0.88339000000000001
aF0.90554000000000001
aF0.93115999999999999
aF0.92244000000000004
aF0.91474
aF0.93784999999999996
aF0.92008999999999996
aF0.67144000000000004
aF0.92735000000000001
aF0.89861000000000002
aF0.93345999999999996
aF0.93930000000000002
aF0.93764999999999998
aF0.91830000000000001
aF0.91088999999999998
aF0.87502999999999997
aF0.93655999999999995
aF0.88966999999999996
aF0.89908999999999994
aF0.89188999999999996
aF0.91271000000000002
aF0.92979999999999996
aF0.93220999999999998
aF0.93459999999999999
aF0.92422000000000004
aF0.93593000000000004
aF0.93998000000000004
aF0.92869000000000002
aF0.93886000000000003
aF0.93855
aF0.93516999999999995
aF0.92827999999999999
aF0.90108999999999995
aF0.88119999999999998
aF0.88185999999999998
aF0.93967999999999996
aF0.93764000000000003
aF0.93728
aF0.93437000000000003
aF0.93496000000000001
aF0.93240999999999996
aF0.93345999999999996
aF0.93664999999999998
aF0.92530000000000001
aF0.92035
aF0.93784999999999996
aF0.92005000000000003
aF0.89427000000000001
aF0.90254999999999996
aF0.88226000000000004
aF0.93855
aF0.93728
aF0.93942000000000003
aF0.92107000000000006
aF0.92623999999999995
aF0.92869000000000002
aF0.91652999999999996
aF0.93825000000000003
aF0.86212999999999995
aF0.91112000000000004
aF0.9123
aF0.89500000000000002
aF0.88644999999999996
aF0.88644000000000001
aF0.89071999999999996
aF0.82394000000000001
aF0.85577999999999999
aF0.86412
aF0.84240999999999999
aF0.85577999999999999
aF0.85124
aF0.87270000000000003
aF0.82689999999999997
aF0.79886000000000001
aF0.93833999999999995
aF0.93899999999999995
aF0.91437999999999997
aF0.93259000000000003
aF0.93925000000000003
aF0.93496000000000001
aF0.93742000000000003
aF0.93925000000000003
aF0.93879999999999997
aF0.93915999999999999
aF0.93925000000000003
aF0.93711
aF0.93930000000000002
aF0.90108999999999995
aF0.91371999999999998
aF0.86495
aF0.87611000000000006
aF0.8841
aF0.93728
aF0.87400999999999995
aF0.93664999999999998
aF0.92303000000000002
aF0.93345999999999996
aF0.93886000000000003
aF0.92220999999999997
aF0.86419999999999997
aF0.93140999999999996
aF0.90822000000000003
aF0.91627999999999998
aF0.93345999999999996
aF0.91486000000000001
aF0.91115999999999997
aF0.93140999999999996
aF0.92244000000000004
aF0.91385000000000005
aF0.77830999999999995
aF0.76253000000000004
aF0.79379
aF0.87826000000000004
aF0.87712000000000001
aF0.75841999999999998
aF0.83974000000000004
aF0.84714999999999996
aF0.83382000000000001
aF0.84235000000000004
aF0.85731000000000002
aF0.85474000000000006
aF0.87046000000000001
aF0.85067999999999999
aF0.85390999999999995
aF0.86175999999999997
aF0.86904000000000003
aF0.87961999999999996
aF0.87795000000000001
aF0.87270000000000003
aF0.83040000000000003
aF0.83811999999999998
aF0.93342000000000003
aF0.92220999999999997
aF0.92530000000000001
aF0.92827999999999999
aF0.93928999999999996
aF0.92869000000000002
aF0.92959999999999998
aF0.93955
aF0.94166000000000005
aF0.93549000000000004
aF0.93537999999999999
aF0.90551999999999999
aF0.91385000000000005
aF0.93645999999999996
aF0.92008999999999996
aF0.92391000000000001
aF0.92864999999999998
aF0.93345999999999996
aF0.93803000000000003
aF0.92530000000000001
aF0.93454000000000004
aF0.91761999999999999
aF0.92005000000000003
aF0.92322000000000004
aF0.92776000000000003
aF0.89190000000000003
aF0.93454000000000004
aF0.90822000000000003
aF0.89732000000000001
aF0.91735
aF0.92530000000000001
aF0.92744000000000004
aF0.91371999999999998
aF0.90822000000000003
aF0.89970000000000006
aF0.89802999999999999
aF0.90722000000000003
aF0.90607000000000004
aF0.93140999999999996
aF0.93979999999999997
aF0.93915999999999999
aF0.92910999999999999
aF0.93544000000000005
aF0.93310999999999999
aF0.9335
aF0.93667
aF0.93979999999999997
aF0.93728
aF0.93784999999999996
aF0.93815000000000004
aF0.94059999999999999
aF0.92161000000000004
aF0.92571999999999999
aF0.92869000000000002
aF0.86773
aF0.93593000000000004
aF0.92530000000000001
aF0.9123
aF0.91376000000000002
aF0.91761999999999999
aF0.90159999999999996
aF0.91585000000000005
aF0.91915000000000002
aF0.93342000000000003
aF0.93537999999999999
aF0.93469999999999998
aF0.91681000000000001
aF0.93459999999999999
aF0.93955
aF0.86419999999999997
aF0.93593000000000004
aF0.92645999999999995
aF0.90769999999999995
aF0.91735
aF0.90834000000000004
aF0.88902999999999999
aF0.93345999999999996
aF0.94196000000000002
aF0.93952999999999998
aF0.90549999999999997
aF0.90159999999999996
aF0.89327999999999996
aF0.88800000000000001
aF0.89327999999999996
aF0.90073000000000003
aF0.93140999999999996
aF0.93259000000000003
aF0.93469999999999998
aF0.87955000000000005
aF0.87107000000000001
aF0.87841999999999998
aF0.87575000000000003
aF0.87822
aF0.86529999999999996
aF0.84575
aF0.84282000000000001
aF0.90549999999999997
aF0.92391000000000001
aF0.84172999999999998
aF0.91112000000000004
aF0.90859000000000001
aF0.93593000000000004
aF0.93754999999999999
aF0.93774999999999997
aF0.89668000000000003
aF0.82862999999999998
aF0.87827999999999995
aF0.66168000000000005
aF0.89281999999999995
aF0.90273000000000003
aF0.93655999999999995
aF0.91522000000000003
aF0.91585000000000005
aF0.86900999999999995
aF0.92735000000000001
aF0.89356000000000002
aF0.91466999999999998
aF0.91761999999999999
aF0.82743
aF0.93655999999999995
aF0.93764000000000003
aF0.93728
aF0.93925000000000003
aF0.93915999999999999
aF0.93140999999999996
aF0.91979
aF0.91761999999999999
aF0.93140999999999996
aF0.93459999999999999
aF0.89970000000000006
aF0.93345999999999996
aF0.93928999999999996
aF0.93833999999999995
aF0.93967999999999996
aF0.93879999999999997
aF0.93801000000000001
aF0.93459999999999999
aF0.93711
aF0.91761999999999999
aF0.93784999999999996
aF0.90542
aF0.91703000000000001
aF0.93220999999999998
aF0.93655999999999995
aF0.89603999999999995
aF0.93220999999999998
aF0.90444999999999998
aF0.81950000000000001
aF0.89861000000000002
aF0.90108999999999995
aF0.89281999999999995
aF0.90354000000000001
aF0.88012000000000001
aF0.94021999999999994
aF0.87360000000000004
aF0.92391000000000001
aF0.92262999999999995
aF0.92827999999999999
aF0.93254999999999999
aF0.93469999999999998
aF0.83972000000000002
aF0.91625000000000001
aF0.86068999999999996
aF0.91385000000000005
aF0.88238000000000005
aF0.86792000000000002
aF0.88736000000000004
aF0.88505999999999996
aF0.93140999999999996
aF0.93593000000000004
aF0.90542
aF0.93454000000000004
aF0.90022000000000002
aF0.87965000000000004
aF0.79518
aF0.83962999999999999
aF0.91735
aF0.92220999999999997
aF0.85821999999999998
aF0.91130999999999995
aF0.92530000000000001
aF0.93074000000000001
aF0.93067999999999995
aF0.92303000000000002
aF0.92608999999999997
aF0.90925
aF0.91627999999999998
aF0.91984999999999995
aF0.92752000000000001
aF0.91761999999999999
aF0.93759000000000003
aF0.94123999999999997
aF0.94057999999999997
aF0.83391000000000004
aF0.91627999999999998
aF0.92617000000000005
aF0.89036000000000004
aF0.88315999999999995
aF0.90864
aF0.89254
aF0.93542000000000003
aF0.88129999999999997
aF0.93496000000000001
aF0.91585000000000005
aF0.93537999999999999
aF0.93633999999999995
aF0.92422000000000004
aF0.92781999999999998
aF0.93542000000000003
aF0.93633999999999995
aF0.82926999999999995
aF0.91271000000000002
aF0.90407999999999999
aF0.92132999999999998
aF0.93759000000000003
aF0.93825000000000003
aF0.94028999999999996
aF0.93137999999999999
aF0.93593000000000004
aF0.92451000000000005
aF0.92615999999999998
aF0.91823999999999995
aF0.93459999999999999
aF0.87883999999999995
aF0.92451000000000005
aF0.92918000000000001
aF0.93122000000000005
aF0.91625000000000001
aF0.92008999999999996
aF0.92617000000000005
aF0.92864999999999998
aF0.93140999999999996
aF0.90159999999999996
aF0.89610999999999996
aF0.93339000000000005
aF0.92617000000000005
aF0.90834000000000004
aF0.88321000000000005
aF0.90259999999999996
aF0.91073000000000004
aF0.92930999999999997
aF0.93259000000000003
aF0.93469999999999998
aF0.93728
aF0.93454000000000004
aF0.93784999999999996
aF0.93784000000000001
aF0.93942000000000003
aF0.93140999999999996
aF0.93339000000000005
aF0.93686999999999998
aF0.93708000000000002
aF0.93689999999999996
aF0.93801000000000001
aF0.93454000000000004
aF0.88226000000000004
aF0.88873000000000002
aF0.91830000000000001
aF0.92220999999999997
aF0.92910999999999999
aF0.93339000000000005
aF0.93689999999999996
aF0.93728
aF0.89356000000000002
aF0.87973999999999997
aF0.89603999999999995
aF0.92930999999999997
aF0.93593000000000004
aF0.92869000000000002
aF0.78222999999999998
aF0.80059999999999998
aF0.81594999999999995
aF0.80356000000000005
aF0.78425
aF0.67779
aF0.76129000000000002
aF0.60070999999999997
aF0.56852999999999998
aF0.54529000000000005
aF0.72507999999999995
aF0.76256999999999997
aF0.76075000000000004
aF0.76961999999999997
aF0.56677
aF0.74029
aF0.79176999999999997
aF0.79079999999999995
aF0.79310999999999998
aF0.54732000000000003
aF0.76695999999999998
aF0.62966
aF0.77595999999999998
aF0.78944999999999999
aF0.65444999999999998
aF0.67942999999999998
aF0.68220000000000003
aF0.61431000000000002
aF0.78019000000000005
aF0.77359
aF0.58938000000000001
aF0.80583000000000005
aF0.80079
aF0.79554999999999998
aF0.80969000000000002
aF0.78937999999999997
aF0.78578999999999999
aF0.78500000000000003
aF0.51759999999999995
aF0.55628
aF0.78520000000000001
aF0.72057000000000004
aF0.74717999999999996
aF0.74609000000000003
aF0.70670999999999995
aF0.73692000000000002
aF0.79052999999999995
aF0.79954999999999998
aF0.79020999999999997
aF0.72057000000000004
aF0.69577999999999995
aF0.77880000000000005
aF0.78747
aF0.79723999999999995
aF0.79637000000000002
aF0.80044000000000004
aF0.72953999999999997
aF0.16844000000000001
aF0.81215999999999999
aF0.77822999999999998
aF0.80356000000000005
aF0.66654999999999998
aF0.81215999999999999
aF0.78959999999999997
aF0.79110999999999998
aF0.79757999999999996
aF0.76256000000000002
aF0.72953999999999997
aF0.79491000000000001
aF0.41058
aF0.65168000000000004
aF0.64788999999999997
aF0.56860999999999995
aF0.59792000000000001
aF0.55684999999999996
aF0.49636000000000002
aF0.79920000000000002
aF0.77956000000000003
aF0.75821000000000005
aF0.80069000000000001
aF0.71142000000000005
aF0.69918999999999998
aF0.74644999999999995
aF0.71950999999999998
aF0.53578000000000003
aF0.59809000000000001
aF0.54083999999999999
aF0.65075000000000005
aF0.65293000000000001
aF0.59721999999999997
aF0.53180000000000005
aF0.73682999999999998
aF0.78520000000000001
aF0.79176999999999997
aF0.78520000000000001
aF0.79079999999999995
aF0.79224000000000006
aF0.79020999999999997
aF0.81930000000000003
aF0.38812000000000002
aF0.81215999999999999
aF0.68411999999999995
aF0.72806000000000004
aF0.626
aF0.77107000000000003
aF0.75375000000000003
aF0.67003999999999997
aF0.77403
aF0.78254999999999997
aF0.78425
aF0.79368000000000005
aF0.79059000000000001
aF0.78646000000000005
aF0.79368000000000005
aF0.79637000000000002
aF0.80267999999999995
aF0.69677
aF0.78520000000000001
aF0.78520000000000001
aF0.78254999999999997
aF0.73692000000000002
aF0.70670999999999995
aF0.70338000000000001
aF0.70245999999999997
aF0.65815999999999997
aF0.66344000000000003
aF0.63366999999999996
aF0.79554999999999998
aF0.80918999999999996
aF0.81023000000000001
aF0.66337000000000002
aF0.77880000000000005
aF0.70113999999999999
aF0.57188000000000005
aF0.78944999999999999
aF0.59721999999999997
aF0.58204999999999996
aF0.56120999999999999
aF0.80822000000000005
aF0.81149000000000004
aF0.79554999999999998
aF0.80822000000000005
aF0.80396999999999996
aF0.80825999999999998
aF0.63526000000000005
aF0.67876999999999998
aF0.67430999999999996
aF0.64183000000000001
aF0.66264999999999996
aF0.68254999999999999
aF0.79176999999999997
aF0.79491000000000001
aF0.75743000000000005
aF0.81149000000000004
aF0.77256999999999998
aF0.61822999999999995
aF0.78254999999999997
aF0.77983999999999998
aF0.67430999999999996
aF0.74173
aF0.74212
aF0.75451999999999997
aF0.80825999999999998
aF0.81930000000000003
aF0.81664000000000003
aF0.72453000000000001
aF0.55410999999999999
aF0.80203999999999998
aF0.13475999999999999
aF0.77956000000000003
aF0.7571
aF0.79723999999999995
aF0.79290000000000005
aF0.79274
aF0.63014000000000003
aF0.80069000000000001
aF0.80373000000000006
aF0.73682999999999998
aF0.67493999999999998
aF0.78473000000000004
aF0.49711
aF0.72106999999999999
aF0.81401000000000001
aF0.79920000000000002
aF0.79437999999999998
aF0.79559000000000002
aF0.81076999999999999
aF0.76380999999999999
aF0.79224000000000006
aF0.65266999999999997
aF0.77822999999999998
asS'yes'
p15
(lp16
F0.93784999999999996
aF0.93711
aF0.94028999999999996
aF0.93925000000000003
aF0.93998999999999999
aF0.93930000000000002
aF0.93220999999999998
aF0.93459999999999999
aF0.92645999999999995
aF0.93886000000000003
aF0.93955
aF0.93728
aF0.93339000000000005
aF0.92830000000000001
aF0.92425999999999997
aF0.93140999999999996
aF0.93593000000000004
aF0.91984999999999995
aF0.86212999999999995
aF0.92930999999999997
aF0.92159999999999997
aF0.92645999999999995
aF0.93459999999999999
aF0.89829000000000003
aF0.88224999999999998
aF0.91371999999999998
aF0.91225999999999996
aF0.92018
aF0.93633999999999995
aF0.93764000000000003
aF0.90805999999999998
aF0.93140999999999996
aF0.92744000000000004
aF0.92983000000000005
aF0.91627999999999998
aF0.92615999999999998
aF0.93074000000000001
aF0.93537999999999999
aF0.93689999999999996
aF0.92181000000000002
aF0.93220999999999998
aF0.93655999999999995
aF0.89788999999999997
aF0.90307999999999999
aF0.92615999999999998
aF0.91915000000000002
aF0.93345999999999996
aF0.93689999999999996
aF0.93742000000000003
aF0.87107000000000001
aF0.87241999999999997
aF0.87607000000000002
aF0.87411000000000005
aF0.88388999999999995
aF0.87887999999999999
aF0.87955000000000005
aF0.93613000000000002
aF0.91915000000000002
aF0.91225999999999996
aF0.93833999999999995
aF0.93879999999999997
aF0.92645999999999995
aF0.93784999999999996
aF0.90132999999999996
aF0.90664999999999996
aF0.92422000000000004
aF0.92827999999999999
aF0.90444999999999998
aF0.91385000000000005
aF0.91681000000000001
aF0.86904000000000003
aF0.87726999999999999
aF0.88295000000000001
aF0.78691
aF0.81120000000000003
aF0.81911
aF0.82835999999999999
aF0.86904000000000003
aF0.83111999999999997
aF0.77734000000000003
aF0.93645999999999996
aF0.93925000000000003
aF0.93689999999999996
aF0.94057999999999997
aF0.92008999999999996
aF0.92391000000000001
aF0.92608999999999997
aF0.92100000000000004
aF0.92617000000000005
aF0.91832000000000003
aF0.93459999999999999
aF0.92391000000000001
aF0.92208999999999997
aF0.90864
aF0.90551999999999999
aF0.91125999999999996
aF0.93259000000000003
aF0.87712000000000001
aF0.93742000000000003
aF0.94050999999999996
aF0.93655999999999995
aF0.93784999999999996
aF0.94040999999999997
aF0.90908999999999995
aF0.94181999999999999
aF0.57328999999999997
aF0.94059999999999999
aF0.93655999999999995
aF0.93667
aF0.91735
aF0.92008999999999996
aF0.91984999999999995
aF0.92530000000000001
aF0.93886000000000003
aF0.93855
aF0.93915999999999999
aF0.89188999999999996
aF0.90864
aF0.77058000000000004
aF0.88012000000000001
aF0.88548000000000004
aF0.82589999999999997
aF0.87046000000000001
aF0.87826000000000004
aF0.82094999999999996
aF0.93645999999999996
aF0.93930000000000002
aF0.94050999999999996
aF0.91486000000000001
aF0.91984999999999995
aF0.90781000000000001
aF0.89180999999999999
aF0.91625000000000001
aF0.92086999999999997
aF0.93454000000000004
aF0.87470000000000003
aF0.79759000000000002
aF0.90200000000000002
aF0.91830000000000001
aF0.92310000000000003
aF0.91474
aF0.93140999999999996
aF0.9194
aF0.91276999999999997
aF0.92617000000000005
aF0.92645999999999995
aF0.93154000000000003
aF0.92310000000000003
aF0.92752000000000001
aF0.91915000000000002
aF0.93535999999999997
aF0.93496000000000001
aF0.93533999999999995
aF0.87473999999999996
aF0.91761000000000004
aF0.91330999999999996
aF0.91371999999999998
aF0.88339000000000001
aF0.90554000000000001
aF0.93115999999999999
aF0.92244000000000004
aF0.91474
aF0.93784999999999996
aF0.92008999999999996
aF0.67144000000000004
aF0.92735000000000001
aF0.89861000000000002
aF0.93345999999999996
aF0.93930000000000002
aF0.93764999999999998
aF0.91830000000000001
aF0.91088999999999998
aF0.87502999999999997
aF0.93655999999999995
aF0.88966999999999996
aF0.89908999999999994
aF0.89188999999999996
aF0.91271000000000002
aF0.92979999999999996
aF0.93220999999999998
aF0.93459999999999999
aF0.92422000000000004
aF0.93593000000000004
aF0.93998000000000004
aF0.92869000000000002
aF0.93886000000000003
aF0.93855
aF0.93516999999999995
aF0.92827999999999999
aF0.90108999999999995
aF0.88119999999999998
aF0.88185999999999998
aF0.93967999999999996
aF0.93764000000000003
aF0.93728
aF0.93437000000000003
aF0.93496000000000001
aF0.93240999999999996
aF0.93345999999999996
aF0.93664999999999998
aF0.92530000000000001
aF0.92035
aF0.93784999999999996
aF0.92005000000000003
aF0.89427000000000001
aF0.90254999999999996
aF0.88226000000000004
aF0.93855
aF0.93728
aF0.93942000000000003
aF0.92107000000000006
aF0.92623999999999995
aF0.92869000000000002
aF0.91652999999999996
aF0.93825000000000003
aF0.86212999999999995
aF0.91112000000000004
aF0.9123
aF0.89500000000000002
aF0.88644999999999996
aF0.88644000000000001
aF0.89071999999999996
aF0.82394000000000001
aF0.85577999999999999
aF0.86412
aF0.84240999999999999
aF0.85577999999999999
aF0.85124
aF0.87270000000000003
aF0.82689999999999997
aF0.79886000000000001
aF0.93833999999999995
aF0.93899999999999995
aF0.91437999999999997
aF0.93259000000000003
aF0.93925000000000003
aF0.93496000000000001
aF0.93742000000000003
aF0.93925000000000003
aF0.93879999999999997
aF0.93915999999999999
aF0.93925000000000003
aF0.93711
aF0.93930000000000002
aF0.90108999999999995
aF0.91371999999999998
aF0.86495
aF0.87611000000000006
aF0.8841
aF0.93728
aF0.87400999999999995
aF0.93664999999999998
aF0.92303000000000002
aF0.93345999999999996
aF0.93886000000000003
aF0.92220999999999997
aF0.86419999999999997
aF0.93140999999999996
aF0.90822000000000003
aF0.91627999999999998
aF0.93345999999999996
aF0.91486000000000001
aF0.91115999999999997
aF0.93140999999999996
aF0.92244000000000004
aF0.91385000000000005
aF0.77830999999999995
aF0.76253000000000004
aF0.79379
aF0.87826000000000004
aF0.87712000000000001
aF0.75841999999999998
aF0.83974000000000004
aF0.84714999999999996
aF0.83382000000000001
aF0.84235000000000004
aF0.85731000000000002
aF0.85474000000000006
aF0.87046000000000001
aF0.85067999999999999
aF0.85390999999999995
aF0.86175999999999997
aF0.86904000000000003
aF0.87961999999999996
aF0.87795000000000001
aF0.87270000000000003
aF0.83040000000000003
aF0.83811999999999998
aF0.93342000000000003
aF0.92220999999999997
aF0.92530000000000001
aF0.92827999999999999
aF0.93928999999999996
aF0.92869000000000002
aF0.92959999999999998
aF0.93955
aF0.94166000000000005
aF0.93549000000000004
aF0.93537999999999999
aF0.90551999999999999
aF0.91385000000000005
aF0.93645999999999996
aF0.92008999999999996
aF0.92391000000000001
aF0.92864999999999998
aF0.93345999999999996
aF0.93803000000000003
aF0.92530000000000001
aF0.93454000000000004
aF0.91761999999999999
aF0.92005000000000003
aF0.92322000000000004
aF0.92776000000000003
aF0.89190000000000003
aF0.93454000000000004
aF0.90822000000000003
aF0.89732000000000001
aF0.91735
aF0.92530000000000001
aF0.92744000000000004
aF0.91371999999999998
aF0.90822000000000003
aF0.89970000000000006
aF0.89802999999999999
aF0.90722000000000003
aF0.90607000000000004
aF0.93140999999999996
aF0.93979999999999997
aF0.93915999999999999
aF0.92910999999999999
aF0.93544000000000005
aF0.93310999999999999
aF0.9335
aF0.93667
aF0.93979999999999997
aF0.93728
aF0.93784999999999996
aF0.93815000000000004
aF0.94059999999999999
aF0.92161000000000004
aF0.92571999999999999
aF0.92869000000000002
aF0.86773
aF0.93593000000000004
aF0.92530000000000001
aF0.9123
aF0.91376000000000002
aF0.91761999999999999
aF0.90159999999999996
aF0.91585000000000005
aF0.91915000000000002
aF0.93342000000000003
aF0.93537999999999999
aF0.93469999999999998
aF0.91681000000000001
aF0.93459999999999999
aF0.93955
aF0.86419999999999997
aF0.93593000000000004
aF0.92645999999999995
aF0.90769999999999995
aF0.91735
aF0.90834000000000004
aF0.88902999999999999
aF0.93345999999999996
aF0.94196000000000002
aF0.93952999999999998
aF0.90549999999999997
aF0.90159999999999996
aF0.89327999999999996
aF0.88800000000000001
aF0.89327999999999996
aF0.90073000000000003
aF0.93140999999999996
aF0.93259000000000003
aF0.93469999999999998
aF0.87955000000000005
aF0.87107000000000001
aF0.87841999999999998
aF0.87575000000000003
aF0.87822
aF0.86529999999999996
aF0.84575
aF0.84282000000000001
aF0.90549999999999997
aF0.92391000000000001
aF0.84172999999999998
aF0.91112000000000004
aF0.90859000000000001
aF0.93593000000000004
aF0.93754999999999999
aF0.93774999999999997
aF0.89668000000000003
aF0.82862999999999998
aF0.87827999999999995
aF0.66168000000000005
aF0.89281999999999995
aF0.90273000000000003
aF0.93655999999999995
aF0.91522000000000003
aF0.91585000000000005
aF0.86900999999999995
aF0.92735000000000001
aF0.89356000000000002
aF0.91466999999999998
aF0.91761999999999999
aF0.82743
aF0.93655999999999995
aF0.93764000000000003
aF0.93728
aF0.93925000000000003
aF0.93915999999999999
aF0.93140999999999996
aF0.91979
aF0.91761999999999999
aF0.93140999999999996
aF0.93459999999999999
aF0.89970000000000006
aF0.93345999999999996
aF0.93928999999999996
aF0.93833999999999995
aF0.93967999999999996
aF0.93879999999999997
aF0.93801000000000001
aF0.93459999999999999
aF0.93711
aF0.91761999999999999
aF0.93784999999999996
aF0.90542
aF0.91703000000000001
aF0.93220999999999998
aF0.93655999999999995
aF0.89603999999999995
aF0.93220999999999998
aF0.90444999999999998
aF0.81950000000000001
aF0.89861000000000002
aF0.90108999999999995
aF0.89281999999999995
aF0.90354000000000001
aF0.88012000000000001
aF0.94021999999999994
aF0.87360000000000004
aF0.92391000000000001
aF0.92262999999999995
aF0.92827999999999999
aF0.93254999999999999
aF0.93469999999999998
aF0.83972000000000002
aF0.91625000000000001
aF0.86068999999999996
aF0.91385000000000005
aF0.88238000000000005
aF0.86792000000000002
aF0.88736000000000004
aF0.88505999999999996
aF0.93140999999999996
aF0.93593000000000004
aF0.90542
aF0.93454000000000004
aF0.90022000000000002
aF0.87965000000000004
aF0.79518
aF0.83962999999999999
aF0.91735
aF0.92220999999999997
aF0.85821999999999998
aF0.91130999999999995
aF0.92530000000000001
aF0.93074000000000001
aF0.93067999999999995
aF0.92303000000000002
aF0.92608999999999997
aF0.90925
aF0.91627999999999998
aF0.91984999999999995
aF0.92752000000000001
aF0.91761999999999999
aF0.93759000000000003
aF0.94123999999999997
aF0.94057999999999997
aF0.83391000000000004
aF0.91627999999999998
aF0.92617000000000005
aF0.89036000000000004
aF0.88315999999999995
aF0.90864
aF0.89254
aF0.93542000000000003
aF0.88129999999999997
aF0.93496000000000001
aF0.91585000000000005
aF0.93537999999999999
aF0.93633999999999995
aF0.92422000000000004
aF0.92781999999999998
aF0.93542000000000003
aF0.93633999999999995
aF0.82926999999999995
aF0.91271000000000002
aF0.90407999999999999
aF0.92132999999999998
aF0.93759000000000003
aF0.93825000000000003
aF0.94028999999999996
aF0.93137999999999999
aF0.93593000000000004
aF0.92451000000000005
aF0.92615999999999998
aF0.91823999999999995
aF0.93459999999999999
aF0.87883999999999995
aF0.92451000000000005
aF0.92918000000000001
aF0.93122000000000005
aF0.91625000000000001
aF0.92008999999999996
aF0.92617000000000005
aF0.92864999999999998
aF0.93140999999999996
aF0.90159999999999996
aF0.89610999999999996
aF0.93339000000000005
aF0.92617000000000005
aF0.90834000000000004
aF0.88321000000000005
aF0.90259999999999996
aF0.91073000000000004
aF0.92930999999999997
aF0.93259000000000003
aF0.93469999999999998
aF0.93728
aF0.93454000000000004
aF0.93784999999999996
aF0.93784000000000001
aF0.93942000000000003
aF0.93140999999999996
aF0.93339000000000005
aF0.93686999999999998
aF0.93708000000000002
aF0.93689999999999996
aF0.93801000000000001
aF0.93454000000000004
aF0.88226000000000004
aF0.88873000000000002
aF0.91830000000000001
aF0.92220999999999997
aF0.92910999999999999
aF0.93339000000000005
aF0.93689999999999996
aF0.93728
aF0.89356000000000002
aF0.87973999999999997
aF0.89603999999999995
aF0.92930999999999997
aF0.93593000000000004
aF0.92869000000000002
asS'total'
p17
(lp18
F0.59233999999999998
aF0.43847000000000003
aF0.42679
aF0.12903000000000001
aF0.16274
aF0.63178999999999996
aF0.62639999999999996
aF0.61521999999999999
aF0.33510000000000001
aF0.58447000000000005
aF0.45632
aF0.61521999999999999
aF0.60614000000000001
aF0.45606999999999998
aF0.53069
aF0.43293999999999999
aF0.62624000000000002
aF0.63841000000000003
aF0.17091999999999999
aF0.48411999999999999
aF0.61477000000000004
aF0.52883000000000002
aF0.85326999999999997
aF0.38856000000000002
aF0.62624000000000002
aF0.64651000000000003
aF0.44886999999999999
aF0.75387999999999999
aF0.46939999999999998
aF0.24962999999999999
aF0.22445999999999999
aF0.45451000000000003
aF0.56672
aF0.83782000000000001
aF0.44425999999999999
aF0.64132999999999996
aF0.26085999999999998
aF0.40747
aF0.74275999999999998
aF0.45617000000000002
aF0.46639999999999998
aF0.47116999999999998
aF0.15171000000000001
aF0.48074
aF0.48115000000000002
aF0.64686999999999995
aF0.74419000000000002
aF0.58767999999999998
aF0.45017000000000001
aF0.84840000000000004
aF0.63266
aF0.58375999999999995
aF0.57828000000000002
aF0.30731999999999998
aF0.85326999999999997
aF0.85326999999999997
aF0.27587
aF0.27742
aF0.46406999999999998
aF0.62214000000000003
aF0.28138999999999997
aF0.28431000000000001
aF0.44029000000000001
aF0.37744
aF0.68398999999999999
aF0.35482000000000002
aF0.42924000000000001
aF0.38112000000000001
aF0.41367999999999999
aF0.44732
aF0.63917999999999997
aF0.28378999999999999
aF0.44969999999999999
aF0.31414999999999998
aF0.62214000000000003
aF0.32741999999999999
aF0.63397999999999999
aF0.62624000000000002
aF0.57899
aF0.62678999999999996
aF0.30125999999999997
aF0.35608000000000001
aF0.66624000000000005
aF0.2074
aF0.29553000000000001
aF0.61817999999999995
aF0.66310000000000002
aF0.57045000000000001
aF0.44029000000000001
aF0.28138999999999997
aF0.45017000000000001
aF0.24129999999999999
aF0.84852000000000005
aF0.49914999999999998
aF0.66156999999999999
aF0.50838000000000005
aF0.47815000000000002
aF0.76617000000000002
aF0.46939999999999998
aF0.63032999999999995
aF0.61506000000000005
aF0.44602000000000003
aF0.12323000000000001
aF0.21687000000000001
aF0.21687000000000001
aF0.27676000000000001
aF0.38402999999999998
aF0.45451000000000003
aF0.80764999999999998
aF0.65271000000000001
aF0.25914999999999999
aF0.64434999999999998
aF0.64258000000000004
aF0.54246000000000005
aF0.61150000000000004
aF0.63032999999999995
aF0.45699000000000001
aF0.34105000000000002
aF0.27127000000000001
aF0.59955999999999998
aF0.62363000000000002
aF0.46292
aF0.33845999999999998
aF0.64134999999999998
aF0.54945999999999995
aF0.30468000000000001
aF0.51304000000000005
aF0.50553999999999999
aF0.3221
aF0.63729000000000002
aF0.23357
aF0.077119999999999994
aF0.61506000000000005
aF0.77251000000000003
aF0.84923999999999999
aF0.72067999999999999
aF0.43475999999999998
aF0.52139999999999997
aF0.36758000000000002
aF0.64478999999999997
aF0.076100000000000001
aF0.48315999999999998
aF0.35276999999999997
aF0.44573000000000002
aF0.45312999999999998
aF0.86099999999999999
aF0.61682999999999999
aF0.62624000000000002
aF0.63032999999999995
aF0.85809999999999997
aF0.65459999999999996
aF0.61506000000000005
aF0.61309999999999998
aF0.61107
aF0.54278999999999999
aF0.085709999999999995
aF0.071139999999999995
aF0.62678999999999996
aF0.17352999999999999
aF0.61682999999999999
aF0.62214000000000003
aF0.38819999999999999
aF0.45282
aF0.46817999999999999
aF0.58172000000000001
aF0.17077999999999999
aF0.19161
aF0.37975999999999999
aF0.44573000000000002
aF0.46454000000000001
aF0.34849000000000002
aF0.62214000000000003
aF0.19950999999999999
aF0.39157999999999998
aF0.65556999999999999
aF0.16725000000000001
aF0.32157999999999998
aF0.84923999999999999
aF0.45451000000000003
aF0.65952999999999995
aF0.44029000000000001
aF0.43412000000000001
aF0.57045000000000001
aF0.45522000000000001
aF0.63032999999999995
aF0.58886000000000005
aF0.55071000000000003
aF0.83389999999999997
aF0.85304000000000002
aF0.85892999999999997
aF0.84614
aF0.85892999999999997
aF0.82223999999999997
aF0.74765000000000004
aF0.79127999999999998
aF0.83504
aF0.23094999999999999
aF0.70081000000000004
aF0.85304000000000002
aF0.54634000000000005
aF0.24451999999999999
aF0.51173000000000002
aF0.74041999999999997
aF0.83984999999999999
aF0.84996000000000005
aF0.77263000000000004
aF0.51683000000000001
aF0.78544000000000003
aF0.74524999999999997
aF0.62519999999999998
aF0.64137999999999995
aF0.74377000000000004
aF0.80974999999999997
aF0.68183000000000005
aF0.76424999999999998
aF0.57732000000000006
aF0.57408000000000003
aF0.57564000000000004
aF0.57303999999999999
aF0.84938999999999998
aF0.39444000000000001
aF0.84177000000000002
aF0.78541000000000005
aF0.71897999999999995
aF0.72611999999999999
aF0.81669999999999998
aF0.068250000000000005
aF0.73216000000000003
aF0.44396999999999998
aF0.82233999999999996
aF0.51870000000000005
aF0.84148000000000001
aF0.23866000000000001
aF0.73655000000000004
aF0.80225999999999997
aF0.49063000000000001
aF0.36682999999999999
aF0.71414999999999995
aF0.79737999999999998
aF0.85304000000000002
aF0.85892999999999997
aF0.83699000000000001
aF0.50614999999999999
aF0.86345000000000005
aF0.82042999999999999
aF0.70062000000000002
aF0.84494999999999998
aF0.37154999999999999
aF0.85177000000000003
aF0.78442000000000001
aF0.83335999999999999
aF0.66481000000000001
aF0.76043000000000005
aF0.82899999999999996
aF0.85592000000000001
aF0.84248000000000001
aF0.40849999999999997
aF0.30776999999999999
aF0.83504
aF0.83875
aF0.81669999999999998
aF0.81427000000000005
aF0.30158000000000001
aF0.66739999999999999
aF0.68184999999999996
aF0.68401999999999996
aF0.72990999999999995
aF0.62590000000000001
aF0.57501000000000002
aF0.66234000000000004
aF0.84004000000000001
aF0.77144000000000001
aF0.83074000000000003
aF0.84923999999999999
aF0.86307999999999996
aF0.86663000000000001
aF0.82196000000000002
aF0.80637000000000003
aF0.75926000000000005
aF0.77786
aF0.79764000000000002
aF0.76431000000000004
aF0.83747000000000005
aF0.83504
aF0.83640999999999999
aF0.83699000000000001
aF0.84089000000000003
aF0.80986000000000002
aF0.85326999999999997
aF0.77854000000000001
aF0.78837999999999997
aF0.79305999999999999
aF0.83984999999999999
aF0.36653999999999998
aF0.35004000000000002
aF0.45956999999999998
aF0.85958000000000001
aF0.85055000000000003
aF0.72858000000000001
aF0.67547000000000001
aF0.77627999999999997
aF0.78583999999999998
aF0.85751999999999995
aF0.76044999999999996
aF0.83260999999999996
aF0.40876000000000001
aF0.58401000000000003
aF0.66178999999999999
aF0.80698000000000003
aF0.84436999999999995
aF0.86092999999999997
aF0.85958000000000001
aF0.82106000000000001
aF0.77617000000000003
aF0.84436999999999995
aF0.79293000000000002
aF0.73655000000000004
aF0.86282999999999999
aF0.79286999999999996
aF0.80059999999999998
aF0.59043000000000001
aF0.84852000000000005
aF0.60712999999999995
aF0.61568999999999996
aF0.80284
aF0.82125000000000004
aF0.84287999999999996
aF0.47888999999999998
aF0.45468999999999998
aF0.79573000000000005
aF0.63039000000000001
aF0.82194999999999996
aF0.35128999999999999
aF0.75926000000000005
aF0.84840000000000004
aF0.84702999999999995
aF0.84436999999999995
aF0.64707999999999999
aF0.81433
aF0.76022999999999996
aF0.80742999999999998
aF0.45624999999999999
aF0.85307999999999995
aF0.86009000000000002
aF0.85304000000000002
aF0.70359000000000005
aF0.79764000000000002
aF0.86477000000000004
aF0.93728
aF0.92935000000000001
aF0.93437000000000003
aF0.59628000000000003
aF0.92915999999999999
aF0.84948000000000001
aF0.92391000000000001
aF0.92530000000000001
aF0.87651999999999997
aF0.90468000000000004
aF0.81671000000000005
aF0.92059999999999997
aF0.90300999999999998
aF0.84013000000000004
aF0.89285000000000003
aF0.92186999999999997
aF0.77547999999999995
aF0.78532000000000002
aF0.79561999999999999
aF0.75241999999999998
aF0.93223
aF0.90195000000000003
aF0.92522000000000004
aF0.90554000000000001
aF0.85807999999999995
aF0.79113999999999995
aF0.62958000000000003
aF0.80164999999999997
aF0.91837999999999997
aF0.82225000000000004
aF0.91957999999999995
aF0.89953000000000005
aF0.93379000000000001
aF0.89663999999999999
aF0.93281000000000003
aF0.46039999999999998
aF0.89768000000000003
aF0.87343999999999999
aF0.42514999999999997
aF0.85750999999999999
aF0.055039999999999999
aF0.25291999999999998
aF0.93269999999999997
aF0.84850000000000003
aF0.83487
aF0.87560000000000004
aF0.89881
aF0.90781000000000001
aF0.92186999999999997
aF0.45330999999999999
aF0.71089000000000002
aF0.89287000000000005
aF0.89080000000000004
aF0.84723000000000004
aF0.79661000000000004
aF0.92647999999999997
aF0.86207999999999996
aF0.79047000000000001
aF0.63354999999999995
aF0.83962999999999999
aF0.85760999999999998
aF0.91420000000000001
aF0.73663999999999996
aF0.93711
aF0.79335
aF0.84560999999999997
aF0.61136999999999997
aF0.91330999999999996
aF0.83289999999999997
aF0.93255999999999994
aF0.85760999999999998
aF0.90942999999999996
aF0.78573000000000004
aF0.59140000000000004
aF0.83555999999999997
aF0.82408999999999999
aF0.76395999999999997
aF0.79727999999999999
aF0.88446000000000002
aF0.58416999999999997
aF0.93095000000000006
aF0.93049000000000004
aF0.14274000000000001
aF0.93030999999999997
aF0.93496000000000001
aF0.92617000000000005
aF0.90039000000000002
aF0.88341000000000003
aF0.89605000000000001
aF0.91761000000000004
aF0.76092000000000004
aF0.57730000000000004
aF0.48063
aF0.82045000000000001
aF0.84560999999999997
aF0.85758000000000001
aF0.80930000000000002
aF0.91595000000000004
aF0.92208999999999997
aF0.92935000000000001
aF0.82648999999999995
aF0.92303000000000002
aF0.84031
aF0.85797000000000001
aF0.88515999999999995
aF0.64812000000000003
aF0.91361000000000003
aF0.88515999999999995
aF0.90132999999999996
aF0.91356999999999999
aF0.87383
aF0.92915999999999999
aF0.92976999999999999
aF0.9194
aF0.83384999999999998
aF0.89703999999999995
aF0.90746000000000004
aF0.91600000000000004
aF0.54393999999999998
aF0.92042000000000002
aF0.82155
aF0.94040999999999997
aF0.87802999999999998
aF0.89080000000000004
aF0.85877999999999999
aF0.53656000000000004
aF0.68889
aF0.33528000000000002
aF0.82394999999999996
aF0.93764999999999998
aF0.54264999999999997
aF0.89756000000000002
aF0.90544000000000002
aF0.90283000000000002
aF0.93899999999999995
aF0.93095000000000006
aF0.79254999999999998
aF0.61414000000000002
aF0.89890999999999999
aF0.93516999999999995
aF0.87072000000000005
aF0.22427
aF0.82830999999999999
aF0.88573000000000002
aF0.88507999999999998
aF0.93095000000000006
aF0.92186999999999997
aF0.27428999999999998
aF0.89953000000000005
aF0.87048000000000003
aF0.87810999999999995
aF0.88405999999999996
aF0.71484000000000003
aF0.83384999999999998
aF0.91420000000000001
aF0.84611999999999998
aF0.75775000000000003
aF0.91595000000000004
aF0.57103999999999999
aF0.87710999999999995
aF0.73255000000000003
aF0.49584
aF0.80832000000000004
aF0.58569000000000004
aF0.85043999999999997
aF0.90132999999999996
aF0.81169000000000002
aF0.93113999999999997
aF0.91808999999999996
aF0.62222999999999995
aF0.89270000000000005
aF0.91734000000000004
aF0.88507999999999998
aF0.91808999999999996
aF0.90554000000000001
aF0.87383
aF0.87107999999999997
aF0.57235999999999998
aF0.87683
aF0.74209999999999998
aF0.81711999999999996
aF0.86297000000000001
aF0.78434999999999999
aF0.91066000000000003
aF0.93784999999999996
aF0.93711
aF0.94028999999999996
aF0.93925000000000003
aF0.93998999999999999
aF0.93930000000000002
aF0.93220999999999998
aF0.93459999999999999
aF0.92645999999999995
aF0.93886000000000003
aF0.93955
aF0.93728
aF0.93339000000000005
aF0.92830000000000001
aF0.92425999999999997
aF0.93140999999999996
aF0.93593000000000004
aF0.91984999999999995
aF0.86212999999999995
aF0.92930999999999997
aF0.92159999999999997
aF0.92645999999999995
aF0.93459999999999999
aF0.89829000000000003
aF0.88224999999999998
aF0.91371999999999998
aF0.91225999999999996
aF0.92018
aF0.93633999999999995
aF0.93764000000000003
aF0.90805999999999998
aF0.93140999999999996
aF0.92744000000000004
aF0.92983000000000005
aF0.91627999999999998
aF0.92615999999999998
aF0.93074000000000001
aF0.93537999999999999
aF0.93689999999999996
aF0.92181000000000002
aF0.93220999999999998
aF0.93655999999999995
aF0.89788999999999997
aF0.90307999999999999
aF0.92615999999999998
aF0.91915000000000002
aF0.93345999999999996
aF0.93689999999999996
aF0.93742000000000003
aF0.87107000000000001
aF0.87241999999999997
aF0.87607000000000002
aF0.87411000000000005
aF0.88388999999999995
aF0.87887999999999999
aF0.87955000000000005
aF0.93613000000000002
aF0.91915000000000002
aF0.91225999999999996
aF0.93833999999999995
aF0.93879999999999997
aF0.92645999999999995
aF0.93784999999999996
aF0.90132999999999996
aF0.90664999999999996
aF0.92422000000000004
aF0.92827999999999999
aF0.90444999999999998
aF0.91385000000000005
aF0.91681000000000001
aF0.86904000000000003
aF0.87726999999999999
aF0.88295000000000001
aF0.78691
aF0.81120000000000003
aF0.81911
aF0.82835999999999999
aF0.86904000000000003
aF0.83111999999999997
aF0.77734000000000003
aF0.93645999999999996
aF0.93925000000000003
aF0.93689999999999996
aF0.94057999999999997
aF0.92008999999999996
aF0.92391000000000001
aF0.92608999999999997
aF0.92100000000000004
aF0.92617000000000005
aF0.91832000000000003
aF0.93459999999999999
aF0.92391000000000001
aF0.92208999999999997
aF0.90864
aF0.90551999999999999
aF0.91125999999999996
aF0.93259000000000003
aF0.87712000000000001
aF0.93742000000000003
aF0.94050999999999996
aF0.93655999999999995
aF0.93784999999999996
aF0.94040999999999997
aF0.90908999999999995
aF0.94181999999999999
aF0.57328999999999997
aF0.94059999999999999
aF0.93655999999999995
aF0.93667
aF0.91735
aF0.92008999999999996
aF0.91984999999999995
aF0.92530000000000001
aF0.93886000000000003
aF0.93855
aF0.93915999999999999
aF0.89188999999999996
aF0.90864
aF0.77058000000000004
aF0.88012000000000001
aF0.88548000000000004
aF0.82589999999999997
aF0.87046000000000001
aF0.87826000000000004
aF0.82094999999999996
aF0.93645999999999996
aF0.93930000000000002
aF0.94050999999999996
aF0.91486000000000001
aF0.91984999999999995
aF0.90781000000000001
aF0.89180999999999999
aF0.91625000000000001
aF0.92086999999999997
aF0.93454000000000004
aF0.87470000000000003
aF0.79759000000000002
aF0.90200000000000002
aF0.91830000000000001
aF0.92310000000000003
aF0.91474
aF0.93140999999999996
aF0.9194
aF0.91276999999999997
aF0.92617000000000005
aF0.92645999999999995
aF0.93154000000000003
aF0.92310000000000003
aF0.92752000000000001
aF0.91915000000000002
aF0.93535999999999997
aF0.93496000000000001
aF0.93533999999999995
aF0.87473999999999996
aF0.91761000000000004
aF0.91330999999999996
aF0.91371999999999998
aF0.88339000000000001
aF0.90554000000000001
aF0.93115999999999999
aF0.92244000000000004
aF0.91474
aF0.93784999999999996
aF0.92008999999999996
aF0.67144000000000004
aF0.92735000000000001
aF0.89861000000000002
aF0.93345999999999996
aF0.93930000000000002
aF0.93764999999999998
aF0.91830000000000001
aF0.91088999999999998
aF0.87502999999999997
aF0.93655999999999995
aF0.88966999999999996
aF0.89908999999999994
aF0.89188999999999996
aF0.91271000000000002
aF0.92979999999999996
aF0.93220999999999998
aF0.93459999999999999
aF0.92422000000000004
aF0.93593000000000004
aF0.93998000000000004
aF0.92869000000000002
aF0.93886000000000003
aF0.93855
aF0.93516999999999995
aF0.92827999999999999
aF0.90108999999999995
aF0.88119999999999998
aF0.88185999999999998
aF0.93967999999999996
aF0.93764000000000003
aF0.93728
aF0.93437000000000003
aF0.93496000000000001
aF0.93240999999999996
aF0.93345999999999996
aF0.93664999999999998
aF0.92530000000000001
aF0.92035
aF0.93784999999999996
aF0.92005000000000003
aF0.89427000000000001
aF0.90254999999999996
aF0.88226000000000004
aF0.93855
aF0.93728
aF0.93942000000000003
aF0.92107000000000006
aF0.92623999999999995
aF0.92869000000000002
aF0.91652999999999996
aF0.93825000000000003
aF0.86212999999999995
aF0.91112000000000004
aF0.9123
aF0.89500000000000002
aF0.88644999999999996
aF0.88644000000000001
aF0.89071999999999996
aF0.82394000000000001
aF0.85577999999999999
aF0.86412
aF0.84240999999999999
aF0.85577999999999999
aF0.85124
aF0.87270000000000003
aF0.82689999999999997
aF0.79886000000000001
aF0.93833999999999995
aF0.93899999999999995
aF0.91437999999999997
aF0.93259000000000003
aF0.93925000000000003
aF0.93496000000000001
aF0.93742000000000003
aF0.93925000000000003
aF0.93879999999999997
aF0.93915999999999999
aF0.93925000000000003
aF0.93711
aF0.93930000000000002
aF0.90108999999999995
aF0.91371999999999998
aF0.86495
aF0.87611000000000006
aF0.8841
aF0.93728
aF0.87400999999999995
aF0.93664999999999998
aF0.92303000000000002
aF0.93345999999999996
aF0.93886000000000003
aF0.92220999999999997
aF0.86419999999999997
aF0.93140999999999996
aF0.90822000000000003
aF0.91627999999999998
aF0.93345999999999996
aF0.91486000000000001
aF0.91115999999999997
aF0.93140999999999996
aF0.92244000000000004
aF0.91385000000000005
aF0.77830999999999995
aF0.76253000000000004
aF0.79379
aF0.87826000000000004
aF0.87712000000000001
aF0.75841999999999998
aF0.83974000000000004
aF0.84714999999999996
aF0.83382000000000001
aF0.84235000000000004
aF0.85731000000000002
aF0.85474000000000006
aF0.87046000000000001
aF0.85067999999999999
aF0.85390999999999995
aF0.86175999999999997
aF0.86904000000000003
aF0.87961999999999996
aF0.87795000000000001
aF0.87270000000000003
aF0.83040000000000003
aF0.83811999999999998
aF0.93342000000000003
aF0.92220999999999997
aF0.92530000000000001
aF0.92827999999999999
aF0.93928999999999996
aF0.92869000000000002
aF0.92959999999999998
aF0.93955
aF0.94166000000000005
aF0.93549000000000004
aF0.93537999999999999
aF0.90551999999999999
aF0.91385000000000005
aF0.93645999999999996
aF0.92008999999999996
aF0.92391000000000001
aF0.92864999999999998
aF0.93345999999999996
aF0.93803000000000003
aF0.92530000000000001
aF0.93454000000000004
aF0.91761999999999999
aF0.92005000000000003
aF0.92322000000000004
aF0.92776000000000003
aF0.89190000000000003
aF0.93454000000000004
aF0.90822000000000003
aF0.89732000000000001
aF0.91735
aF0.92530000000000001
aF0.92744000000000004
aF0.91371999999999998
aF0.90822000000000003
aF0.89970000000000006
aF0.89802999999999999
aF0.90722000000000003
aF0.90607000000000004
aF0.93140999999999996
aF0.93979999999999997
aF0.93915999999999999
aF0.92910999999999999
aF0.93544000000000005
aF0.93310999999999999
aF0.9335
aF0.93667
aF0.93979999999999997
aF0.93728
aF0.93784999999999996
aF0.93815000000000004
aF0.94059999999999999
aF0.92161000000000004
aF0.92571999999999999
aF0.92869000000000002
aF0.86773
aF0.93593000000000004
aF0.92530000000000001
aF0.9123
aF0.91376000000000002
aF0.91761999999999999
aF0.90159999999999996
aF0.91585000000000005
aF0.91915000000000002
aF0.93342000000000003
aF0.93537999999999999
aF0.93469999999999998
aF0.91681000000000001
aF0.93459999999999999
aF0.93955
aF0.86419999999999997
aF0.93593000000000004
aF0.92645999999999995
aF0.90769999999999995
aF0.91735
aF0.90834000000000004
aF0.88902999999999999
aF0.93345999999999996
aF0.94196000000000002
aF0.93952999999999998
aF0.90549999999999997
aF0.90159999999999996
aF0.89327999999999996
aF0.88800000000000001
aF0.89327999999999996
aF0.90073000000000003
aF0.93140999999999996
aF0.93259000000000003
aF0.93469999999999998
aF0.87955000000000005
aF0.87107000000000001
aF0.87841999999999998
aF0.87575000000000003
aF0.87822
aF0.86529999999999996
aF0.84575
aF0.84282000000000001
aF0.90549999999999997
aF0.92391000000000001
aF0.84172999999999998
aF0.91112000000000004
aF0.90859000000000001
aF0.93593000000000004
aF0.93754999999999999
aF0.93774999999999997
aF0.89668000000000003
aF0.82862999999999998
aF0.87827999999999995
aF0.66168000000000005
aF0.89281999999999995
aF0.90273000000000003
aF0.93655999999999995
aF0.91522000000000003
aF0.91585000000000005
aF0.86900999999999995
aF0.92735000000000001
aF0.89356000000000002
aF0.91466999999999998
aF0.91761999999999999
aF0.82743
aF0.93655999999999995
aF0.93764000000000003
aF0.93728
aF0.93925000000000003
aF0.93915999999999999
aF0.93140999999999996
aF0.91979
aF0.91761999999999999
aF0.93140999999999996
aF0.93459999999999999
aF0.89970000000000006
aF0.93345999999999996
aF0.93928999999999996
aF0.93833999999999995
aF0.93967999999999996
aF0.93879999999999997
aF0.93801000000000001
aF0.93459999999999999
aF0.93711
aF0.91761999999999999
aF0.93784999999999996
aF0.90542
aF0.91703000000000001
aF0.93220999999999998
aF0.93655999999999995
aF0.89603999999999995
aF0.93220999999999998
aF0.90444999999999998
aF0.81950000000000001
aF0.89861000000000002
aF0.90108999999999995
aF0.89281999999999995
aF0.90354000000000001
aF0.88012000000000001
aF0.94021999999999994
aF0.87360000000000004
aF0.92391000000000001
aF0.92262999999999995
aF0.92827999999999999
aF0.93254999999999999
aF0.93469999999999998
aF0.83972000000000002
aF0.91625000000000001
aF0.86068999999999996
aF0.91385000000000005
aF0.88238000000000005
aF0.86792000000000002
aF0.88736000000000004
aF0.88505999999999996
aF0.93140999999999996
aF0.93593000000000004
aF0.90542
aF0.93454000000000004
aF0.90022000000000002
aF0.87965000000000004
aF0.79518
aF0.83962999999999999
aF0.91735
aF0.92220999999999997
aF0.85821999999999998
aF0.91130999999999995
aF0.92530000000000001
aF0.93074000000000001
aF0.93067999999999995
aF0.92303000000000002
aF0.92608999999999997
aF0.90925
aF0.91627999999999998
aF0.91984999999999995
aF0.92752000000000001
aF0.91761999999999999
aF0.93759000000000003
aF0.94123999999999997
aF0.94057999999999997
aF0.83391000000000004
aF0.91627999999999998
aF0.92617000000000005
aF0.89036000000000004
aF0.88315999999999995
aF0.90864
aF0.89254
aF0.93542000000000003
aF0.88129999999999997
aF0.93496000000000001
aF0.91585000000000005
aF0.93537999999999999
aF0.93633999999999995
aF0.92422000000000004
aF0.92781999999999998
aF0.93542000000000003
aF0.93633999999999995
aF0.82926999999999995
aF0.91271000000000002
aF0.90407999999999999
aF0.92132999999999998
aF0.93759000000000003
aF0.93825000000000003
aF0.94028999999999996
aF0.93137999999999999
aF0.93593000000000004
aF0.92451000000000005
aF0.92615999999999998
aF0.91823999999999995
aF0.93459999999999999
aF0.87883999999999995
aF0.92451000000000005
aF0.92918000000000001
aF0.93122000000000005
aF0.91625000000000001
aF0.92008999999999996
aF0.92617000000000005
aF0.92864999999999998
aF0.93140999999999996
aF0.90159999999999996
aF0.89610999999999996
aF0.93339000000000005
aF0.92617000000000005
aF0.90834000000000004
aF0.88321000000000005
aF0.90259999999999996
aF0.91073000000000004
aF0.92930999999999997
aF0.93259000000000003
aF0.93469999999999998
aF0.93728
aF0.93454000000000004
aF0.93784999999999996
aF0.93784000000000001
aF0.93942000000000003
aF0.93140999999999996
aF0.93339000000000005
aF0.93686999999999998
aF0.93708000000000002
aF0.93689999999999996
aF0.93801000000000001
aF0.93454000000000004
aF0.88226000000000004
aF0.88873000000000002
aF0.91830000000000001
aF0.92220999999999997
aF0.92910999999999999
aF0.93339000000000005
aF0.93689999999999996
aF0.93728
aF0.89356000000000002
aF0.87973999999999997
aF0.89603999999999995
aF0.92930999999999997
aF0.93593000000000004
aF0.92869000000000002
aF0.78222999999999998
aF0.80059999999999998
aF0.81594999999999995
aF0.80356000000000005
aF0.78425
aF0.67779
aF0.76129000000000002
aF0.60070999999999997
aF0.56852999999999998
aF0.54529000000000005
aF0.72507999999999995
aF0.76256999999999997
aF0.76075000000000004
aF0.76961999999999997
aF0.56677
aF0.74029
aF0.79176999999999997
aF0.79079999999999995
aF0.79310999999999998
aF0.54732000000000003
aF0.76695999999999998
aF0.62966
aF0.77595999999999998
aF0.78944999999999999
aF0.65444999999999998
aF0.67942999999999998
aF0.68220000000000003
aF0.61431000000000002
aF0.78019000000000005
aF0.77359
aF0.58938000000000001
aF0.80583000000000005
aF0.80079
aF0.79554999999999998
aF0.80969000000000002
aF0.78937999999999997
aF0.78578999999999999
aF0.78500000000000003
aF0.51759999999999995
aF0.55628
aF0.78520000000000001
aF0.72057000000000004
aF0.74717999999999996
aF0.74609000000000003
aF0.70670999999999995
aF0.73692000000000002
aF0.79052999999999995
aF0.79954999999999998
aF0.79020999999999997
aF0.72057000000000004
aF0.69577999999999995
aF0.77880000000000005
aF0.78747
aF0.79723999999999995
aF0.79637000000000002
aF0.80044000000000004
aF0.72953999999999997
aF0.16844000000000001
aF0.81215999999999999
aF0.77822999999999998
aF0.80356000000000005
aF0.66654999999999998
aF0.81215999999999999
aF0.78959999999999997
aF0.79110999999999998
aF0.79757999999999996
aF0.76256000000000002
aF0.72953999999999997
aF0.79491000000000001
aF0.41058
aF0.65168000000000004
aF0.64788999999999997
aF0.56860999999999995
aF0.59792000000000001
aF0.55684999999999996
aF0.49636000000000002
aF0.79920000000000002
aF0.77956000000000003
aF0.75821000000000005
aF0.80069000000000001
aF0.71142000000000005
aF0.69918999999999998
aF0.74644999999999995
aF0.71950999999999998
aF0.53578000000000003
aF0.59809000000000001
aF0.54083999999999999
aF0.65075000000000005
aF0.65293000000000001
aF0.59721999999999997
aF0.53180000000000005
aF0.73682999999999998
aF0.78520000000000001
aF0.79176999999999997
aF0.78520000000000001
aF0.79079999999999995
aF0.79224000000000006
aF0.79020999999999997
aF0.81930000000000003
aF0.38812000000000002
aF0.81215999999999999
aF0.68411999999999995
aF0.72806000000000004
aF0.626
aF0.77107000000000003
aF0.75375000000000003
aF0.67003999999999997
aF0.77403
aF0.78254999999999997
aF0.78425
aF0.79368000000000005
aF0.79059000000000001
aF0.78646000000000005
aF0.79368000000000005
aF0.79637000000000002
aF0.80267999999999995
aF0.69677
aF0.78520000000000001
aF0.78520000000000001
aF0.78254999999999997
aF0.73692000000000002
aF0.70670999999999995
aF0.70338000000000001
aF0.70245999999999997
aF0.65815999999999997
aF0.66344000000000003
aF0.63366999999999996
aF0.79554999999999998
aF0.80918999999999996
aF0.81023000000000001
aF0.66337000000000002
aF0.77880000000000005
aF0.70113999999999999
aF0.57188000000000005
aF0.78944999999999999
aF0.59721999999999997
aF0.58204999999999996
aF0.56120999999999999
aF0.80822000000000005
aF0.81149000000000004
aF0.79554999999999998
aF0.80822000000000005
aF0.80396999999999996
aF0.80825999999999998
aF0.63526000000000005
aF0.67876999999999998
aF0.67430999999999996
aF0.64183000000000001
aF0.66264999999999996
aF0.68254999999999999
aF0.79176999999999997
aF0.79491000000000001
aF0.75743000000000005
aF0.81149000000000004
aF0.77256999999999998
aF0.61822999999999995
aF0.78254999999999997
aF0.77983999999999998
aF0.67430999999999996
aF0.74173
aF0.74212
aF0.75451999999999997
aF0.80825999999999998
aF0.81930000000000003
aF0.81664000000000003
aF0.72453000000000001
aF0.55410999999999999
aF0.80203999999999998
aF0.13475999999999999
aF0.77956000000000003
aF0.7571
aF0.79723999999999995
aF0.79290000000000005
aF0.79274
aF0.63014000000000003
aF0.80069000000000001
aF0.80373000000000006
aF0.73682999999999998
aF0.67493999999999998
aF0.78473000000000004
aF0.49711
aF0.72106999999999999
aF0.81401000000000001
aF0.79920000000000002
aF0.79437999999999998
aF0.79559000000000002
aF0.81076999999999999
aF0.76380999999999999
aF0.79224000000000006
aF0.65266999999999997
aF0.77822999999999998
aF0.10524
aF0.44829000000000002
aF0.11982
asS'dp'
p19
(lp20
F0.85326999999999997
aF0.38856000000000002
aF0.62624000000000002
aF0.64651000000000003
aF0.44886999999999999
aF0.75387999999999999
aF0.46939999999999998
aF0.24962999999999999
aF0.22445999999999999
aF0.45451000000000003
aF0.56672
aF0.83782000000000001
aF0.44425999999999999
aF0.64132999999999996
aF0.26085999999999998
aF0.40747
aF0.74275999999999998
aF0.45617000000000002
aF0.46639999999999998
aF0.47116999999999998
aF0.15171000000000001
aF0.48074
aF0.48115000000000002
aF0.64686999999999995
aF0.74419000000000002
aF0.58767999999999998
aF0.45017000000000001
aF0.84840000000000004
aF0.63266
aF0.58375999999999995
aF0.57828000000000002
aF0.30731999999999998
aF0.85326999999999997
aF0.85326999999999997
aF0.27587
aF0.27742
aF0.46406999999999998
aF0.62214000000000003
aF0.28138999999999997
aF0.28431000000000001
aF0.44029000000000001
aF0.37744
aF0.68398999999999999
aF0.35482000000000002
aF0.42924000000000001
aF0.38112000000000001
aF0.41367999999999999
aF0.44732
aF0.63917999999999997
aF0.28378999999999999
aF0.44969999999999999
aF0.31414999999999998
aF0.62214000000000003
aF0.32741999999999999
aF0.63397999999999999
aF0.62624000000000002
aF0.57899
aF0.62678999999999996
aF0.30125999999999997
aF0.35608000000000001
aF0.66624000000000005
aF0.2074
aF0.29553000000000001
aF0.61817999999999995
aF0.66310000000000002
aF0.57045000000000001
aF0.44029000000000001
aF0.28138999999999997
aF0.45017000000000001
aF0.24129999999999999
aF0.84852000000000005
aF0.49914999999999998
aF0.66156999999999999
aF0.50838000000000005
aF0.47815000000000002
aF0.76617000000000002
aF0.46939999999999998
aF0.63032999999999995
aF0.61506000000000005
aF0.44602000000000003
aF0.12323000000000001
aF0.21687000000000001
aF0.21687000000000001
aF0.27676000000000001
aF0.38402999999999998
aF0.45451000000000003
aF0.80764999999999998
aF0.65271000000000001
aF0.25914999999999999
aF0.64434999999999998
aF0.64258000000000004
aF0.54246000000000005
aF0.61150000000000004
aF0.63032999999999995
aF0.45699000000000001
aF0.34105000000000002
aF0.27127000000000001
aF0.59955999999999998
aF0.62363000000000002
aF0.46292
aF0.33845999999999998
aF0.64134999999999998
aF0.54945999999999995
aF0.30468000000000001
aF0.51304000000000005
aF0.50553999999999999
aF0.3221
aF0.63729000000000002
aF0.23357
aF0.077119999999999994
aF0.61506000000000005
aF0.77251000000000003
aF0.84923999999999999
aF0.72067999999999999
aF0.43475999999999998
aF0.52139999999999997
aF0.36758000000000002
aF0.64478999999999997
aF0.076100000000000001
aF0.48315999999999998
aF0.35276999999999997
aF0.44573000000000002
aF0.45312999999999998
aF0.86099999999999999
aF0.61682999999999999
aF0.62624000000000002
aF0.63032999999999995
aF0.85809999999999997
aF0.65459999999999996
aF0.61506000000000005
aF0.61309999999999998
aF0.61107
aF0.54278999999999999
aF0.085709999999999995
aF0.071139999999999995
aF0.62678999999999996
aF0.17352999999999999
aF0.61682999999999999
aF0.62214000000000003
aF0.38819999999999999
aF0.45282
aF0.46817999999999999
aF0.58172000000000001
aF0.17077999999999999
aF0.19161
aF0.37975999999999999
aF0.44573000000000002
aF0.46454000000000001
aF0.34849000000000002
aF0.62214000000000003
aF0.19950999999999999
aF0.39157999999999998
aF0.65556999999999999
aF0.16725000000000001
aF0.32157999999999998
aF0.84923999999999999
aF0.45451000000000003
aF0.65952999999999995
aF0.44029000000000001
aF0.43412000000000001
aF0.57045000000000001
aF0.45522000000000001
aF0.63032999999999995
asS'multi'
p21
(lp22
F0.10524
aF0.44829000000000002
aF0.11982
asS'no'
p23
(lp24
F0.78222999999999998
aF0.80059999999999998
aF0.81594999999999995
aF0.80356000000000005
aF0.78425
aF0.67779
aF0.76129000000000002
aF0.60070999999999997
aF0.56852999999999998
aF0.54529000000000005
aF0.72507999999999995
aF0.76256999999999997
aF0.76075000000000004
aF0.76961999999999997
aF0.56677
aF0.74029
aF0.79176999999999997
aF0.79079999999999995
aF0.79310999999999998
aF0.54732000000000003
aF0.76695999999999998
aF0.62966
aF0.77595999999999998
aF0.78944999999999999
aF0.65444999999999998
aF0.67942999999999998
aF0.68220000000000003
aF0.61431000000000002
aF0.78019000000000005
aF0.77359
aF0.58938000000000001
aF0.80583000000000005
aF0.80079
aF0.79554999999999998
aF0.80969000000000002
aF0.78937999999999997
aF0.78578999999999999
aF0.78500000000000003
aF0.51759999999999995
aF0.55628
aF0.78520000000000001
aF0.72057000000000004
aF0.74717999999999996
aF0.74609000000000003
aF0.70670999999999995
aF0.73692000000000002
aF0.79052999999999995
aF0.79954999999999998
aF0.79020999999999997
aF0.72057000000000004
aF0.69577999999999995
aF0.77880000000000005
aF0.78747
aF0.79723999999999995
aF0.79637000000000002
aF0.80044000000000004
aF0.72953999999999997
aF0.16844000000000001
aF0.81215999999999999
aF0.77822999999999998
aF0.80356000000000005
aF0.66654999999999998
aF0.81215999999999999
aF0.78959999999999997
aF0.79110999999999998
aF0.79757999999999996
aF0.76256000000000002
aF0.72953999999999997
aF0.79491000000000001
aF0.41058
aF0.65168000000000004
aF0.64788999999999997
aF0.56860999999999995
aF0.59792000000000001
aF0.55684999999999996
aF0.49636000000000002
aF0.79920000000000002
aF0.77956000000000003
aF0.75821000000000005
aF0.80069000000000001
aF0.71142000000000005
aF0.69918999999999998
aF0.74644999999999995
aF0.71950999999999998
aF0.53578000000000003
aF0.59809000000000001
aF0.54083999999999999
aF0.65075000000000005
aF0.65293000000000001
aF0.59721999999999997
aF0.53180000000000005
aF0.73682999999999998
aF0.78520000000000001
aF0.79176999999999997
aF0.78520000000000001
aF0.79079999999999995
aF0.79224000000000006
aF0.79020999999999997
aF0.81930000000000003
aF0.38812000000000002
aF0.81215999999999999
aF0.68411999999999995
aF0.72806000000000004
aF0.626
aF0.77107000000000003
aF0.75375000000000003
aF0.67003999999999997
aF0.77403
aF0.78254999999999997
aF0.78425
aF0.79368000000000005
aF0.79059000000000001
aF0.78646000000000005
aF0.79368000000000005
aF0.79637000000000002
aF0.80267999999999995
aF0.69677
aF0.78520000000000001
aF0.78520000000000001
aF0.78254999999999997
aF0.73692000000000002
aF0.70670999999999995
aF0.70338000000000001
aF0.70245999999999997
aF0.65815999999999997
aF0.66344000000000003
aF0.63366999999999996
aF0.79554999999999998
aF0.80918999999999996
aF0.81023000000000001
aF0.66337000000000002
aF0.77880000000000005
aF0.70113999999999999
aF0.57188000000000005
aF0.78944999999999999
aF0.59721999999999997
aF0.58204999999999996
aF0.56120999999999999
aF0.80822000000000005
aF0.81149000000000004
aF0.79554999999999998
aF0.80822000000000005
aF0.80396999999999996
aF0.80825999999999998
aF0.63526000000000005
aF0.67876999999999998
aF0.67430999999999996
aF0.64183000000000001
aF0.66264999999999996
aF0.68254999999999999
aF0.79176999999999997
aF0.79491000000000001
aF0.75743000000000005
aF0.81149000000000004
aF0.77256999999999998
aF0.61822999999999995
aF0.78254999999999997
aF0.77983999999999998
aF0.67430999999999996
aF0.74173
aF0.74212
aF0.75451999999999997
aF0.80825999999999998
aF0.81930000000000003
aF0.81664000000000003
aF0.72453000000000001
aF0.55410999999999999
aF0.80203999999999998
aF0.13475999999999999
aF0.77956000000000003
aF0.7571
aF0.79723999999999995
aF0.79290000000000005
aF0.79274
aF0.63014000000000003
aF0.80069000000000001
aF0.80373000000000006
aF0.73682999999999998
aF0.67493999999999998
aF0.78473000000000004
aF0.49711
aF0.72106999999999999
aF0.81401000000000001
aF0.79920000000000002
aF0.79437999999999998
aF0.79559000000000002
aF0.81076999999999999
aF0.76380999999999999
aF0.79224000000000006
aF0.65266999999999997
aF0.77822999999999998
asS'tt'
p25
(lp26
F0.93728
aF0.92935000000000001
aF0.93437000000000003
aF0.59628000000000003
aF0.92915999999999999
aF0.84948000000000001
aF0.92391000000000001
aF0.92530000000000001
aF0.87651999999999997
aF0.90468000000000004
aF0.81671000000000005
aF0.92059999999999997
aF0.90300999999999998
aF0.84013000000000004
aF0.89285000000000003
aF0.92186999999999997
aF0.77547999999999995
aF0.78532000000000002
aF0.79561999999999999
aF0.75241999999999998
aF0.93223
aF0.90195000000000003
aF0.92522000000000004
aF0.90554000000000001
aF0.85807999999999995
aF0.79113999999999995
aF0.62958000000000003
aF0.80164999999999997
aF0.91837999999999997
aF0.82225000000000004
aF0.91957999999999995
aF0.89953000000000005
aF0.93379000000000001
aF0.89663999999999999
aF0.93281000000000003
aF0.46039999999999998
aF0.89768000000000003
aF0.87343999999999999
aF0.42514999999999997
aF0.85750999999999999
aF0.055039999999999999
aF0.25291999999999998
aF0.93269999999999997
aF0.84850000000000003
aF0.83487
aF0.87560000000000004
aF0.89881
aF0.90781000000000001
aF0.92186999999999997
aF0.45330999999999999
aF0.71089000000000002
aF0.89287000000000005
aF0.89080000000000004
aF0.84723000000000004
aF0.79661000000000004
aF0.92647999999999997
aF0.86207999999999996
aF0.79047000000000001
aF0.63354999999999995
aF0.83962999999999999
aF0.85760999999999998
aF0.91420000000000001
aF0.73663999999999996
aF0.93711
aF0.79335
aF0.84560999999999997
aF0.61136999999999997
aF0.91330999999999996
aF0.83289999999999997
aF0.93255999999999994
aF0.85760999999999998
aF0.90942999999999996
aF0.78573000000000004
aF0.59140000000000004
aF0.83555999999999997
aF0.82408999999999999
aF0.76395999999999997
aF0.79727999999999999
aF0.88446000000000002
aF0.58416999999999997
aF0.93095000000000006
aF0.93049000000000004
aF0.14274000000000001
aF0.93030999999999997
aF0.93496000000000001
aF0.92617000000000005
aF0.90039000000000002
aF0.88341000000000003
aF0.89605000000000001
aF0.91761000000000004
aF0.76092000000000004
aF0.57730000000000004
aF0.48063
aF0.82045000000000001
aF0.84560999999999997
aF0.85758000000000001
aF0.80930000000000002
aF0.91595000000000004
aF0.92208999999999997
aF0.92935000000000001
aF0.82648999999999995
aF0.92303000000000002
aF0.84031
aF0.85797000000000001
aF0.88515999999999995
aF0.64812000000000003
aF0.91361000000000003
aF0.88515999999999995
aF0.90132999999999996
aF0.91356999999999999
aF0.87383
aF0.92915999999999999
aF0.92976999999999999
aF0.9194
aF0.83384999999999998
aF0.89703999999999995
aF0.90746000000000004
aF0.91600000000000004
aF0.54393999999999998
aF0.92042000000000002
aF0.82155
aF0.94040999999999997
aF0.87802999999999998
aF0.89080000000000004
aF0.85877999999999999
aF0.53656000000000004
aF0.68889
aF0.33528000000000002
aF0.82394999999999996
aF0.93764999999999998
aF0.54264999999999997
aF0.89756000000000002
aF0.90544000000000002
aF0.90283000000000002
aF0.93899999999999995
aF0.93095000000000006
aF0.79254999999999998
aF0.61414000000000002
aF0.89890999999999999
aF0.93516999999999995
aF0.87072000000000005
aF0.22427
aF0.82830999999999999
aF0.88573000000000002
aF0.88507999999999998
aF0.93095000000000006
aF0.92186999999999997
aF0.27428999999999998
aF0.89953000000000005
aF0.87048000000000003
aF0.87810999999999995
aF0.88405999999999996
aF0.71484000000000003
aF0.83384999999999998
aF0.91420000000000001
aF0.84611999999999998
aF0.75775000000000003
aF0.91595000000000004
aF0.57103999999999999
aF0.87710999999999995
aF0.73255000000000003
aF0.49584
aF0.80832000000000004
aF0.58569000000000004
aF0.85043999999999997
aF0.90132999999999996
aF0.81169000000000002
aF0.93113999999999997
aF0.91808999999999996
aF0.62222999999999995
aF0.89270000000000005
aF0.91734000000000004
aF0.88507999999999998
aF0.91808999999999996
aF0.90554000000000001
aF0.87383
aF0.87107999999999997
aF0.57235999999999998
aF0.87683
aF0.74209999999999998
aF0.81711999999999996
aF0.86297000000000001
aF0.78434999999999999
aF0.91066000000000003
as.