(dp0
S'multi3'
p1
(lp2
sS'multi2'
p3
(lp4
sS'multi5'
p5
(lp6
sS'multi4'
p7
(lp8
sS'bn'
p9
(lp10
sS'ap'
p11
(lp12
F0.78574999999999995
aF0.82845000000000002
aF0.27456000000000003
aF0.33217000000000002
aF0.33722000000000002
aF0.17396
aF0.83609
aF0.68196000000000001
aF0.63017000000000001
aF0.80249000000000004
aF0.79779999999999995
aF0.72111999999999998
aF0.36728
aF0.80257000000000001
aF0.74267000000000005
aF0.58718999999999999
aF0.58650000000000002
aF0.58825000000000005
aF0.70291000000000003
aF0.81528
aF0.78163000000000005
asS'single'
p13
(lp14
F0.084379999999999997
aF0.2555
aF0.01299
aF0.15296000000000001
aF0.50322
aF0.42381999999999997
aF0.62624000000000002
aF0.58809999999999996
aF0.12336999999999999
aF0.35885
aF0.16188
aF0.46583000000000002
aF0.40311999999999998
aF0.45661000000000002
aF0.66823999999999995
aF0.55030000000000001
aF0.62873999999999997
aF0.63383999999999996
aF0.19567999999999999
aF0.18154000000000001
aF0.054579999999999997
aF0.78964999999999996
aF0.51397999999999999
aF0.82452999999999999
aF0.64478999999999997
aF0.38377
aF0.78574999999999995
aF0.82845000000000002
aF0.27456000000000003
aF0.33217000000000002
aF0.33722000000000002
aF0.17396
aF0.83609
aF0.68196000000000001
aF0.63017000000000001
aF0.80249000000000004
aF0.79779999999999995
aF0.72111999999999998
aF0.36728
aF0.80257000000000001
aF0.74267000000000005
aF0.58718999999999999
aF0.58650000000000002
aF0.58825000000000005
aF0.70291000000000003
aF0.81528
aF0.78163000000000005
aF0.84869000000000006
aF0.82923999999999998
aF0.91634000000000004
aF0.85816000000000003
aF0.73087999999999997
aF0.67303999999999997
aF0.88817999999999997
aF0.74558999999999997
aF0.93340999999999996
aF0.81938
aF0.91786999999999996
aF0.42294999999999999
aF0.91261000000000003
aF0.91125
aF0.48886000000000002
aF0.81572999999999996
aF0.72050999999999998
aF0.90286
aF0.84711000000000003
aF0.91203999999999996
aF0.65064
aF0.87099000000000004
aF0.92744000000000004
aF0.89932000000000001
aF0.71260999999999997
aF0.93955
aF0.91773000000000005
aF0.92142000000000002
aF0.92047000000000001
aF0.92903000000000002
aF0.92283999999999999
aF0.86904000000000003
aF0.86460999999999999
aF0.87533000000000005
aF0.93140999999999996
aF0.87473999999999996
aF0.86990999999999996
aF0.93998000000000004
aF0.90397000000000005
aF0.89954000000000001
aF0.92244000000000004
aF0.88841999999999999
aF0.89703999999999995
aF0.93542000000000003
aF0.86621000000000004
aF0.92140999999999995
aF0.92822000000000005
aF0.94101000000000001
aF0.94010000000000005
aF0.91730999999999996
aF0.92140999999999995
aF0.93664999999999998
aF0.93533999999999995
aF0.92513000000000001
aF0.92974000000000001
aF0.91524000000000005
aF0.91771999999999998
aF0.91974
aF0.93784999999999996
aF0.93764999999999998
aF0.91142999999999996
aF0.86929000000000001
aF0.93427000000000004
aF0.90866000000000002
aF0.91984999999999995
aF0.90291999999999994
aF0.92310000000000003
aF0.90259999999999996
aF0.82682
aF0.93645999999999996
aF0.90554000000000001
aF0.91376999999999997
aF0.91654999999999998
aF0.91878000000000004
aF0.82864000000000004
aF0.81913999999999998
aF0.91217999999999999
aF0.92530000000000001
aF0.91654000000000002
aF0.92745999999999995
aF0.93394999999999995
aF0.91878000000000004
aF0.92296
aF0.91757
aF0.91903999999999997
aF0.92068000000000005
aF0.93437000000000003
aF0.91761999999999999
aF0.89751000000000003
aF0.75805
aF0.79176999999999997
aF0.65937999999999997
aF0.80044000000000004
aF0.77393999999999996
aF0.67210999999999999
aF0.70670999999999995
aF0.68472999999999995
aF0.70842000000000005
aF0.71394999999999997
aF0.79854999999999998
aF0.60091000000000006
aF0.79698000000000002
aF0.73433000000000004
aF0.49990000000000001
aF0.68071000000000004
aF0.74609000000000003
aF0.75012999999999996
aF0.76749000000000001
aF0.75792999999999999
aF0.78952999999999995
aF0.78520000000000001
aF0.80203999999999998
aF0.79146000000000005
aF0.80044000000000004
aF0.80281000000000002
aF0.80191000000000001
aF0.80259000000000003
aF0.80013999999999996
aF0.80027999999999999
aF0.80715000000000003
aF0.81320000000000003
aF0.81137000000000004
aF0.77753000000000005
aF0.78520000000000001
aF0.74905999999999995
aF0.75821000000000005
aF0.75370000000000004
aF0.80903999999999998
aF0.81518000000000002
aF0.79847999999999997
aF0.71645999999999999
aF0.71711999999999998
aF0.31923000000000001
aF0.75743000000000005
aF0.75451999999999997
aF0.71355999999999997
aF0.72241999999999995
aF0.62265999999999999
aF0.70842000000000005
aF0.52044000000000001
aF0.73682999999999998
aF0.74151999999999996
aF0.77880000000000005
aF0.75826000000000005
aF0.76114000000000004
aF0.26818999999999998
aF0.78747
aF0.79290000000000005
aF0.79439000000000004
aF0.53271999999999997
aF0.54349000000000003
asS'yes'
p15
(lp16
F0.92744000000000004
aF0.89932000000000001
aF0.71260999999999997
aF0.93955
aF0.91773000000000005
aF0.92142000000000002
aF0.92047000000000001
aF0.92903000000000002
aF0.92283999999999999
aF0.86904000000000003
aF0.86460999999999999
aF0.87533000000000005
aF0.93140999999999996
aF0.87473999999999996
aF0.86990999999999996
aF0.93998000000000004
aF0.90397000000000005
aF0.89954000000000001
aF0.92244000000000004
aF0.88841999999999999
aF0.89703999999999995
aF0.93542000000000003
aF0.86621000000000004
aF0.92140999999999995
aF0.92822000000000005
aF0.94101000000000001
aF0.94010000000000005
aF0.91730999999999996
aF0.92140999999999995
aF0.93664999999999998
aF0.93533999999999995
aF0.92513000000000001
aF0.92974000000000001
aF0.91524000000000005
aF0.91771999999999998
aF0.91974
aF0.93784999999999996
aF0.93764999999999998
aF0.91142999999999996
aF0.86929000000000001
aF0.93427000000000004
aF0.90866000000000002
aF0.91984999999999995
aF0.90291999999999994
aF0.92310000000000003
aF0.90259999999999996
aF0.82682
aF0.93645999999999996
aF0.90554000000000001
aF0.91376999999999997
aF0.91654999999999998
aF0.91878000000000004
aF0.82864000000000004
aF0.81913999999999998
aF0.91217999999999999
aF0.92530000000000001
aF0.91654000000000002
aF0.92745999999999995
aF0.93394999999999995
aF0.91878000000000004
aF0.92296
aF0.91757
aF0.91903999999999997
aF0.92068000000000005
aF0.93437000000000003
aF0.91761999999999999
aF0.89751000000000003
asS'total'
p17
(lp18
F0.084379999999999997
aF0.2555
aF0.01299
aF0.15296000000000001
aF0.50322
aF0.42381999999999997
aF0.62624000000000002
aF0.58809999999999996
aF0.12336999999999999
aF0.35885
aF0.16188
aF0.46583000000000002
aF0.40311999999999998
aF0.45661000000000002
aF0.66823999999999995
aF0.55030000000000001
aF0.62873999999999997
aF0.63383999999999996
aF0.19567999999999999
aF0.18154000000000001
aF0.054579999999999997
aF0.78964999999999996
aF0.51397999999999999
aF0.82452999999999999
aF0.64478999999999997
aF0.38377
aF0.78574999999999995
aF0.82845000000000002
aF0.27456000000000003
aF0.33217000000000002
aF0.33722000000000002
aF0.17396
aF0.83609
aF0.68196000000000001
aF0.63017000000000001
aF0.80249000000000004
aF0.79779999999999995
aF0.72111999999999998
aF0.36728
aF0.80257000000000001
aF0.74267000000000005
aF0.58718999999999999
aF0.58650000000000002
aF0.58825000000000005
aF0.70291000000000003
aF0.81528
aF0.78163000000000005
aF0.84869000000000006
aF0.82923999999999998
aF0.91634000000000004
aF0.85816000000000003
aF0.73087999999999997
aF0.67303999999999997
aF0.88817999999999997
aF0.74558999999999997
aF0.93340999999999996
aF0.81938
aF0.91786999999999996
aF0.42294999999999999
aF0.91261000000000003
aF0.91125
aF0.48886000000000002
aF0.81572999999999996
aF0.72050999999999998
aF0.90286
aF0.84711000000000003
aF0.91203999999999996
aF0.65064
aF0.87099000000000004
aF0.92744000000000004
aF0.89932000000000001
aF0.71260999999999997
aF0.93955
aF0.91773000000000005
aF0.92142000000000002
aF0.92047000000000001
aF0.92903000000000002
aF0.92283999999999999
aF0.86904000000000003
aF0.86460999999999999
aF0.87533000000000005
aF0.93140999999999996
aF0.87473999999999996
aF0.86990999999999996
aF0.93998000000000004
aF0.90397000000000005
aF0.89954000000000001
aF0.92244000000000004
aF0.88841999999999999
aF0.89703999999999995
aF0.93542000000000003
aF0.86621000000000004
aF0.92140999999999995
aF0.92822000000000005
aF0.94101000000000001
aF0.94010000000000005
aF0.91730999999999996
aF0.92140999999999995
aF0.93664999999999998
aF0.93533999999999995
aF0.92513000000000001
aF0.92974000000000001
aF0.91524000000000005
aF0.91771999999999998
aF0.91974
aF0.93784999999999996
aF0.93764999999999998
aF0.91142999999999996
aF0.86929000000000001
aF0.93427000000000004
aF0.90866000000000002
aF0.91984999999999995
aF0.90291999999999994
aF0.92310000000000003
aF0.90259999999999996
aF0.82682
aF0.93645999999999996
aF0.90554000000000001
aF0.91376999999999997
aF0.91654999999999998
aF0.91878000000000004
aF0.82864000000000004
aF0.81913999999999998
aF0.91217999999999999
aF0.92530000000000001
aF0.91654000000000002
aF0.92745999999999995
aF0.93394999999999995
aF0.91878000000000004
aF0.92296
aF0.91757
aF0.91903999999999997
aF0.92068000000000005
aF0.93437000000000003
aF0.91761999999999999
aF0.89751000000000003
aF0.75805
aF0.79176999999999997
aF0.65937999999999997
aF0.80044000000000004
aF0.77393999999999996
aF0.67210999999999999
aF0.70670999999999995
aF0.68472999999999995
aF0.70842000000000005
aF0.71394999999999997
aF0.79854999999999998
aF0.60091000000000006
aF0.79698000000000002
aF0.73433000000000004
aF0.49990000000000001
aF0.68071000000000004
aF0.74609000000000003
aF0.75012999999999996
aF0.76749000000000001
aF0.75792999999999999
aF0.78952999999999995
aF0.78520000000000001
aF0.80203999999999998
aF0.79146000000000005
aF0.80044000000000004
aF0.80281000000000002
aF0.80191000000000001
aF0.80259000000000003
aF0.80013999999999996
aF0.80027999999999999
aF0.80715000000000003
aF0.81320000000000003
aF0.81137000000000004
aF0.77753000000000005
aF0.78520000000000001
aF0.74905999999999995
aF0.75821000000000005
aF0.75370000000000004
aF0.80903999999999998
aF0.81518000000000002
aF0.79847999999999997
aF0.71645999999999999
aF0.71711999999999998
aF0.31923000000000001
aF0.75743000000000005
aF0.75451999999999997
aF0.71355999999999997
aF0.72241999999999995
aF0.62265999999999999
aF0.70842000000000005
aF0.52044000000000001
aF0.73682999999999998
aF0.74151999999999996
aF0.77880000000000005
aF0.75826000000000005
aF0.76114000000000004
aF0.26818999999999998
aF0.78747
aF0.79290000000000005
aF0.79439000000000004
aF0.53271999999999997
aF0.54349000000000003
asS'dp'
p19
(lp20
F0.084379999999999997
aF0.2555
aF0.01299
aF0.15296000000000001
aF0.50322
aF0.42381999999999997
aF0.62624000000000002
aF0.58809999999999996
aF0.12336999999999999
aF0.35885
aF0.16188
aF0.46583000000000002
aF0.40311999999999998
aF0.45661000000000002
aF0.66823999999999995
aF0.55030000000000001
aF0.62873999999999997
aF0.63383999999999996
aF0.19567999999999999
aF0.18154000000000001
aF0.054579999999999997
aF0.78964999999999996
aF0.51397999999999999
aF0.82452999999999999
aF0.64478999999999997
aF0.38377
asS'multi'
p21
(lp22
sS'no'
p23
(lp24
F0.75805
aF0.79176999999999997
aF0.65937999999999997
aF0.80044000000000004
aF0.77393999999999996
aF0.67210999999999999
aF0.70670999999999995
aF0.68472999999999995
aF0.70842000000000005
aF0.71394999999999997
aF0.79854999999999998
aF0.60091000000000006
aF0.79698000000000002
aF0.73433000000000004
aF0.49990000000000001
aF0.68071000000000004
aF0.74609000000000003
aF0.75012999999999996
aF0.76749000000000001
aF0.75792999999999999
aF0.78952999999999995
aF0.78520000000000001
aF0.80203999999999998
aF0.79146000000000005
aF0.80044000000000004
aF0.80281000000000002
aF0.80191000000000001
aF0.80259000000000003
aF0.80013999999999996
aF0.80027999999999999
aF0.80715000000000003
aF0.81320000000000003
aF0.81137000000000004
aF0.77753000000000005
aF0.78520000000000001
aF0.74905999999999995
aF0.75821000000000005
aF0.75370000000000004
aF0.80903999999999998
aF0.81518000000000002
aF0.79847999999999997
aF0.71645999999999999
aF0.71711999999999998
aF0.31923000000000001
aF0.75743000000000005
aF0.75451999999999997
aF0.71355999999999997
aF0.72241999999999995
aF0.62265999999999999
aF0.70842000000000005
aF0.52044000000000001
aF0.73682999999999998
aF0.74151999999999996
aF0.77880000000000005
aF0.75826000000000005
aF0.76114000000000004
aF0.26818999999999998
aF0.78747
aF0.79290000000000005
aF0.79439000000000004
aF0.53271999999999997
aF0.54349000000000003
asS'tt'
p25
(lp26
F0.84869000000000006
aF0.82923999999999998
aF0.91634000000000004
aF0.85816000000000003
aF0.73087999999999997
aF0.67303999999999997
aF0.88817999999999997
aF0.74558999999999997
aF0.93340999999999996
aF0.81938
aF0.91786999999999996
aF0.42294999999999999
aF0.91261000000000003
aF0.91125
aF0.48886000000000002
aF0.81572999999999996
aF0.72050999999999998
aF0.90286
aF0.84711000000000003
aF0.91203999999999996
aF0.65064
aF0.87099000000000004
as.