(dp0
S'multi3'
p1
(dp2
sS'multi2'
p3
(dp4
F0.089999999999999997
F0.5
sF0.029999999999999999
F0.5
ssS'multi'
p5
(dp6
F0.089999999999999997
F0.5
sF0.029999999999999999
F0.5
ssS'multi5'
p7
(dp8
sS'multi4'
p9
(dp10
sS'bn'
p11
(dp12
F0.65000000000000002
F0.5
sF0.59999999999999998
F0.5
ssS'no'
p13
(dp14
F0.75
F0.051724137931034482
sF0.5
F0.017241379310344827
sF0.68999999999999995
F0.017241379310344827
sF0.63
F0.017241379310344827
sF0.26000000000000001
F0.017241379310344827
sF0.51000000000000001
F0.017241379310344827
sF0.059999999999999998
F0.017241379310344827
sF0.69999999999999996
F0.017241379310344827
sF0.41999999999999998
F0.017241379310344827
sF0.77000000000000002
F0.034482758620689655
sF0.70999999999999996
F0.086206896551724144
sF0.58999999999999997
F0.017241379310344827
sF0.44
F0.017241379310344827
sF0.71999999999999997
F0.034482758620689655
sF0.66000000000000003
F0.017241379310344827
sF0.79000000000000004
F0.1206896551724138
sF0.72999999999999998
F0.051724137931034482
sF0.67000000000000004
F0.017241379310344827
sF0.78000000000000003
F0.051724137931034482
sF0.60999999999999999
F0.034482758620689655
sF0.80000000000000004
F0.017241379310344827
sF0.55000000000000004
F0.017241379310344827
sF0.73999999999999999
F0.034482758620689655
sF0.76000000000000001
F0.051724137931034482
sF0.39000000000000001
F0.017241379310344827
sF0.68000000000000005
F0.034482758620689655
sF0.52000000000000002
F0.017241379310344827
sF0.62
F0.017241379310344827
sF0.38
F0.017241379310344827
sF0.81000000000000005
F0.10344827586206896
ssS'ap'
p15
(dp16
F0.85999999999999999
F0.15384615384615385
sF0.17999999999999999
F0.076923076923076927
sF0.40000000000000002
F0.15384615384615385
sF0.66000000000000003
F0.15384615384615385
sF0.73999999999999999
F0.076923076923076927
sF0.68000000000000005
F0.076923076923076927
sF0.76000000000000001
F0.076923076923076927
sF0.48999999999999999
F0.076923076923076927
sF0.83999999999999997
F0.076923076923076927
sF0.46000000000000002
F0.076923076923076927
ssS'single'
p17
(dp18
F0.75
F0.021126760563380281
sF0.5
F0.0070422535211267607
sF0.93999999999999995
F0.021126760563380281
sF0.88
F0.021126760563380281
sF0.72999999999999998
F0.021126760563380281
sF0.71999999999999997
F0.014084507042253521
sF0.56999999999999995
F0.0070422535211267607
sF0.52000000000000002
F0.0070422535211267607
sF0.76000000000000001
F0.028169014084507043
sF0.70999999999999996
F0.035211267605633804
sF0.69999999999999996
F0.0070422535211267607
sF0.60999999999999999
F0.014084507042253521
sF0.41999999999999998
F0.014084507042253521
sF0.64000000000000001
F0.0070422535211267607
sF0.68999999999999995
F0.014084507042253521
sF0.93000000000000005
F0.09154929577464789
sF0.82999999999999996
F0.014084507042253521
sF0.77000000000000002
F0.021126760563380281
sF0.92000000000000004
F0.049295774647887321
sF0.66000000000000003
F0.021126760563380281
sF0.059999999999999998
F0.014084507042253521
sF0.26000000000000001
F0.0070422535211267607
sF0.45000000000000001
F0.0070422535211267607
sF0.89000000000000001
F0.021126760563380281
sF0.58999999999999997
F0.021126760563380281
sF0.78000000000000003
F0.035211267605633804
sF0.62
F0.0070422535211267607
sF0.90000000000000002
F0.028169014084507043
sF0.17999999999999999
F0.0070422535211267607
sF0.33000000000000002
F0.0070422535211267607
sF0.84999999999999998
F0.0070422535211267607
sF0.59999999999999998
F0.0070422535211267607
sF0.44
F0.0070422535211267607
sF0.83999999999999997
F0.014084507042253521
sF0.91000000000000003
F0.056338028169014086
sF0.48999999999999999
F0.0070422535211267607
sF0.67000000000000004
F0.0070422535211267607
sF0.81999999999999995
F0.0070422535211267607
sF0.46000000000000002
F0.0070422535211267607
sF0.81000000000000005
F0.056338028169014086
sF0.85999999999999999
F0.021126760563380281
sF0.55000000000000004
F0.0070422535211267607
sF0.40000000000000002
F0.028169014084507043
sF0.79000000000000004
F0.056338028169014086
sF0.80000000000000004
F0.0070422535211267607
sF0.65000000000000002
F0.014084507042253521
sF0.73999999999999999
F0.021126760563380281
sF0.63
F0.0070422535211267607
sF0.38
F0.0070422535211267607
sF0.39000000000000001
F0.0070422535211267607
sF0.68000000000000005
F0.021126760563380281
sF0.13
F0.0070422535211267607
sF0.87
F0.014084507042253521
sF0.51000000000000001
F0.0070422535211267607
sF0.14000000000000001
F0.0070422535211267607
ssS'yes'
p19
(dp20
F0.85999999999999999
F0.022727272727272728
sF0.82999999999999996
F0.045454545454545456
sF0.93999999999999995
F0.068181818181818177
sF0.91000000000000003
F0.15909090909090909
sF0.88
F0.022727272727272728
sF0.84999999999999998
F0.022727272727272728
sF0.93000000000000005
F0.27272727272727271
sF0.79000000000000004
F0.022727272727272728
sF0.90000000000000002
F0.045454545454545456
sF0.81000000000000005
F0.045454545454545456
sF0.92000000000000004
F0.15909090909090909
sF0.78000000000000003
F0.022727272727272728
sF0.89000000000000001
F0.068181818181818177
sF0.68999999999999995
F0.022727272727272728
ssS'total'
p21
(dp22
F0.75
F0.020833333333333332
sF0.5
F0.0069444444444444441
sF0.93999999999999995
F0.020833333333333332
sF0.88
F0.020833333333333332
sF0.72999999999999998
F0.020833333333333332
sF0.71999999999999997
F0.013888888888888888
sF0.56999999999999995
F0.0069444444444444441
sF0.089999999999999997
F0.0069444444444444441
sF0.52000000000000002
F0.0069444444444444441
sF0.76000000000000001
F0.027777777777777776
sF0.70999999999999996
F0.034722222222222224
sF0.69999999999999996
F0.0069444444444444441
sF0.60999999999999999
F0.013888888888888888
sF0.41999999999999998
F0.013888888888888888
sF0.64000000000000001
F0.0069444444444444441
sF0.68999999999999995
F0.013888888888888888
sF0.93000000000000005
F0.090277777777777776
sF0.82999999999999996
F0.013888888888888888
sF0.029999999999999999
F0.0069444444444444441
sF0.77000000000000002
F0.020833333333333332
sF0.92000000000000004
F0.048611111111111112
sF0.66000000000000003
F0.020833333333333332
sF0.059999999999999998
F0.013888888888888888
sF0.26000000000000001
F0.0069444444444444441
sF0.45000000000000001
F0.0069444444444444441
sF0.89000000000000001
F0.020833333333333332
sF0.58999999999999997
F0.020833333333333332
sF0.78000000000000003
F0.034722222222222224
sF0.62
F0.0069444444444444441
sF0.90000000000000002
F0.027777777777777776
sF0.17999999999999999
F0.0069444444444444441
sF0.33000000000000002
F0.0069444444444444441
sF0.84999999999999998
F0.0069444444444444441
sF0.59999999999999998
F0.0069444444444444441
sF0.44
F0.0069444444444444441
sF0.83999999999999997
F0.013888888888888888
sF0.91000000000000003
F0.055555555555555552
sF0.48999999999999999
F0.0069444444444444441
sF0.67000000000000004
F0.0069444444444444441
sF0.81999999999999995
F0.0069444444444444441
sF0.46000000000000002
F0.0069444444444444441
sF0.81000000000000005
F0.055555555555555552
sF0.85999999999999999
F0.020833333333333332
sF0.55000000000000004
F0.0069444444444444441
sF0.40000000000000002
F0.027777777777777776
sF0.79000000000000004
F0.055555555555555552
sF0.80000000000000004
F0.0069444444444444441
sF0.65000000000000002
F0.013888888888888888
sF0.73999999999999999
F0.020833333333333332
sF0.63
F0.0069444444444444441
sF0.38
F0.0069444444444444441
sF0.39000000000000001
F0.0069444444444444441
sF0.68000000000000005
F0.020833333333333332
sF0.13
F0.0069444444444444441
sF0.87
F0.013888888888888888
sF0.51000000000000001
F0.0069444444444444441
sF0.14000000000000001
F0.0069444444444444441
ssS'tt'
p23
(dp24
F0.91000000000000003
F0.066666666666666666
sF0.13
F0.066666666666666666
sF0.90000000000000002
F0.13333333333333333
sF0.88
F0.13333333333333333
sF0.059999999999999998
F0.066666666666666666
sF0.81999999999999995
F0.066666666666666666
sF0.93000000000000005
F0.066666666666666666
sF0.41999999999999998
F0.066666666666666666
sF0.65000000000000002
F0.066666666666666666
sF0.87
F0.13333333333333333
sF0.58999999999999997
F0.066666666666666666
sF0.14000000000000001
F0.066666666666666666
ssS'dp'
p25
(dp26
F0.40000000000000002
F0.20000000000000001
sF0.33000000000000002
F0.10000000000000001
sF0.77000000000000002
F0.10000000000000001
sF0.56999999999999995
F0.10000000000000001
sF0.58999999999999997
F0.10000000000000001
sF0.45000000000000001
F0.10000000000000001
sF0.83999999999999997
F0.10000000000000001
sF0.78000000000000003
F0.10000000000000001
sF0.64000000000000001
F0.10000000000000001
ss.