(dp0
S'multi3'
p1
(dp2
sS'multi2'
p3
(dp4
F0.46000000000000002
F0.076923076923076927
sF0.029999999999999999
F0.076923076923076927
sF0.17000000000000001
F0.15384615384615385
sF0.16
F0.076923076923076927
sF0.20999999999999999
F0.076923076923076927
sF0.070000000000000007
F0.15384615384615385
sF0.23000000000000001
F0.23076923076923078
sF0.01
F0.076923076923076927
sF0.31
F0.076923076923076927
ssS'multi'
p5
(dp6
F0.46000000000000002
F0.076923076923076927
sF0.029999999999999999
F0.076923076923076927
sF0.17000000000000001
F0.15384615384615385
sF0.16
F0.076923076923076927
sF0.20999999999999999
F0.076923076923076927
sF0.070000000000000007
F0.15384615384615385
sF0.23000000000000001
F0.23076923076923078
sF0.01
F0.076923076923076927
sF0.31
F0.076923076923076927
ssS'multi5'
p7
(dp8
sS'multi4'
p9
(dp10
sS'bn'
p11
(dp12
F0.5
F0.066666666666666666
sF0.42999999999999999
F0.066666666666666666
sF0.46999999999999997
F0.066666666666666666
sF0.33000000000000002
F0.066666666666666666
sF0.52000000000000002
F0.066666666666666666
sF0.60999999999999999
F0.066666666666666666
sF0.59999999999999998
F0.066666666666666666
sF0.40999999999999998
F0.066666666666666666
sF0.34000000000000002
F0.066666666666666666
sF0.62
F0.066666666666666666
sF0.48999999999999999
F0.066666666666666666
sF0.41999999999999998
F0.066666666666666666
sF0.39000000000000001
F0.066666666666666666
sF0.46000000000000002
F0.066666666666666666
sF0.53000000000000003
F0.066666666666666666
ssS'no'
p13
(dp14
F0.75
F0.00974025974025974
sF0.5
F0.0064935064935064939
sF0.46999999999999997
F0.0064935064935064939
sF0.63
F0.00974025974025974
sF0.42999999999999999
F0.003246753246753247
sF0.81999999999999995
F0.0064935064935064939
sF0.51000000000000001
F0.012987012987012988
sF0.69999999999999996
F0.016233766233766232
sF0.64000000000000001
F0.022727272727272728
sF0.68999999999999995
F0.01948051948051948
sF0.57999999999999996
F0.00974025974025974
sF0.77000000000000002
F0.064935064935064929
sF0.46000000000000002
F0.003246753246753247
sF0.70999999999999996
F0.025974025974025976
sF0.65000000000000002
F0.022727272727272728
sF0.58999999999999997
F0.00974025974025974
sF0.44
F0.0064935064935064939
sF0.78000000000000003
F0.07792207792207792
sF0.71999999999999997
F0.022727272727272728
sF0.66000000000000003
F0.042207792207792208
sF0.59999999999999998
F0.012987012987012988
sF0.55000000000000004
F0.00974025974025974
sF0.79000000000000004
F0.11038961038961038
sF0.72999999999999998
F0.035714285714285712
sF0.56999999999999995
F0.016233766233766232
sF0.67000000000000004
F0.045454545454545456
sF0.56000000000000005
F0.016233766233766232
sF0.60999999999999999
F0.00974025974025974
sF0.80000000000000004
F0.081168831168831168
sF0.40000000000000002
F0.003246753246753247
sF0.54000000000000004
F0.0064935064935064939
sF0.45000000000000001
F0.003246753246753247
sF0.73999999999999999
F0.081168831168831168
sF0.53000000000000003
F0.016233766233766232
sF0.68000000000000005
F0.035714285714285712
sF0.52000000000000002
F0.0064935064935064939
sF0.62
F0.00974025974025974
sF0.76000000000000001
F0.064935064935064929
sF0.81000000000000005
F0.035714285714285712
ssS'ap'
p15
(dp16
F0.75
F0.013605442176870748
sF0.25
F0.0068027210884353739
sF0.73999999999999999
F0.027210884353741496
sF0.46999999999999997
F0.020408163265306121
sF0.5
F0.013605442176870748
sF0.63
F0.013605442176870748
sF0.81999999999999995
F0.061224489795918366
sF0.76000000000000001
F0.034013605442176874
sF0.47999999999999998
F0.0068027210884353739
sF0.34999999999999998
F0.0068027210884353739
sF0.69999999999999996
F0.013605442176870748
sF0.83999999999999997
F0.047619047619047616
sF0.28000000000000003
F0.0068027210884353739
sF0.53000000000000003
F0.013605442176870748
sF0.64000000000000001
F0.020408163265306121
sF0.68999999999999995
F0.027210884353741496
sF0.34000000000000002
F0.0068027210884353739
sF0.82999999999999996
F0.088435374149659865
sF0.77000000000000002
F0.034013605442176874
sF0.67000000000000004
F0.020408163265306121
sF0.33000000000000002
F0.0068027210884353739
sF0.70999999999999996
F0.034013605442176874
sF0.14000000000000001
F0.0068027210884353739
sF0.56000000000000005
F0.0068027210884353739
sF0.41999999999999998
F0.0068027210884353739
sF0.39000000000000001
F0.0068027210884353739
sF0.31
F0.0068027210884353739
sF0.58999999999999997
F0.0068027210884353739
sF0.71999999999999997
F0.020408163265306121
sF0.66000000000000003
F0.020408163265306121
sF0.80000000000000004
F0.020408163265306121
sF0.79000000000000004
F0.020408163265306121
sF0.57999999999999996
F0.020408163265306121
sF0.72999999999999998
F0.040816326530612242
sF0.40999999999999998
F0.013605442176870748
sF0.46000000000000002
F0.013605442176870748
sF0.81000000000000005
F0.095238095238095233
sF0.42999999999999999
F0.0068027210884353739
sF0.16
F0.0068027210884353739
sF0.40000000000000002
F0.0068027210884353739
sF0.55000000000000004
F0.0068027210884353739
sF0.54000000000000004
F0.0068027210884353739
sF0.32000000000000001
F0.0068027210884353739
sF0.37
F0.034013605442176874
sF0.38
F0.0068027210884353739
sF0.78000000000000003
F0.040816326530612242
sF0.17000000000000001
F0.0068027210884353739
sF0.52000000000000002
F0.0068027210884353739
sF0.20999999999999999
F0.0068027210884353739
sF0.62
F0.013605442176870748
sF0.51000000000000001
F0.0068027210884353739
sF0.070000000000000007
F0.0068027210884353739
ssS'single'
p17
(dp18
F0.5
F0.0049301561216105174
sF0.75
F0.0098603122432210349
sF0.73999999999999999
F0.027115858668857847
sF0.14999999999999999
F0.0016433853738701725
sF0.46999999999999997
F0.0073952341824157766
sF0.25
F0.00082169268693508624
sF0.93999999999999995
F0.0049301561216105174
sF0.64000000000000001
F0.0098603122432210349
sF0.44
F0.0041084634346754316
sF0.60999999999999999
F0.0098603122432210349
sF0.57999999999999996
F0.0082169268693508633
sF0.40999999999999998
F0.0057518488085456041
sF0.71999999999999997
F0.0098603122432210349
sF0.29999999999999999
F0.00082169268693508624
sF0.51000000000000001
F0.0065735414954806899
sF0.059999999999999998
F0.0016433853738701725
sF0.48999999999999999
F0.0065735414954806899
sF0.69999999999999996
F0.0082169268693508633
sF0.34999999999999998
F0.0016433853738701725
sF0.58999999999999997
F0.0065735414954806899
sF0.28000000000000003
F0.003286770747740345
sF0.78000000000000003
F0.031224322103533278
sF0.040000000000000001
F0.00082169268693508624
sF0.68999999999999995
F0.0098603122432210349
sF0.87
F0.01972062448644207
sF0.17000000000000001
F0.00082169268693508624
sF0.77000000000000002
F0.024650780608052588
sF0.82999999999999996
F0.020542317173377157
sF0.070000000000000007
F0.00082169268693508624
sF0.12
F0.00082169268693508624
sF0.52000000000000002
F0.0049301561216105174
sF0.23000000000000001
F0.00082169268693508624
sF0.66000000000000003
F0.017255546425636811
sF0.56999999999999995
F0.0090386195562859491
sF0.47999999999999998
F0.0049301561216105174
sF0.23999999999999999
F0.0016433853738701725
sF0.45000000000000001
F0.0065735414954806899
sF0.32000000000000001
F0.003286770747740345
sF0.68000000000000005
F0.010682004930156122
sF0.41999999999999998
F0.003286770747740345
sF0.39000000000000001
F0.003286770747740345
sF0.31
F0.003286770747740345
sF0.83999999999999997
F0.024650780608052588
sF0.93000000000000005
F0.082169268693508629
sF0.35999999999999999
F0.003286770747740345
sF0.72999999999999998
F0.018898931799506986
sF0.16
F0.0016433853738701725
sF0.33000000000000002
F0.0024650780608052587
sF0.84999999999999998
F0.015612161051766639
sF0.59999999999999998
F0.0065735414954806899
sF0.55000000000000004
F0.0057518488085456041
sF0.54000000000000004
F0.0082169268693508633
sF0.91000000000000003
F0.050944946589975351
sF0.28999999999999998
F0.0016433853738701725
sF0.85999999999999999
F0.014790468364831553
sF0.89000000000000001
F0.036154478225143796
sF0.26000000000000001
F0.0016433853738701725
sF0.67000000000000004
F0.016433853738701727
sF0.88
F0.023829087921117501
sF0.81999999999999995
F0.02629416598192276
sF0.46000000000000002
F0.0065735414954806899
sF0.56000000000000005
F0.0073952341824157766
sF0.90000000000000002
F0.03697617091207888
sF0.42999999999999999
F0.003286770747740345
sF0.080000000000000002
F0.003286770747740345
sF0.92000000000000004
F0.073952341824157761
sF0.40000000000000002
F0.0073952341824157766
sF0.80000000000000004
F0.031224322103533278
sF0.79000000000000004
F0.036154478225143796
sF0.65000000000000002
F0.0098603122432210349
sF0.37
F0.0049301561216105174
sF0.63
F0.013968775677896467
sF0.76000000000000001
F0.027937551355792935
sF0.53000000000000003
F0.0090386195562859491
sF0.34000000000000002
F0.0041084634346754316
sF0.13
F0.00082169268693508624
sF0.70999999999999996
F0.01314708299096138
sF0.20999999999999999
F0.0016433853738701725
sF0.62
F0.0082169268693508633
sF0.11
F0.00082169268693508624
sF0.38
F0.0016433853738701725
sF0.81000000000000005
F0.036154478225143796
sF0.14000000000000001
F0.00082169268693508624
sF0.20000000000000001
F0.0016433853738701725
ssS'yes'
p19
(dp20
F0.75
F0.0092165898617511521
sF0.93999999999999995
F0.013824884792626729
sF0.88
F0.04377880184331797
sF0.60999999999999999
F0.002304147465437788
sF0.81999999999999995
F0.025345622119815669
sF0.76000000000000001
F0.0069124423963133645
sF0.69999999999999996
F0.004608294930875576
sF0.89000000000000001
F0.071428571428571425
sF0.68000000000000005
F0.002304147465437788
sF0.82999999999999996
F0.016129032258064516
sF0.77000000000000002
F0.0069124423963133645
sF0.67000000000000004
F0.002304147465437788
sF0.66000000000000003
F0.004608294930875576
sF0.90000000000000002
F0.076036866359447008
sF0.080000000000000002
F0.002304147465437788
sF0.83999999999999997
F0.032258064516129031
sF0.63
F0.004608294930875576
sF0.62
F0.002304147465437788
sF0.71999999999999997
F0.002304147465437788
sF0.91000000000000003
F0.1152073732718894
sF0.59999999999999998
F0.002304147465437788
sF0.84999999999999998
F0.027649769585253458
sF0.79000000000000004
F0.0069124423963133645
sF0.72999999999999998
F0.002304147465437788
sF0.56999999999999995
F0.002304147465437788
sF0.92000000000000004
F0.17511520737327188
sF0.85999999999999999
F0.036866359447004608
sF0.40000000000000002
F0.002304147465437788
sF0.80000000000000004
F0.004608294930875576
sF0.54000000000000004
F0.002304147465437788
sF0.73999999999999999
F0.0069124423963133645
sF0.78000000000000003
F0.004608294930875576
sF0.93000000000000005
F0.22350230414746544
sF0.52000000000000002
F0.002304147465437788
sF0.87
F0.041474654377880185
sF0.81000000000000005
F0.013824884792626729
ssS'total'
p21
(dp22
F0.5
F0.0048780487804878049
sF0.75
F0.0097560975609756097
sF0.25
F0.00081300813008130081
sF0.89000000000000001
F0.035772357723577237
sF0.51000000000000001
F0.0065040650406504065
sF0.12
F0.00081300813008130081
sF0.47999999999999998
F0.0048780487804878049
sF0.77000000000000002
F0.024390243902439025
sF0.67000000000000004
F0.016260162601626018
sF0.23999999999999999
F0.0016260162601626016
sF0.68999999999999995
F0.0097560975609756097
sF0.78000000000000003
F0.030894308943089432
sF0.41999999999999998
F0.0032520325203252032
sF0.46000000000000002
F0.0073170731707317077
sF0.59999999999999998
F0.0065040650406504065
sF0.40000000000000002
F0.0073170731707317077
sF0.55000000000000004
F0.0056910569105691061
sF0.90000000000000002
F0.036585365853658534
sF0.13
F0.00081300813008130081
sF0.70999999999999996
F0.013008130081300813
sF0.76000000000000001
F0.027642276422764227
sF0.28000000000000003
F0.0032520325203252032
sF0.85999999999999999
F0.014634146341463415
sF0.35999999999999999
F0.0032520325203252032
sF0.40999999999999998
F0.0056910569105691061
sF0.83999999999999997
F0.024390243902439025
sF0.68000000000000005
F0.01056910569105691
sF0.57999999999999996
F0.008130081300813009
sF0.81999999999999995
F0.026016260162601626
sF0.040000000000000001
F0.00081300813008130081
sF0.58999999999999997
F0.0065040650406504065
sF0.14000000000000001
F0.00081300813008130081
sF0.29999999999999999
F0.00081300813008130081
sF0.14999999999999999
F0.0016260162601626016
sF0.80000000000000004
F0.030894308943089432
sF0.070000000000000007
F0.0024390243902439024
sF0.60999999999999999
F0.0097560975609756097
sF0.38
F0.0016260162601626016
sF0.52000000000000002
F0.0048780487804878049
sF0.87
F0.019512195121951219
sF0.81000000000000005
F0.035772357723577237
sF0.44
F0.0040650406504065045
sF0.72999999999999998
F0.018699186991869919
sF0.11
F0.00081300813008130081
sF0.92000000000000004
F0.073170731707317069
sF0.53000000000000003
F0.0089430894308943094
sF0.64000000000000001
F0.0097560975609756097
sF0.93999999999999995
F0.0048780487804878049
sF0.45000000000000001
F0.0065040650406504065
sF0.26000000000000001
F0.0016260162601626016
sF0.93000000000000005
F0.081300813008130079
sF0.66000000000000003
F0.017073170731707318
sF0.91000000000000003
F0.050406504065040651
sF0.56999999999999995
F0.0089430894308943094
sF0.23000000000000001
F0.0032520325203252032
sF0.01
F0.00081300813008130081
sF0.88
F0.023577235772357725
sF0.39000000000000001
F0.0032520325203252032
sF0.17000000000000001
F0.0024390243902439024
sF0.62
F0.008130081300813009
sF0.42999999999999999
F0.0032520325203252032
sF0.20999999999999999
F0.0024390243902439024
sF0.37
F0.0048780487804878049
sF0.84999999999999998
F0.015447154471544716
sF0.46999999999999997
F0.0073170731707317077
sF0.28999999999999998
F0.0016260162601626016
sF0.34000000000000002
F0.0040650406504065045
sF0.34999999999999998
F0.0016260162601626016
sF0.69999999999999996
F0.008130081300813009
sF0.080000000000000002
F0.0032520325203252032
sF0.33000000000000002
F0.0024390243902439024
sF0.059999999999999998
F0.0016260162601626016
sF0.56000000000000005
F0.0073170731707317077
sF0.31
F0.0040650406504065045
sF0.71999999999999997
F0.0097560975609756097
sF0.79000000000000004
F0.035772357723577237
sF0.16
F0.0024390243902439024
sF0.029999999999999999
F0.00081300813008130081
sF0.82999999999999996
F0.02032520325203252
sF0.48999999999999999
F0.0065040650406504065
sF0.63
F0.013821138211382113
sF0.65000000000000002
F0.0097560975609756097
sF0.54000000000000004
F0.008130081300813009
sF0.32000000000000001
F0.0032520325203252032
sF0.73999999999999999
F0.026829268292682926
sF0.20000000000000001
F0.0016260162601626016
ssS'tt'
p23
(dp24
F0.75
F0.017964071856287425
sF0.59999999999999998
F0.0059880239520958087
sF0.88
F0.059880239520958084
sF0.48999999999999999
F0.0059880239520958087
sF0.81999999999999995
F0.053892215568862277
sF0.76000000000000001
F0.035928143712574849
sF0.70999999999999996
F0.017964071856287425
sF0.69999999999999996
F0.0059880239520958087
sF0.89000000000000001
F0.077844311377245512
sF0.93000000000000005
F0.017964071856287425
sF0.57999999999999996
F0.0059880239520958087
sF0.77000000000000002
F0.011976047904191617
sF0.67000000000000004
F0.0059880239520958087
sF0.66000000000000003
F0.0059880239520958087
sF0.47999999999999998
F0.0059880239520958087
sF0.90000000000000002
F0.071856287425149698
sF0.64000000000000001
F0.0059880239520958087
sF0.83999999999999997
F0.041916167664670656
sF0.78000000000000003
F0.029940119760479042
sF0.31
F0.0059880239520958087
sF0.34000000000000002
F0.0059880239520958087
sF0.71999999999999997
F0.0059880239520958087
sF0.91000000000000003
F0.071856287425149698
sF0.84999999999999998
F0.035928143712574849
sF0.29999999999999999
F0.0059880239520958087
sF0.54000000000000004
F0.017964071856287425
sF0.82999999999999996
F0.023952095808383235
sF0.72999999999999998
F0.023952095808383235
sF0.40999999999999998
F0.0059880239520958087
sF0.92000000000000004
F0.083832335329341312
sF0.56000000000000005
F0.0059880239520958087
sF0.85999999999999999
F0.011976047904191617
sF0.080000000000000002
F0.011976047904191617
sF0.55000000000000004
F0.0059880239520958087
sF0.80000000000000004
F0.035928143712574849
sF0.79000000000000004
F0.023952095808383235
sF0.45000000000000001
F0.0059880239520958087
sF0.73999999999999999
F0.0059880239520958087
sF0.28999999999999998
F0.0059880239520958087
sF0.53000000000000003
F0.0059880239520958087
sF0.68000000000000005
F0.0059880239520958087
sF0.26000000000000001
F0.0059880239520958087
sF0.87
F0.035928143712574849
sF0.81000000000000005
F0.053892215568862277
sF0.39000000000000001
F0.0059880239520958087
ssS'dp'
p25
(dp26
F0.5
F0.0068493150684931503
sF0.59999999999999998
F0.0068493150684931503
sF0.46999999999999997
F0.020547945205479451
sF0.64000000000000001
F0.0068493150684931503
sF0.44
F0.020547945205479451
sF0.72999999999999998
F0.0068493150684931503
sF0.57999999999999996
F0.020547945205479451
sF0.81999999999999995
F0.0068493150684931503
sF0.52000000000000002
F0.0068493150684931503
sF0.51000000000000001
F0.020547945205479451
sF0.059999999999999998
F0.013698630136986301
sF0.34999999999999998
F0.0068493150684931503
sF0.20999999999999999
F0.0068493150684931503
sF0.28000000000000003
F0.020547945205479451
sF0.78000000000000003
F0.0068493150684931503
sF0.32000000000000001
F0.020547945205479451
sF0.68999999999999995
F0.013698630136986301
sF0.41999999999999998
F0.013698630136986301
sF0.82999999999999996
F0.0068493150684931503
sF0.12
F0.0068493150684931503
sF0.13
F0.0068493150684931503
sF0.46000000000000002
F0.027397260273972601
sF0.33000000000000002
F0.0068493150684931503
sF0.40999999999999998
F0.020547945205479451
sF0.47999999999999998
F0.027397260273972601
sF0.39000000000000001
F0.0068493150684931503
sF0.23999999999999999
F0.013698630136986301
sF0.45000000000000001
F0.041095890410958902
sF0.42999999999999999
F0.0068493150684931503
sF0.080000000000000002
F0.0068493150684931503
sF0.58999999999999997
F0.027397260273972601
sF0.63
F0.068493150684931503
sF0.62
F0.020547945205479451
sF0.83999999999999997
F0.013698630136986301
sF0.35999999999999999
F0.027397260273972601
sF0.16
F0.0068493150684931503
sF0.66000000000000003
F0.013698630136986301
sF0.14999999999999999
F0.013698630136986301
sF0.84999999999999998
F0.0068493150684931503
sF0.55000000000000004
F0.013698630136986301
sF0.54000000000000004
F0.020547945205479451
sF0.28999999999999998
F0.0068493150684931503
sF0.48999999999999999
F0.041095890410958902
sF0.67000000000000004
F0.0068493150684931503
sF0.56999999999999995
F0.034246575342465752
sF0.23000000000000001
F0.0068493150684931503
sF0.56000000000000005
F0.013698630136986301
sF0.60999999999999999
F0.047945205479452052
sF0.040000000000000001
F0.0068493150684931503
sF0.80000000000000004
F0.013698630136986301
sF0.40000000000000002
F0.041095890410958902
sF0.65000000000000002
F0.034246575342465752
sF0.37
F0.0068493150684931503
sF0.53000000000000003
F0.013698630136986301
sF0.34000000000000002
F0.013698630136986301
sF0.26000000000000001
F0.0068493150684931503
sF0.31
F0.013698630136986301
sF0.11
F0.0068493150684931503
sF0.38
F0.0068493150684931503
sF0.81000000000000005
F0.027397260273972601
sF0.20000000000000001
F0.013698630136986301
ss.