(dp0
S"{'G_ap': 'DOWNTOWN', 'G_dp': 'HAZELWOOD', 'G_bn': '', 'G_tt': '900'}"
p1
F0.00054764512595837896
sS"{'G_ap': 'BRADDOCK', 'G_dp': 'SWISSVALE', 'G_bn': '', 'G_tt': '2130'}"
p2
F0.00054764512595837896
sS"{'G_ap': 'MCKEESPORT', 'G_dp': 'KENNYWOOD', 'G_bn': '', 'G_tt': 'now'}"
p3
F0.00054764512595837896
sS"{'G_ap': 'DOWNTOWN PITTSBURGH', 'G_dp': 'MCKEESPORT', 'G_bn': '', 'G_tt': '400'}"
p4
F0.00054764512595837896
sS"{'G_ap': 'WILKINSBURG', 'G_dp': 'SQUIRREL HILL', 'G_bn': '', 'G_tt': 'now'}"
p5
F0.0016429353778751369
sS"{'G_ap': 'DOWNTOWN PITTSBURGH', 'G_dp': 'HIGHLAND', 'G_bn': '', 'G_tt': 'now'}"
p6
F0.00054764512595837896
sS"{'G_ap': 'OAKLAND', 'G_dp': 'HOMESTEAD', 'G_bn': '', 'G_tt': '700'}"
p7
F0.00054764512595837896
sS"{'G_ap': 'OAKLAND', 'G_dp': 'SOUTH HILLS JUNCTION', 'G_bn': '', 'G_tt': '2000'}"
p8
F0.00054764512595837896
sS"{'G_ap': 'MCKEESPORT', 'G_dp': 'FIFTH AVENUE', 'G_bn': '61C', 'G_tt': 'now'}"
p9
F0.00054764512595837896
sS"{'G_ap': 'THE SOUTH SIDE', 'G_dp': 'OAKLAND', 'G_bn': '', 'G_tt': 'now'}"
p10
F0.00054764512595837896
sS"{'G_ap': 'EAST LIBERTY', 'G_dp': 'NORTH', 'G_bn': '', 'G_tt': '700'}"
p11
F0.00054764512595837896
sS"{'G_ap': 'SHADYSIDE', 'G_dp': 'OAKLAND', 'G_bn': '', 'G_tt': '1330'}"
p12
F0.00054764512595837896
sS"{'G_ap': 'PITTSBURGH', 'G_dp': 'DUQUESNE', 'G_bn': '', 'G_tt': '0'}"
p13
F0.00054764512595837896
sS"{'G_ap': 'DOWNTOWN PITTSBURGH', 'G_dp': 'OAKLAND', 'G_bn': '', 'G_tt': '2145'}"
p14
F0.00054764512595837896
sS"{'G_ap': 'FORBES AND MURRAY', 'G_dp': 'WILKINSBURG', 'G_bn': '', 'G_tt': 'now'}"
p15
F0.0016429353778751369
sS"{'G_ap': 'DUQUESNE', 'G_dp': 'DOWNTOWN', 'G_bn': '61C', 'G_tt': '2200'}"
p16
F0.00054764512595837896
sS"{'G_ap': 'MAIN STREET', 'G_dp': 'CENTRE AVENUE', 'G_bn': '', 'G_tt': 'now'}"
p17
F0.00054764512595837896
sS"{'G_ap': 'HOMESTEAD', 'G_dp': 'MCKEESPORT', 'G_bn': '', 'G_tt': '900'}"
p18
F0.00054764512595837896
sS"{'G_ap': 'MCKEESPORT', 'G_dp': 'OAKLAND', 'G_bn': '61C', 'G_tt': 'now'}"
p19
F0.00054764512595837896
sS"{'G_ap': 'DOWNTOWN', 'G_dp': 'WILKINSBURG BUSWAY', 'G_bn': '', 'G_tt': 'now'}"
p20
F0.00054764512595837896
sS"{'G_ap': 'BRADDOCK', 'G_dp': 'SWISSVALE STATION', 'G_bn': '', 'G_tt': 'now'}"
p21
F0.00054764512595837896
sS"{'G_ap': 'DUQUESNE', 'G_dp': 'OAKLAND', 'G_bn': '61C', 'G_tt': 'now'}"
p22
F0.00054764512595837896
sS"{'G_ap': 'PITTSBURGH', 'G_dp': 'PITTSBURGH', 'G_bn': '', 'G_tt': '2330'}"
p23
F0.00054764512595837896
sS"{'G_ap': 'OAKLAND', 'G_dp': 'SWISSVALE', 'G_bn': '61B', 'G_tt': 'now'}"
p24
F0.0016429353778751369
sS"{'G_ap': 'WEST PENN HOSPITAL', 'G_dp': 'CENTRE AT CRAIG', 'G_bn': '', 'G_tt': '830'}"
p25
F0.00054764512595837896
sS"{'G_ap': 'WILKINSBURG', 'G_dp': 'DOWNTOWN', 'G_bn': '', 'G_tt': 'now'}"
p26
F0.0010952902519167579
sS"{'G_ap': 'OAKLAND', 'G_dp': 'WILKINSBURG', 'G_bn': '61A', 'G_tt': '2300'}"
p27
F0.00054764512595837896
sS"{'G_ap': 'DOWNTOWN', 'G_dp': 'OAK HILL', 'G_bn': '', 'G_tt': 'now'}"
p28
F0.0010952902519167579
sS"{'G_ap': 'FRANKSTOWN AVENUE', 'G_dp': 'BLOOMFIELD', 'G_bn': '', 'G_tt': 'now'}"
p29
F0.00054764512595837896
sS"{'G_ap': 'DOWNTOWN PITTSBURGH', 'G_dp': 'CARNEGIE MELLON UNIVERSITY', 'G_bn': '', 'G_tt': 'now'}"
p30
F0.0010952902519167579
sS"{'G_ap': 'JUNCTION', 'G_dp': 'THE JUNCTION', 'G_bn': '', 'G_tt': '630'}"
p31
F0.00054764512595837896
sS"{'G_ap': 'GIANT EAGLE', 'G_dp': 'WEST', 'G_bn': '', 'G_tt': '800'}"
p32
F0.00054764512595837896
sS"{'G_ap': 'DOWNTOWN PITTSBURGH', 'G_dp': 'WILKINSBURG', 'G_bn': '', 'G_tt': '700'}"
p33
F0.00054764512595837896
sS"{'G_ap': 'DOWNTOWN', 'G_dp': 'WILKINSBURG STATION', 'G_bn': '', 'G_tt': 'now'}"
p34
F0.00054764512595837896
sS"{'G_ap': 'DOWNTOWN PITTSBURGH', 'G_dp': 'COAL AND REBECCA', 'G_bn': '', 'G_tt': '700'}"
p35
F0.00054764512595837896
sS"{'G_ap': 'UNIVERSITY OF PITTSBURGH', 'G_dp': 'OAKLAND', 'G_bn': '', 'G_tt': '100'}"
p36
F0.00054764512595837896
sS"{'G_ap': 'DOWNTOWN PITTSBURGH', 'G_dp': 'OAK', 'G_bn': '', 'G_tt': '2230'}"
p37
F0.00054764512595837896
sS"{'G_ap': 'WEST', 'G_dp': 'DOWNTOWN', 'G_bn': '', 'G_tt': 'now'}"
p38
F0.00054764512595837896
sS"{'G_ap': 'PITTSBURGH', 'G_dp': 'SPRING HILL', 'G_bn': '', 'G_tt': '630'}"
p39
F0.00054764512595837896
sS"{'G_ap': 'OAKLAND', 'G_dp': 'THE NORTH SIDE', 'G_bn': '54C', 'G_tt': 'now'}"
p40
F0.00054764512595837896
sS"{'G_ap': 'WOOD', 'G_dp': 'MCKEESPORT', 'G_bn': '61C', 'G_tt': 'now'}"
p41
F0.00054764512595837896
sS"{'G_ap': 'HOMESTEAD', 'G_dp': 'SQUIRREL HILL', 'G_bn': '', 'G_tt': 'now'}"
p42
F0.0010952902519167579
sS"{'G_ap': 'CRAIG', 'G_dp': 'DOWNTOWN', 'G_bn': '', 'G_tt': 'now'}"
p43
F0.00054764512595837896
sS"{'G_ap': 'MCKEESPORT', 'G_dp': 'DOWNTOWN PITTSBURGH', 'G_bn': '', 'G_tt': '2230'}"
p44
F0.00054764512595837896
sS"{'G_ap': 'TURTLE CREEK', 'G_dp': 'WILKINSBURG', 'G_bn': 'EBA', 'G_tt': '1900'}"
p45
F0.00054764512595837896
sS"{'G_ap': 'MONROEVILLE', 'G_dp': 'GRACE STREET', 'G_bn': '', 'G_tt': 'now'}"
p46
F0.00054764512595837896
sS"{'G_ap': 'POLISH HILL', 'G_dp': 'SOUTH SIDE', 'G_bn': '', 'G_tt': '2230'}"
p47
F0.00054764512595837896
sS"{'G_ap': 'CARNEGIE MELLON UNIVERSITY', 'G_dp': 'THE INTERNATIONAL AIRPORT', 'G_bn': '', 'G_tt': '300'}"
p48
F0.00054764512595837896
sS"{'G_ap': 'EAST PITTSBURGH', 'G_dp': 'WILKINSBURG', 'G_bn': '', 'G_tt': 'now'}"
p49
F0.00054764512595837896
sS"{'G_ap': 'NORTH SIDE', 'G_dp': 'EAST LIBERTY', 'G_bn': '', 'G_tt': '1300'}"
p50
F0.00054764512595837896
sS"{'G_ap': 'OAKLAND', 'G_dp': 'SQUIRREL HILL', 'G_bn': '', 'G_tt': 'now'}"
p51
F0.00054764512595837896
sS"{'G_ap': 'SQUIRREL HILL', 'G_dp': 'MCKEESPORT', 'G_bn': '', 'G_tt': '1930'}"
p52
F0.00054764512595837896
sS"{'G_ap': 'FORBES AND MURRAY', 'G_dp': 'SWISSVALE AVENUE', 'G_bn': '', 'G_tt': 'now'}"
p53
F0.00054764512595837896
sS"{'G_ap': 'WIGHTMAN', 'G_dp': 'SOUTH HILLS JUNCTION', 'G_bn': '', 'G_tt': 'now'}"
p54
F0.00054764512595837896
sS"{'G_ap': 'EIGHTH AVENUE', 'G_dp': 'DUQUESNE', 'G_bn': '68', 'G_tt': '820'}"
p55
F0.00054764512595837896
sS"{'G_ap': 'NORTH BRADDOCK', 'G_dp': 'DYNAMO WAY', 'G_bn': '', 'G_tt': '250'}"
p56
F0.00054764512595837896
sS"{'G_ap': 'SQUIRREL HILL', 'G_dp': 'MCKEESPORT', 'G_bn': '', 'G_tt': '530'}"
p57
F0.00054764512595837896
sS"{'G_ap': 'DOWNTOWN', 'G_dp': 'GREENFIELD', 'G_bn': '', 'G_tt': '630'}"
p58
F0.00054764512595837896
sS"{'G_ap': 'MCKEESPORT TRANSPORTATION CENTER', 'G_dp': 'PENNSYLVANIA AVENUE', 'G_bn': '', 'G_tt': '600'}"
p59
F0.00054764512595837896
sS"{'G_ap': 'OAKLAND', 'G_dp': 'HIGHLAND AVENUE', 'G_bn': '', 'G_tt': 'now'}"
p60
F0.00054764512595837896
sS"{'G_ap': 'MCKEESPORT', 'G_dp': 'HOMESTEAD', 'G_bn': '', 'G_tt': 'now'}"
p61
F0.0065717415115005475
sS"{'G_ap': 'SHERADEN', 'G_dp': 'DOWNTOWN PITTSBURGH', 'G_bn': '', 'G_tt': '1830'}"
p62
F0.00054764512595837896
sS"{'G_ap': 'DOWNTOWN', 'G_dp': 'EAST LIBERTY', 'G_bn': '', 'G_tt': '2300'}"
p63
F0.00054764512595837896
sS"{'G_ap': 'EAST HILLS', 'G_dp': 'WILKINSBURG BUSWAY', 'G_bn': '3', 'G_tt': 'now'}"
p64
F0.00054764512595837896
sS"{'G_ap': 'DOWNTOWN', 'G_dp': 'BRADDOCK', 'G_bn': '', 'G_tt': '2200'}"
p65
F0.00054764512595837896
sS"{'G_ap': 'SOUTH SIDE', 'G_dp': 'CHESTERFIELD AND FIFTH AVENUE', 'G_bn': '', 'G_tt': 'now'}"
p66
F0.00054764512595837896
sS"{'G_ap': 'POLISH HILL', 'G_dp': 'THE NORTH SIDE', 'G_bn': '', 'G_tt': 'now'}"
p67
F0.00054764512595837896
sS"{'G_ap': 'MCKEESPORT', 'G_dp': 'CARSON STREET', 'G_bn': '', 'G_tt': 'now'}"
p68
F0.00054764512595837896
sS"{'G_ap': 'HOMESTEAD', 'G_dp': 'DOWNTOWN', 'G_bn': '', 'G_tt': '2100'}"
p69
F0.00054764512595837896
sS"{'G_ap': 'MCKEESPORT', 'G_dp': 'HAZELWOOD', 'G_bn': '', 'G_tt': 'now'}"
p70
F0.00054764512595837896
sS"{'G_ap': 'FOURTH', 'G_dp': 'DOWNTOWN', 'G_bn': '', 'G_tt': 'now'}"
p71
F0.00054764512595837896
sS"{'G_ap': 'EAST LIBERTY', 'G_dp': 'HAZELWOOD', 'G_bn': '', 'G_tt': '600'}"
p72
F0.00054764512595837896
sS"{'G_ap': 'SWISSVALE', 'G_dp': 'PRIDE AND FIFTH', 'G_bn': '', 'G_tt': '1700'}"
p73
F0.00054764512595837896
sS"{'G_ap': 'DOWNTOWN', 'G_dp': 'TWENTY FOURTH STREET', 'G_bn': '', 'G_tt': 'now'}"
p74
F0.00054764512595837896
sS"{'G_ap': 'SOUTH SIDE', 'G_dp': 'MCKINLEY STREET', 'G_bn': '', 'G_tt': 'now'}"
p75
F0.00054764512595837896
sS"{'G_ap': 'SIXTH', 'G_dp': 'CARNEGIE', 'G_bn': '', 'G_tt': 'now'}"
p76
F0.00054764512595837896
sS"{'G_ap': 'SOUTH', 'G_dp': 'OAKLAND', 'G_bn': '', 'G_tt': 'now'}"
p77
F0.00054764512595837896
sS"{'G_ap': 'ATWOOD', 'G_dp': 'SOUTH', 'G_bn': '', 'G_tt': 'now'}"
p78
F0.00054764512595837896
sS"{'G_ap': 'DOWNTOWN', 'G_dp': 'HOMESTEAD', 'G_bn': '61C', 'G_tt': 'now'}"
p79
F0.00054764512595837896
sS"{'G_ap': 'DOWNTOWN', 'G_dp': 'MCKEESPORT', 'G_bn': '61C', 'G_tt': '2300'}"
p80
F0.00054764512595837896
sS"{'G_ap': 'FOREST HILLS', 'G_dp': 'BRADDOCK', 'G_bn': '', 'G_tt': '400'}"
p81
F0.00054764512595837896
sS"{'G_ap': 'OAKLAND', 'G_dp': 'BROWNSVILLE', 'G_bn': '', 'G_tt': 'now'}"
p82
F0.00054764512595837896
sS"{'G_ap': 'DOWNTOWN', 'G_dp': 'MILLVALE', 'G_bn': '', 'G_tt': '530'}"
p83
F0.00054764512595837896
sS"{'G_ap': 'OAKLAND', 'G_dp': 'BLOOMFIELD', 'G_bn': '54C', 'G_tt': '2030'}"
p84
F0.00054764512595837896
sS"{'G_ap': 'HOMESTEAD', 'G_dp': 'SHADY', 'G_bn': '64', 'G_tt': '1900'}"
p85
F0.00054764512595837896
sS"{'G_ap': 'OAKLAND', 'G_dp': 'HOMESTEAD', 'G_bn': '', 'G_tt': 'now'}"
p86
F0.0010952902519167579
sS"{'G_ap': 'SHADYSIDE', 'G_dp': 'LAWRENCEVILLE', 'G_bn': '', 'G_tt': 'now'}"
p87
F0.00054764512595837896
sS"{'G_ap': 'FORBES AND MURRAY', 'G_dp': 'BRADDOCK', 'G_bn': '', 'G_tt': 'now'}"
p88
F0.00054764512595837896
sS"{'G_ap': 'OAKLAND', 'G_dp': 'NORTH SIDE', 'G_bn': '', 'G_tt': 'now'}"
p89
F0.0010952902519167579
sS"{'G_ap': 'HOMESTEAD', 'G_dp': 'OAKLAND', 'G_bn': '61C', 'G_tt': '1730'}"
p90
F0.00054764512595837896
sS"{'G_ap': 'HOMESTEAD', 'G_dp': 'MCKEESPORT', 'G_bn': '', 'G_tt': '730'}"
p91
F0.00054764512595837896
sS"{'G_ap': 'SHADYSIDE', 'G_dp': 'DOWNTOWN', 'G_bn': 'EBS', 'G_tt': '2000'}"
p92
F0.00054764512595837896
sS"{'G_ap': 'EAST END', 'G_dp': 'WOOD', 'G_bn': '', 'G_tt': 'now'}"
p93
F0.00054764512595837896
sS"{'G_ap': 'WATERFRONT', 'G_dp': 'HAZELWOOD', 'G_bn': '', 'G_tt': 'now'}"
p94
F0.0010952902519167579
sS"{'G_ap': 'MCKEESPORT', 'G_dp': 'OAKLAND', 'G_bn': 'G', 'G_tt': 'now'}"
p95
F0.00054764512595837896
sS"{'G_ap': 'MCKEESPORT', 'G_dp': 'DOWNTOWN', 'G_bn': '61C', 'G_tt': 'now'}"
p96
F0.00054764512595837896
sS"{'G_ap': 'THE AIRPORT', 'G_dp': 'DOWNTOWN', 'G_bn': '', 'G_tt': 'now'}"
p97
F0.00054764512595837896
sS"{'G_ap': 'MONROEVILLE MALL', 'G_dp': 'EAST END', 'G_bn': '', 'G_tt': '600'}"
p98
F0.00054764512595837896
sS"{'G_ap': 'SQUIRREL HILL', 'G_dp': 'SWISSVALE', 'G_bn': '', 'G_tt': '1900'}"
p99
F0.00054764512595837896
sS"{'G_ap': 'DOWNTOWN', 'G_dp': 'BUS STATION', 'G_bn': '', 'G_tt': 'now'}"
p100
F0.00054764512595837896
sS"{'G_ap': 'DOWNTOWN', 'G_dp': 'FORBES AND MURRAY', 'G_bn': '', 'G_tt': 'now'}"
p101
F0.00054764512595837896
sS"{'G_ap': 'EAST HILLS', 'G_dp': 'WILKINSBURG', 'G_bn': '', 'G_tt': '1830'}"
p102
F0.00054764512595837896
sS"{'G_ap': 'DOWNTOWN', 'G_dp': 'TRANSPORTATION CENTER', 'G_bn': '64', 'G_tt': 'now'}"
p103
F0.00054764512595837896
sS"{'G_ap': 'DUQUESNE', 'G_dp': 'HILL', 'G_bn': '', 'G_tt': 'now'}"
p104
F0.00054764512595837896
sS"{'G_ap': 'SOUTH', 'G_dp': 'WEBSTER', 'G_bn': '', 'G_tt': '2030'}"
p105
F0.00054764512595837896
sS"{'G_ap': 'LIBERTY AND PEARL', 'G_dp': 'CRAIG AND FORBES', 'G_bn': '', 'G_tt': 'now'}"
p106
F0.00054764512595837896
sS"{'G_ap': 'OAKLAND', 'G_dp': 'MURRAY AT PHILLIPS', 'G_bn': '', 'G_tt': 'now'}"
p107
F0.00054764512595837896
sS"{'G_ap': 'AIRPORT', 'G_dp': 'MOREWOOD AVENUE', 'G_bn': '', 'G_tt': 'now'}"
p108
F0.00054764512595837896
sS"{'G_ap': 'DOWNTOWN', 'G_dp': 'HAY STREET', 'G_bn': '81B', 'G_tt': '700'}"
p109
F0.00054764512595837896
sS"{'G_ap': 'FORBES AND MURRAY', 'G_dp': 'DOWNTOWN PITTSBURGH', 'G_bn': '', 'G_tt': 'now'}"
p110
F0.00054764512595837896
sS"{'G_ap': 'WILKINSBURG STATION', 'G_dp': 'DOWNTOWN PITTSBURGH', 'G_bn': '', 'G_tt': 'now'}"
p111
F0.00054764512595837896
sS"{'G_ap': 'MCKEESPORT', 'G_dp': 'ALLEGHENY', 'G_bn': '', 'G_tt': '2200'}"
p112
F0.00054764512595837896
sS"{'G_ap': 'HOMESTEAD', 'G_dp': 'FORBES', 'G_bn': '61C', 'G_tt': '1900'}"
p113
F0.00054764512595837896
sS"{'G_ap': 'KENNYWOOD', 'G_dp': 'WATERFRONT', 'G_bn': '', 'G_tt': '2000'}"
p114
F0.00054764512595837896
sS"{'G_ap': 'OAKLAND', 'G_dp': 'MCKEESPORT', 'G_bn': '', 'G_tt': 'now'}"
p115
F0.0010952902519167579
sS"{'G_ap': 'MCKEESPORT TRANSPORTATION CENTER', 'G_dp': 'DUQUESNE', 'G_bn': '', 'G_tt': '900'}"
p116
F0.00054764512595837896
sS"{'G_ap': 'MCKEESPORT', 'G_dp': 'PITTSBURGH', 'G_bn': '', 'G_tt': '2000'}"
p117
F0.00054764512595837896
sS"{'G_ap': 'MCKEESPORT', 'G_dp': 'FORBES AND PRIDE', 'G_bn': '61C', 'G_tt': 'now'}"
p118
F0.00054764512595837896
sS"{'G_ap': 'SWISSVALE', 'G_dp': 'VERSAILLES', 'G_bn': '', 'G_tt': 'now'}"
p119
F0.00054764512595837896
sS"{'G_ap': 'MONROEVILLE', 'G_dp': 'FORBES', 'G_bn': '', 'G_tt': '2000'}"
p120
F0.00054764512595837896
sS"{'G_ap': 'HOMESTEAD', 'G_dp': 'MERCY HOSPITAL', 'G_bn': '', 'G_tt': '500'}"
p121
F0.00054764512595837896
sS"{'G_ap': 'OAKLAND', 'G_dp': 'FRIENDSHIP', 'G_bn': '', 'G_tt': 'now'}"
p122
F0.00054764512595837896
sS"{'G_ap': 'MONROEVILLE', 'G_dp': 'OAKLAND', 'G_bn': '', 'G_tt': 'now'}"
p123
F0.00054764512595837896
sS"{'G_ap': 'PRESBYTERIAN HOSPITAL', 'G_dp': 'DOWNTOWN PITTSBURGH', 'G_bn': '', 'G_tt': '1200'}"
p124
F0.00054764512595837896
sS"{'G_ap': 'OAKLAND', 'G_dp': 'NEGLEY', 'G_bn': '', 'G_tt': 'now'}"
p125
F0.0010952902519167579
sS"{'G_ap': 'SWISSVALE', 'G_dp': 'EAST PITTSBURGH', 'G_bn': '', 'G_tt': 'now'}"
p126
F0.00054764512595837896
sS"{'G_ap': 'HILL', 'G_dp': 'MCKEESPORT TRANSPORTATION CENTER', 'G_bn': '', 'G_tt': 'now'}"
p127
F0.00054764512595837896
sS"{'G_ap': 'LAWRENCEVILLE', 'G_dp': 'MURRAY AVENUE AND FORBES', 'G_bn': '', 'G_tt': '2330'}"
p128
F0.00054764512595837896
sS"{'G_ap': 'BUSWAY', 'G_dp': 'WOODSTOCK', 'G_bn': '', 'G_tt': '600'}"
p129
F0.00054764512595837896
sS"{'G_ap': 'NEVILLE', 'G_dp': 'BRADDOCK', 'G_bn': '', 'G_tt': 'now'}"
p130
F0.00054764512595837896
sS"{'G_ap': 'SOUTH', 'G_dp': 'FRIENDSHIP', 'G_bn': '', 'G_tt': '800'}"
p131
F0.00054764512595837896
sS"{'G_ap': 'DOWNTOWN PITTSBURGH', 'G_dp': 'BRADDOCK', 'G_bn': '', 'G_tt': 'now'}"
p132
F0.00054764512595837896
sS"{'G_ap': 'MCKEESPORT', 'G_dp': 'DOWNTOWN PITTSBURGH', 'G_bn': '', 'G_tt': 'now'}"
p133
F0.006024096385542169
sS"{'G_ap': 'WILKINSBURG', 'G_dp': 'SQUIRREL HILL', 'G_bn': '61A', 'G_tt': 'now'}"
p134
F0.00054764512595837896
sS"{'G_ap': 'OAKLAND', 'G_dp': 'HOMESTEAD', 'G_bn': '', 'G_tt': '900'}"
p135
F0.00054764512595837896
sS"{'G_ap': 'NORTH SIDE', 'G_dp': 'MILLVALE', 'G_bn': '', 'G_tt': 'now'}"
p136
F0.00054764512595837896
sS"{'G_ap': 'SHADYSIDE', 'G_dp': 'CENTRE AND CRAIG', 'G_bn': '', 'G_tt': 'now'}"
p137
F0.00054764512595837896
sS"{'G_ap': 'GREENFIELD', 'G_dp': 'DOWNTOWN', 'G_bn': '65', 'G_tt': 'now'}"
p138
F0.00054764512595837896
sS"{'G_ap': 'MCKEESPORT', 'G_dp': 'DOWNTOWN', 'G_bn': '', 'G_tt': '2100'}"
p139
F0.0010952902519167579
sS"{'G_ap': 'HILL', 'G_dp': 'DUQUESNE', 'G_bn': '', 'G_tt': 'now'}"
p140
F0.00054764512595837896
sS"{'G_ap': 'WILMERDING', 'G_dp': 'TURTLE CREEK', 'G_bn': '', 'G_tt': 'now'}"
p141
F0.00054764512595837896
sS"{'G_ap': 'THE AIRPORT', 'G_dp': 'CMU', 'G_bn': '', 'G_tt': 'now'}"
p142
F0.0016429353778751369
sS"{'G_ap': 'SOUTH SIDE', 'G_dp': 'NORTH SIDE', 'G_bn': '', 'G_tt': 'now'}"
p143
F0.00054764512595837896
sS"{'G_ap': 'WILKINSBURG', 'G_dp': 'MURRAY', 'G_bn': '', 'G_tt': 'now'}"
p144
F0.00054764512595837896
sS"{'G_ap': 'DOWNTOWN', 'G_dp': 'PITT', 'G_bn': '', 'G_tt': 'now'}"
p145
F0.00054764512595837896
sS"{'G_ap': 'DOWNTOWN', 'G_dp': 'ARLINGTON', 'G_bn': '', 'G_tt': 'now'}"
p146
F0.00054764512595837896
sS"{'G_ap': 'MONROEVILLE', 'G_dp': 'PENN', 'G_bn': '', 'G_tt': '1930'}"
p147
F0.00054764512595837896
sS"{'G_ap': 'CENTER', 'G_dp': 'MAIN', 'G_bn': '', 'G_tt': 'now'}"
p148
F0.00054764512595837896
sS"{'G_ap': 'SWISSVALE', 'G_dp': 'DOWNTOWN', 'G_bn': '', 'G_tt': 'now'}"
p149
F0.0021905805038335158
sS"{'G_ap': 'HOMESTEAD', 'G_dp': 'MCKEESPORT', 'G_bn': '61C', 'G_tt': '2230'}"
p150
F0.00054764512595837896
sS"{'G_ap': 'DOWNTOWN PITTSBURGH', 'G_dp': 'MCKEESPORT', 'G_bn': '', 'G_tt': '2000'}"
p151
F0.00054764512595837896
sS"{'G_ap': 'DOWNTOWN', 'G_dp': 'PITTSBURGH INTERNATIONAL AIRPORT', 'G_bn': '', 'G_tt': '2000'}"
p152
F0.00054764512595837896
sS"{'G_ap': 'MCKEESPORT', 'G_dp': 'PITTSBURGH', 'G_bn': '', 'G_tt': '2200'}"
p153
F0.00054764512595837896
sS"{'G_ap': 'DUQUESNE', 'G_dp': 'EIGHTH AVENUE', 'G_bn': '', 'G_tt': 'now'}"
p154
F0.00054764512595837896
sS"{'G_ap': 'MURRAY', 'G_dp': 'ELLSWORTH AND NEGLEY', 'G_bn': '', 'G_tt': 'now'}"
p155
F0.00054764512595837896
sS"{'G_ap': 'OAKLAND', 'G_dp': 'KENNYWOOD PARK', 'G_bn': '', 'G_tt': 'now'}"
p156
F0.00054764512595837896
sS"{'G_ap': 'HOMESTEAD', 'G_dp': 'DUQUESNE', 'G_bn': '61C', 'G_tt': 'now'}"
p157
F0.00054764512595837896
sS"{'G_ap': 'WILKINSBURG', 'G_dp': 'BRADDOCK', 'G_bn': '', 'G_tt': 'now'}"
p158
F0.0010952902519167579
sS"{'G_ap': 'BELL', 'G_dp': 'HOMESTEAD', 'G_bn': '', 'G_tt': '2000'}"
p159
F0.00054764512595837896
sS"{'G_ap': 'SOUTH SIDE', 'G_dp': 'OAKLAND', 'G_bn': '', 'G_tt': '630'}"
p160
F0.00054764512595837896
sS"{'G_ap': 'MCKEESPORT', 'G_dp': 'DUQUESNE', 'G_bn': '', 'G_tt': '1900'}"
p161
F0.00054764512595837896
sS"{'G_ap': 'OAKLAND', 'G_dp': 'SOUTH SIDE', 'G_bn': '54C', 'G_tt': 'now'}"
p162
F0.00054764512595837896
sS"{'G_ap': 'EAST PITTSBURGH', 'G_dp': 'EAST', 'G_bn': '', 'G_tt': 'now'}"
p163
F0.00054764512595837896
sS"{'G_ap': 'HOMESTEAD', 'G_dp': 'DUQUESNE', 'G_bn': '61C', 'G_tt': '2030'}"
p164
F0.00054764512595837896
sS"{'G_ap': 'MONROEVILLE', 'G_dp': 'CEDAR', 'G_bn': '', 'G_tt': '1930'}"
p165
F0.00054764512595837896
sS"{'G_ap': 'SOUTH HILLS JUNCTION', 'G_dp': 'STRIP DISTRICT', 'G_bn': '', 'G_tt': 'now'}"
p166
F0.00054764512595837896
sS"{'G_ap': 'DOWNTOWN', 'G_dp': 'WEST CARSON', 'G_bn': '', 'G_tt': 'now'}"
p167
F0.00054764512595837896
sS"{'G_ap': 'SECOND AVENUE', 'G_dp': 'CRAFTON STATION', 'G_bn': '', 'G_tt': 'now'}"
p168
F0.00054764512595837896
sS"{'G_ap': 'CARNEGIE MELLON UNIVERSITY', 'G_dp': 'GREENFIELD', 'G_bn': '', 'G_tt': 'now'}"
p169
F0.00054764512595837896
sS"{'G_ap': 'DORMONT', 'G_dp': 'RANKIN', 'G_bn': '', 'G_tt': 'now'}"
p170
F0.00054764512595837896
sS"{'G_ap': 'WATERFRONT', 'G_dp': 'BRADDOCK', 'G_bn': '', 'G_tt': '1800'}"
p171
F0.00054764512595837896
sS"{'G_ap': 'PITTSBURGH', 'G_dp': 'LAWRENCEVILLE', 'G_bn': '', 'G_tt': '500'}"
p172
F0.00054764512595837896
sS"{'G_ap': 'DOWNTOWN', 'G_dp': 'MCKEESPORT', 'G_bn': '', 'G_tt': '730'}"
p173
F0.00054764512595837896
sS"{'G_ap': 'OAKLAND', 'G_dp': 'NORTH SIDE', 'G_bn': '', 'G_tt': '800'}"
p174
F0.00054764512595837896
sS"{'G_ap': 'BRADDOCK', 'G_dp': 'TURTLE CREEK', 'G_bn': '', 'G_tt': 'now'}"
p175
F0.00054764512595837896
sS"{'G_ap': 'DOWNTOWN', 'G_dp': 'EAST LIBERTY', 'G_bn': '', 'G_tt': '0'}"
p176
F0.00054764512595837896
sS"{'G_ap': 'THE AIRPORT', 'G_dp': 'CARNEGIE MELLON', 'G_bn': '', 'G_tt': 'now'}"
p177
F0.0010952902519167579
sS"{'G_ap': 'DOWNTOWN', 'G_dp': 'FOREST HILLS', 'G_bn': '', 'G_tt': '500'}"
p178
F0.00054764512595837896
sS"{'G_ap': 'SOUTH SIDE', 'G_dp': 'LIBERTY', 'G_bn': '64', 'G_tt': '2000'}"
p179
F0.00054764512595837896
sS"{'G_ap': 'SOUTH SIDE', 'G_dp': 'OAKLAND', 'G_bn': '', 'G_tt': '2300'}"
p180
F0.00054764512595837896
sS"{'G_ap': 'CENTER', 'G_dp': 'DOWNTOWN PITTSBURGH', 'G_bn': '', 'G_tt': 'now'}"
p181
F0.00054764512595837896
sS"{'G_ap': 'DOWNTOWN', 'G_dp': 'HILL', 'G_bn': '', 'G_tt': 'now'}"
p182
F0.00054764512595837896
sS"{'G_ap': 'GIANT EAGLE', 'G_dp': 'PITTSBURGH', 'G_bn': '', 'G_tt': 'now'}"
p183
F0.00054764512595837896
sS"{'G_ap': 'CARNEGIE', 'G_dp': 'DOWNTOWN', 'G_bn': '', 'G_tt': '2345'}"
p184
F0.00054764512595837896
sS"{'G_ap': 'CRAIG', 'G_dp': 'MONROEVILLE MALL', 'G_bn': '', 'G_tt': 'now'}"
p185
F0.00054764512595837896
sS"{'G_ap': 'DOWNTOWN', 'G_dp': 'DUQUESNE', 'G_bn': '', 'G_tt': '800'}"
p186
F0.00054764512595837896
sS"{'G_ap': 'MCKEESPORT', 'G_dp': 'DOWNTOWN', 'G_bn': '61C', 'G_tt': '2100'}"
p187
F0.00054764512595837896
sS"{'G_ap': 'KENNYWOOD', 'G_dp': 'EIGHTH AVENUE AND DICKSON', 'G_bn': '', 'G_tt': 'now'}"
p188
F0.00054764512595837896
sS"{'G_ap': 'SHADY', 'G_dp': 'LIBERTY', 'G_bn': '', 'G_tt': '100'}"
p189
F0.00054764512595837896
sS"{'G_ap': 'PITTSBURGH', 'G_dp': 'DUQUESNE', 'G_bn': '', 'G_tt': '2000'}"
p190
F0.00054764512595837896
sS"{'G_ap': 'PITTSBURGH AIRPORT', 'G_dp': 'DOWNTOWN PITTSBURGH', 'G_bn': '', 'G_tt': '1300'}"
p191
F0.00054764512595837896
sS"{'G_ap': 'PENN', 'G_dp': 'MCKEESPORT', 'G_bn': '', 'G_tt': 'now'}"
p192
F0.00054764512595837896
sS"{'G_ap': 'CHURCHILL', 'G_dp': 'DOWNTOWN', 'G_bn': '', 'G_tt': 'now'}"
p193
F0.00054764512595837896
sS"{'G_ap': 'SOUTH SIDE', 'G_dp': 'FIFTH AVENUE', 'G_bn': '', 'G_tt': 'now'}"
p194
F0.00054764512595837896
sS"{'G_ap': 'AIRPORT', 'G_dp': 'FOURTH AT HAWKINS', 'G_bn': '', 'G_tt': 'now'}"
p195
F0.00054764512595837896
sS"{'G_ap': 'DOWNTOWN PITTSBURGH', 'G_dp': 'CENTRE AT CRAIG', 'G_bn': '', 'G_tt': '900'}"
p196
F0.00054764512595837896
sS"{'G_ap': 'SWISSVALE', 'G_dp': 'DOWNTOWN PITTSBURGH', 'G_bn': '', 'G_tt': '2220'}"
p197
F0.00054764512595837896
sS"{'G_ap': 'WATERFRONT', 'G_dp': 'SHADYSIDE', 'G_bn': '', 'G_tt': 'now'}"
p198
F0.0010952902519167579
sS"{'G_ap': 'OAKLAND', 'G_dp': 'CENTRE AVENUE', 'G_bn': '71A', 'G_tt': 'now'}"
p199
F0.00054764512595837896
sS"{'G_ap': 'NEGLEY AVENUE', 'G_dp': 'CRAIG AND FIFTH AVENUE', 'G_bn': '', 'G_tt': 'now'}"
p200
F0.00054764512595837896
sS"{'G_ap': 'CENTURY THREE MALL', 'G_dp': 'MCKEESPORT TRANSPORTATION CENTER', 'G_bn': '', 'G_tt': 'now'}"
p201
F0.00054764512595837896
sS"{'G_ap': 'OAKLAND', 'G_dp': 'HOMESTEAD', 'G_bn': '', 'G_tt': '600'}"
p202
F0.00054764512595837896
sS"{'G_ap': 'FOURTH', 'G_dp': 'ARLINGTON AVENUE', 'G_bn': '', 'G_tt': '700'}"
p203
F0.00054764512595837896
sS"{'G_ap': 'PINE', 'G_dp': 'WILKINSBURG', 'G_bn': '', 'G_tt': '600'}"
p204
F0.00054764512595837896
sS"{'G_ap': 'SHADYSIDE', 'G_dp': 'PITTSBURGH', 'G_bn': '', 'G_tt': '800'}"
p205
F0.00054764512595837896
sS"{'G_ap': 'DOWNTOWN', 'G_dp': 'NORTH', 'G_bn': '', 'G_tt': '800'}"
p206
F0.00054764512595837896
sS"{'G_ap': 'LAWRENCEVILLE', 'G_dp': 'EAST LIBERTY', 'G_bn': '', 'G_tt': '600'}"
p207
F0.00054764512595837896
sS"{'G_ap': 'SHADYSIDE', 'G_dp': 'MAIN STREET', 'G_bn': '', 'G_tt': 'now'}"
p208
F0.00054764512595837896
sS"{'G_ap': 'OAKLAND', 'G_dp': 'EAST PITTSBURGH', 'G_bn': 'G', 'G_tt': '2200'}"
p209
F0.00054764512595837896
sS"{'G_ap': 'SWISSVALE', 'G_dp': 'DOWNTOWN', 'G_bn': '', 'G_tt': '2000'}"
p210
F0.00054764512595837896
sS"{'G_ap': 'PITTSBURGH', 'G_dp': 'MCKEESPORT', 'G_bn': '', 'G_tt': '630'}"
p211
F0.0010952902519167579
sS"{'G_ap': 'MCKEESPORT', 'G_dp': 'FORBES AND CRAIG', 'G_bn': '61C', 'G_tt': 'now'}"
p212
F0.00054764512595837896
sS"{'G_ap': 'OAKLAND', 'G_dp': 'EAST HILLS AVENUE', 'G_bn': '', 'G_tt': 'now'}"
p213
F0.00054764512595837896
sS"{'G_ap': 'DOWNTOWN', 'G_dp': 'REBECCA AND COAL', 'G_bn': '', 'G_tt': '630'}"
p214
F0.00054764512595837896
sS"{'G_ap': 'MONROEVILLE', 'G_dp': 'MONROEVILLE', 'G_bn': '', 'G_tt': 'now'}"
p215
F0.00054764512595837896
sS"{'G_ap': 'SOUTH', 'G_dp': 'MCKEESPORT', 'G_bn': '61C', 'G_tt': 'now'}"
p216
F0.00054764512595837896
sS"{'G_ap': 'DOWNTOWN PITTSBURGH', 'G_dp': 'HOMESTEAD', 'G_bn': '', 'G_tt': '1000'}"
p217
F0.00054764512595837896
sS"{'G_ap': 'FRANKLIN', 'G_dp': 'THE NORTH SIDE', 'G_bn': '', 'G_tt': '830'}"
p218
F0.00054764512595837896
sS"{'G_ap': 'MCKEESPORT', 'G_dp': 'MCKEESPORT', 'G_bn': '', 'G_tt': '600'}"
p219
F0.00054764512595837896
sS"{'G_ap': 'DOWNTOWN PITTSBURGH', 'G_dp': 'DUQUESNE', 'G_bn': '', 'G_tt': '745'}"
p220
F0.00054764512595837896
sS"{'G_ap': 'DOWNTOWN PITTSBURGH', 'G_dp': 'CENTRE AVENUE AND EWART', 'G_bn': '', 'G_tt': 'now'}"
p221
F0.00054764512595837896
sS"{'G_ap': 'DOWNTOWN', 'G_dp': 'WILKINSBURG', 'G_bn': '', 'G_tt': '800'}"
p222
F0.0010952902519167579
sS"{'G_ap': 'MCKEESPORT', 'G_dp': 'HOMESTEAD', 'G_bn': '61C', 'G_tt': '1900'}"
p223
F0.00054764512595837896
sS"{'G_ap': 'SQUIRREL HILL', 'G_dp': 'FIFTH AND ATWOOD', 'G_bn': '', 'G_tt': 'now'}"
p224
F0.00054764512595837896
sS"{'G_ap': 'WILKINSBURG', 'G_dp': 'FORBES', 'G_bn': '', 'G_tt': 'now'}"
p225
F0.00054764512595837896
sS"{'G_ap': 'SQUIRREL HILL', 'G_dp': 'SWISSVALE', 'G_bn': '', 'G_tt': '2200'}"
p226
F0.00054764512595837896
sS"{'G_ap': 'DOWNTOWN PITTSBURGH', 'G_dp': 'TURTLE CREEK', 'G_bn': '', 'G_tt': 'now'}"
p227
F0.00054764512595837896
sS"{'G_ap': 'SHADYSIDE', 'G_dp': 'CENTRE AT CRAIG', 'G_bn': '', 'G_tt': '800'}"
p228
F0.00054764512595837896
sS"{'G_ap': 'DOWNTOWN', 'G_dp': 'EAST BUSWAY', 'G_bn': '', 'G_tt': 'now'}"
p229
F0.0021905805038335158
sS"{'G_ap': 'SQUIRREL HILL', 'G_dp': 'MCKEESPORT', 'G_bn': '', 'G_tt': '2100'}"
p230
F0.00054764512595837896
sS"{'G_ap': 'BRADDOCK', 'G_dp': 'EIGHTH', 'G_bn': '61B', 'G_tt': 'now'}"
p231
F0.00054764512595837896
sS"{'G_ap': 'DOWNTOWN', 'G_dp': 'DYNAMO WAY', 'G_bn': '', 'G_tt': 'now'}"
p232
F0.0010952902519167579
sS"{'G_ap': 'CHARLES AND BRIGHTON', 'G_dp': 'HUEY', 'G_bn': '', 'G_tt': 'now'}"
p233
F0.00054764512595837896
sS"{'G_ap': 'WALL', 'G_dp': 'UPTOWN', 'G_bn': '', 'G_tt': '1000'}"
p234
F0.00054764512595837896
sS"{'G_ap': 'CURRY', 'G_dp': 'DOWNTOWN', 'G_bn': '', 'G_tt': 'now'}"
p235
F0.00054764512595837896
sS"{'G_ap': 'FORBES AND MURRAY', 'G_dp': 'THE BUSWAY', 'G_bn': '', 'G_tt': 'now'}"
p236
F0.00054764512595837896
sS"{'G_ap': 'SWISSVALE STATION', 'G_dp': 'EAST PITTSBURGH', 'G_bn': '', 'G_tt': '800'}"
p237
F0.00054764512595837896
sS"{'G_ap': 'EAST LIBERTY', 'G_dp': 'WILKINSBURG', 'G_bn': '71C', 'G_tt': 'now'}"
p238
F0.00054764512595837896
sS"{'G_ap': 'DOWNTOWN', 'G_dp': 'BELL AND JONES', 'G_bn': '61A', 'G_tt': 'now'}"
p239
F0.00054764512595837896
sS"{'G_ap': 'PITTSBURGH', 'G_dp': 'CENTER', 'G_bn': '', 'G_tt': '700'}"
p240
F0.00054764512595837896
sS"{'G_ap': 'MCKEESPORT', 'G_dp': 'CENTURY THREE', 'G_bn': '', 'G_tt': 'now'}"
p241
F0.00054764512595837896
sS"{'G_ap': 'DOWNTOWN', 'G_dp': 'CARNEGIE', 'G_bn': '', 'G_tt': '2200'}"
p242
F0.00054764512595837896
sS"{'G_ap': 'MCKEESPORT', 'G_dp': 'DUQUESNE', 'G_bn': '', 'G_tt': '2100'}"
p243
F0.00054764512595837896
sS"{'G_ap': 'EAST LIBERTY', 'G_dp': 'NORTH SIDE', 'G_bn': '', 'G_tt': 'now'}"
p244
F0.00054764512595837896
sS"{'G_ap': 'DOWNTOWN', 'G_dp': 'SQUIRREL HILL', 'G_bn': '', 'G_tt': 'now'}"
p245
F0.0010952902519167579
sS"{'G_ap': 'OAKLAND', 'G_dp': 'TRAFFORD', 'G_bn': '', 'G_tt': '2200'}"
p246
F0.00054764512595837896
sS"{'G_ap': 'DOWNTOWN', 'G_dp': 'LINCOLN AVENUE', 'G_bn': '81B', 'G_tt': '1800'}"
p247
F0.00054764512595837896
sS"{'G_ap': 'MCKEESPORT', 'G_dp': 'PITTSBURGH', 'G_bn': '', 'G_tt': '500'}"
p248
F0.00054764512595837896
sS"{'G_ap': 'MOUNT OLIVER', 'G_dp': 'CHESTERFIELD AND FIFTH', 'G_bn': '', 'G_tt': '630'}"
p249
F0.00054764512595837896
sS"{'G_ap': 'DOWNTOWN', 'G_dp': 'WILKINSBURG', 'G_bn': '71C', 'G_tt': 'now'}"
p250
F0.00054764512595837896
sS"{'G_ap': 'FORBES AND MURRAY', 'G_dp': 'FIFTH AVENUE AND SHADY AVENUE', 'G_bn': '', 'G_tt': 'now'}"
p251
F0.00054764512595837896
sS"{'G_ap': 'FOURTH', 'G_dp': 'FORBES AND MURRAY', 'G_bn': '64', 'G_tt': '2100'}"
p252
F0.00054764512595837896
sS"{'G_ap': 'SQUIRREL HILL', 'G_dp': 'NORTH BRADDOCK', 'G_bn': '', 'G_tt': '2100'}"
p253
F0.00054764512595837896
sS"{'G_ap': 'MONROEVILLE', 'G_dp': 'FORBES AND MOREWOOD', 'G_bn': '67', 'G_tt': '800'}"
p254
F0.00054764512595837896
sS"{'G_ap': 'BUSWAY', 'G_dp': 'NORTH BRADDOCK', 'G_bn': '', 'G_tt': 'now'}"
p255
F0.00054764512595837896
sS"{'G_ap': 'HOMESTEAD', 'G_dp': 'HAZELWOOD', 'G_bn': '', 'G_tt': 'now'}"
p256
F0.0016429353778751369
sS"{'G_ap': 'SOUTH SIDE', 'G_dp': 'OAKLAND', 'G_bn': '', 'G_tt': '100'}"
p257
F0.00054764512595837896
sS"{'G_ap': 'BRADDOCK', 'G_dp': 'OAKLAND', 'G_bn': '', 'G_tt': '2300'}"
p258
F0.00054764512595837896
sS"{'G_ap': 'AIRPORT', 'G_dp': 'OAKLAND', 'G_bn': '28X', 'G_tt': 'now'}"
p259
F0.00054764512595837896
sS"{'G_ap': 'DOWNTOWN', 'G_dp': 'STATION', 'G_bn': '', 'G_tt': 'now'}"
p260
F0.00054764512595837896
sS"{'G_ap': 'CARSON STREET', 'G_dp': 'POLISH HILL', 'G_bn': '', 'G_tt': '800'}"
p261
F0.00054764512595837896
sS"{'G_ap': 'NORTH SIDE', 'G_dp': 'DOWNTOWN', 'G_bn': '', 'G_tt': '1600'}"
p262
F0.00054764512595837896
sS"{'G_ap': 'MANCHESTER', 'G_dp': 'NORTH', 'G_bn': '', 'G_tt': 'now'}"
p263
F0.00054764512595837896
sS"{'G_ap': 'DOWNTOWN PITTSBURGH', 'G_dp': 'MCKEESPORT', 'G_bn': '', 'G_tt': '1700'}"
p264
F0.00054764512595837896
sS"{'G_ap': 'SOUTH SIDE', 'G_dp': 'FIFTH AVENUE AND SHADY', 'G_bn': '', 'G_tt': '2130'}"
p265
F0.00054764512595837896
sS"{'G_ap': 'OAKLAND', 'G_dp': 'NORTH', 'G_bn': '', 'G_tt': 'now'}"
p266
F0.0016429353778751369
sS"{'G_ap': 'OLIVER', 'G_dp': 'HILL', 'G_bn': '', 'G_tt': '1900'}"
p267
F0.00054764512595837896
sS"{'G_ap': 'MCKEESPORT', 'G_dp': 'ATWOOD', 'G_bn': '', 'G_tt': 'now'}"
p268
F0.00054764512595837896
sS"{'G_ap': 'WILKINSBURG', 'G_dp': 'DOWNTOWN PITTSBURGH', 'G_bn': '', 'G_tt': 'now'}"
p269
F0.00054764512595837896
sS"{'G_ap': 'FORBES AND MURRAY', 'G_dp': 'FORBES AND SHADY', 'G_bn': '', 'G_tt': '500'}"
p270
F0.00054764512595837896
sS"{'G_ap': 'MCKEE', 'G_dp': 'CMU', 'G_bn': '', 'G_tt': 'now'}"
p271
F0.00054764512595837896
sS"{'G_ap': 'AIRPORT', 'G_dp': 'DOWNTOWN PITTSBURGH', 'G_bn': '', 'G_tt': '2130'}"
p272
F0.00054764512595837896
sS"{'G_ap': 'OAKLAND', 'G_dp': 'DUQUESNE', 'G_bn': '', 'G_tt': '700'}"
p273
F0.00054764512595837896
sS"{'G_ap': 'DOWNTOWN', 'G_dp': 'WEST AND PENN AVENUE', 'G_bn': '', 'G_tt': '300'}"
p274
F0.00054764512595837896
sS"{'G_ap': 'AIRPORT', 'G_dp': 'FIFTH AND THACKERAY', 'G_bn': '28X', 'G_tt': 'now'}"
p275
F0.00054764512595837896
sS"{'G_ap': 'DUQUESNE', 'G_dp': 'MARYLAND', 'G_bn': '', 'G_tt': 'now'}"
p276
F0.00054764512595837896
sS"{'G_ap': 'WILMERDING', 'G_dp': 'DOWNTOWN', 'G_bn': '', 'G_tt': 'now'}"
p277
F0.00054764512595837896
sS"{'G_ap': 'OAKLAND', 'G_dp': 'SWISSVALE', 'G_bn': '', 'G_tt': '1200'}"
p278
F0.00054764512595837896
sS"{'G_ap': 'DOWNTOWN PITTSBURGH', 'G_dp': 'NEVILLE', 'G_bn': '', 'G_tt': 'now'}"
p279
F0.00054764512595837896
sS"{'G_ap': 'LAWRENCEVILLE', 'G_dp': 'DOWNTOWN', 'G_bn': '', 'G_tt': 'now'}"
p280
F0.00054764512595837896
sS"{'G_ap': 'BUTLER STREET', 'G_dp': 'FRIENDSHIP', 'G_bn': '', 'G_tt': 'now'}"
p281
F0.00054764512595837896
sS"{'G_ap': 'BROWNSVILLE', 'G_dp': 'HILL', 'G_bn': '', 'G_tt': '2000'}"
p282
F0.00054764512595837896
sS"{'G_ap': 'AIRPORT', 'G_dp': 'HOMESTEAD', 'G_bn': '', 'G_tt': 'now'}"
p283
F0.00054764512595837896
sS"{'G_ap': 'FORBES AND MURRAY', 'G_dp': 'SHERADEN', 'G_bn': '', 'G_tt': '500'}"
p284
F0.00054764512595837896
sS"{'G_ap': 'EAST LIBERTY', 'G_dp': 'HAZELWOOD', 'G_bn': '', 'G_tt': '700'}"
p285
F0.00054764512595837896
sS"{'G_ap': 'DOWNTOWN', 'G_dp': 'OLIVER', 'G_bn': '', 'G_tt': 'now'}"
p286
F0.00054764512595837896
sS"{'G_ap': 'HAZELWOOD', 'G_dp': 'DOWNTOWN', 'G_bn': '', 'G_tt': '2230'}"
p287
F0.00054764512595837896
sS"{'G_ap': 'PITTSBURGH', 'G_dp': 'FOURTH', 'G_bn': '', 'G_tt': 'now'}"
p288
F0.00054764512595837896
sS"{'G_ap': 'WARRINGTON', 'G_dp': 'DOWNTOWN PITTSBURGH', 'G_bn': '', 'G_tt': '730'}"
p289
F0.00054764512595837896
sS"{'G_ap': 'PITT', 'G_dp': 'WILKINSBURG', 'G_bn': '', 'G_tt': 'now'}"
p290
F0.0010952902519167579
sS"{'G_ap': 'WATERWORKS MALL', 'G_dp': 'FORBES', 'G_bn': '', 'G_tt': 'now'}"
p291
F0.00054764512595837896
sS"{'G_ap': 'EAST PITTSBURGH', 'G_dp': 'SWISSVALE', 'G_bn': '', 'G_tt': 'now'}"
p292
F0.0027382256297918948
sS"{'G_ap': 'PENN AND NEGLEY', 'G_dp': 'CRAIG AND FIFTH', 'G_bn': '', 'G_tt': 'now'}"
p293
F0.00054764512595837896
sS"{'G_ap': 'CMU', 'G_dp': 'HOBART', 'G_bn': '', 'G_tt': 'now'}"
p294
F0.00054764512595837896
sS"{'G_ap': 'VERONA', 'G_dp': 'DOWNTOWN', 'G_bn': '', 'G_tt': 'now'}"
p295
F0.00054764512595837896
sS"{'G_ap': 'DOWNTOWN PITTSBURGH', 'G_dp': 'WALL', 'G_bn': '', 'G_tt': 'now'}"
p296
F0.00054764512595837896
sS"{'G_ap': 'MURRAY AVENUE', 'G_dp': 'OAKLAND', 'G_bn': '', 'G_tt': 'now'}"
p297
F0.00054764512595837896
sS"{'G_ap': 'DOWNTOWN PITTSBURGH', 'G_dp': 'CENTER', 'G_bn': '', 'G_tt': '2200'}"
p298
F0.00054764512595837896
sS"{'G_ap': 'TURTLE CREEK', 'G_dp': 'DOWNTOWN', 'G_bn': '', 'G_tt': 'now'}"
p299
F0.00054764512595837896
sS"{'G_ap': 'MCKEESPORT', 'G_dp': 'MCKEESPORT', 'G_bn': '', 'G_tt': 'now'}"
p300
F0.0010952902519167579
sS"{'G_ap': 'SWISSVALE', 'G_dp': 'STRIP DISTRICT', 'G_bn': '', 'G_tt': '30'}"
p301
F0.00054764512595837896
sS"{'G_ap': 'DOWNTOWN PITTSBURGH', 'G_dp': 'BRIGHTON', 'G_bn': '500', 'G_tt': '2000'}"
p302
F0.00054764512595837896
sS"{'G_ap': 'KELLY AND PITT STREET', 'G_dp': 'WILKINSBURG', 'G_bn': '', 'G_tt': '800'}"
p303
F0.00054764512595837896
sS"{'G_ap': 'WALL', 'G_dp': 'MANCHESTER', 'G_bn': '', 'G_tt': '500'}"
p304
F0.00054764512595837896
sS"{'G_ap': 'BUS STATION', 'G_dp': 'PITTSBURGH AIRPORT', 'G_bn': '', 'G_tt': '400'}"
p305
F0.00054764512595837896
sS'{\'G_ap\': "MACY\'S", \'G_dp\': \'WOOD AND LIBERTY\', \'G_bn\': \'\', \'G_tt\': \'730\'}'
p306
F0.00054764512595837896
sS"{'G_ap': 'OAKLAND', 'G_dp': 'EAST LIBERTY', 'G_bn': '', 'G_tt': '700'}"
p307
F0.00054764512595837896
sS"{'G_ap': 'SOUTH SIDE', 'G_dp': 'LIBERTY', 'G_bn': '', 'G_tt': '2000'}"
p308
F0.00054764512595837896
sS"{'G_ap': 'MCKEE STREET', 'G_dp': 'DOWNTOWN', 'G_bn': '', 'G_tt': '2000'}"
p309
F0.00054764512595837896
sS"{'G_ap': 'DOWNTOWN', 'G_dp': 'MONROEVILLE', 'G_bn': '', 'G_tt': '2000'}"
p310
F0.00054764512595837896
sS"{'G_ap': 'MCKEESPORT', 'G_dp': 'DUQUESNE', 'G_bn': '', 'G_tt': 'now'}"
p311
F0.0049288061336254111
sS"{'G_ap': 'PITTSBURGH', 'G_dp': 'MCKEESPORT', 'G_bn': '', 'G_tt': '1700'}"
p312
F0.00054764512595837896
sS"{'G_ap': 'DOWNTOWN', 'G_dp': 'CENTURY THREE MALL', 'G_bn': '', 'G_tt': 'now'}"
p313
F0.0010952902519167579
sS"{'G_ap': 'WATERFRONT', 'G_dp': 'SCOTT', 'G_bn': '', 'G_tt': '1800'}"
p314
F0.00054764512595837896
sS"{'G_ap': 'EAST LIBERTY', 'G_dp': 'FRANKSTOWN', 'G_bn': '', 'G_tt': 'now'}"
p315
F0.0010952902519167579
sS"{'G_ap': 'BLOOMFIELD', 'G_dp': 'OAKLAND', 'G_bn': '', 'G_tt': 'now'}"
p316
F0.00054764512595837896
sS"{'G_ap': 'OLIVER', 'G_dp': 'CRAFT', 'G_bn': '', 'G_tt': 'now'}"
p317
F0.00054764512595837896
sS"{'G_ap': 'SHERADEN', 'G_dp': 'PITTSBURGH', 'G_bn': '', 'G_tt': 'now'}"
p318
F0.00054764512595837896
sS"{'G_ap': 'FOURTH AVENUE', 'G_dp': 'HOMESTEAD', 'G_bn': '', 'G_tt': '500'}"
p319
F0.00054764512595837896
sS"{'G_ap': 'OAK HILL', 'G_dp': 'EAST OHIO STREET', 'G_bn': '', 'G_tt': '1830'}"
p320
F0.00054764512595837896
sS"{'G_ap': 'DOWNTOWN', 'G_dp': 'MCKEESPORT TRANSPORTATION CENTER', 'G_bn': '', 'G_tt': '700'}"
p321
F0.00054764512595837896
sS"{'G_ap': 'WILKINSBURG', 'G_dp': 'PENN AT HIGHLAND', 'G_bn': '71C', 'G_tt': '600'}"
p322
F0.00054764512595837896
sS"{'G_ap': 'THE WATERFRONT', 'G_dp': 'CARNEGIE MELLON UNIVERSITY', 'G_bn': '', 'G_tt': 'now'}"
p323
F0.0010952902519167579
sS"{'G_ap': 'FEDERAL', 'G_dp': 'CMU', 'G_bn': '', 'G_tt': '2200'}"
p324
F0.00054764512595837896
sS"{'G_ap': 'BELTZHOOVER', 'G_dp': 'WARRINGTON AVENUE', 'G_bn': '', 'G_tt': 'now'}"
p325
F0.00054764512595837896
sS"{'G_ap': 'BELL STATION', 'G_dp': 'BRADDOCK', 'G_bn': '', 'G_tt': '600'}"
p326
F0.00054764512595837896
sS"{'G_ap': 'EAST LIBERTY', 'G_dp': 'CATHEDRAL OF LEARNING', 'G_bn': '', 'G_tt': '130'}"
p327
F0.00054764512595837896
sS"{'G_ap': 'DOWNTOWN', 'G_dp': 'CHURCHILL', 'G_bn': '', 'G_tt': 'now'}"
p328
F0.00054764512595837896
sS"{'G_ap': 'DOWNTOWN', 'G_dp': 'WASHINGTON', 'G_bn': '', 'G_tt': '530'}"
p329
F0.00054764512595837896
sS"{'G_ap': 'THE BUSWAY', 'G_dp': 'FOURTH STREET', 'G_bn': '', 'G_tt': '600'}"
p330
F0.00054764512595837896
sS"{'G_ap': 'MCKEESPORT', 'G_dp': 'OAKLAND', 'G_bn': '61C', 'G_tt': '1940'}"
p331
F0.00054764512595837896
sS"{'G_ap': 'MONROEVILLE', 'G_dp': 'WILKINSBURG', 'G_bn': '', 'G_tt': 'now'}"
p332
F0.00054764512595837896
sS"{'G_ap': 'WATERFRONT', 'G_dp': 'SOUTH SIDE', 'G_bn': '', 'G_tt': '2230'}"
p333
F0.00054764512595837896
sS"{'G_ap': 'EAST LIBERTY', 'G_dp': 'OAKLAND', 'G_bn': '', 'G_tt': '1900'}"
p334
F0.00054764512595837896
sS"{'G_ap': 'FRANKSTOWN', 'G_dp': 'EAST LIBERTY', 'G_bn': '', 'G_tt': 'now'}"
p335
F0.00054764512595837896
sS"{'G_ap': 'WATERFRONT', 'G_dp': 'DOWNTOWN PITTSBURGH', 'G_bn': '', 'G_tt': '300'}"
p336
F0.00054764512595837896
sS"{'G_ap': 'NORTH BRADDOCK', 'G_dp': 'DOWNTOWN', 'G_bn': '', 'G_tt': '1800'}"
p337
F0.00054764512595837896
sS"{'G_ap': 'SWISSVALE', 'G_dp': 'NORTH BRADDOCK', 'G_bn': '', 'G_tt': '1800'}"
p338
F0.00054764512595837896
sS"{'G_ap': 'DOWNTOWN PITTSBURGH', 'G_dp': 'NORTH BRADDOCK', 'G_bn': '61A', 'G_tt': '2200'}"
p339
F0.00054764512595837896
sS"{'G_ap': 'REYNOLDS AND DALLAS', 'G_dp': 'FORBES AT MURRAY', 'G_bn': '', 'G_tt': 'now'}"
p340
F0.00054764512595837896
sS"{'G_ap': 'BUSWAY', 'G_dp': 'FOURTH AVENUE', 'G_bn': '', 'G_tt': '600'}"
p341
F0.00054764512595837896
sS"{'G_ap': 'DOWNTOWN', 'G_dp': 'BROWNSVILLE', 'G_bn': '', 'G_tt': 'now'}"
p342
F0.00054764512595837896
sS"{'G_ap': 'DOWNTOWN', 'G_dp': 'LIBERTY', 'G_bn': '', 'G_tt': 'now'}"
p343
F0.00054764512595837896
sS"{'G_ap': 'EAST HILLS', 'G_dp': 'WILKINSBURG STATION', 'G_bn': '', 'G_tt': '1700'}"
p344
F0.00054764512595837896
sS"{'G_ap': 'WEST PENN', 'G_dp': 'CARNEGIE', 'G_bn': '', 'G_tt': '0'}"
p345
F0.00054764512595837896
sS"{'G_ap': 'OAKLAND', 'G_dp': 'MONROEVILLE MALL', 'G_bn': '', 'G_tt': 'now'}"
p346
F0.0010952902519167579
sS"{'G_ap': 'DOWNTOWN', 'G_dp': 'CENTER', 'G_bn': '', 'G_tt': '1900'}"
p347
F0.00054764512595837896
sS"{'G_ap': 'CARSON STREET', 'G_dp': 'DUQUESNE', 'G_bn': 'G', 'G_tt': '500'}"
p348
F0.00054764512595837896
sS"{'G_ap': 'SEVENTH AND PENN', 'G_dp': 'GIANT EAGLE', 'G_bn': '', 'G_tt': '545'}"
p349
F0.00054764512595837896
sS"{'G_ap': 'HOMESTEAD', 'G_dp': 'PENN AND NEGLEY', 'G_bn': '64', 'G_tt': 'now'}"
p350
F0.00054764512595837896
sS"{'G_ap': 'OAK', 'G_dp': 'OAKMONT', 'G_bn': '', 'G_tt': '700'}"
p351
F0.00054764512595837896
sS"{'G_ap': 'EAST LIBERTY', 'G_dp': 'HIGHLAND AVENUE', 'G_bn': '', 'G_tt': 'now'}"
p352
F0.00054764512595837896
sS"{'G_ap': 'DOWNTOWN', 'G_dp': 'CENTURY THREE MALL', 'G_bn': '', 'G_tt': '1900'}"
p353
F0.00054764512595837896
sS"{'G_ap': 'NORTH SIDE', 'G_dp': 'TENNYSON', 'G_bn': '', 'G_tt': 'now'}"
p354
F0.00054764512595837896
sS"{'G_ap': 'HOMESTEAD', 'G_dp': 'KENNYWOOD MALL', 'G_bn': '', 'G_tt': 'now'}"
p355
F0.00054764512595837896
sS"{'G_ap': 'DOWNTOWN', 'G_dp': 'SWISSVALE STATION', 'G_bn': '', 'G_tt': '630'}"
p356
F0.00054764512595837896
sS"{'G_ap': 'FOREST HILLS', 'G_dp': 'TURTLE CREEK', 'G_bn': '', 'G_tt': '1700'}"
p357
F0.00054764512595837896
sS"{'G_ap': 'HOMESTEAD', 'G_dp': 'MCKEESPORT TRANSPORTATION CENTER', 'G_bn': '', 'G_tt': '1800'}"
p358
F0.00054764512595837896
sS"{'G_ap': 'WILKINSBURG', 'G_dp': 'PENN STATION', 'G_bn': '', 'G_tt': 'now'}"
p359
F0.00054764512595837896
sS"{'G_ap': 'ROSS', 'G_dp': 'MCKEESPORT', 'G_bn': '', 'G_tt': '800'}"
p360
F0.00054764512595837896
sS"{'G_ap': 'EAST LIBERTY', 'G_dp': 'PENN AND MAIN', 'G_bn': '', 'G_tt': 'now'}"
p361
F0.00054764512595837896
sS"{'G_ap': 'DOWNTOWN', 'G_dp': 'NORTH BRADDOCK', 'G_bn': '61B', 'G_tt': 'now'}"
p362
F0.0010952902519167579
sS"{'G_ap': 'OAKMONT', 'G_dp': 'OAKLAND', 'G_bn': '', 'G_tt': '100'}"
p363
F0.00054764512595837896
sS"{'G_ap': 'HOMESTEAD', 'G_dp': 'HAZELWOOD', 'G_bn': '', 'G_tt': '2000'}"
p364
F0.00054764512595837896
sS"{'G_ap': 'MCKEESPORT', 'G_dp': 'FORBES AND MURRAY', 'G_bn': '61C', 'G_tt': 'now'}"
p365
F0.0016429353778751369
sS"{'G_ap': 'DOWNTOWN PITTSBURGH', 'G_dp': 'PITTSBURGH INTERNATIONAL AIRPORT', 'G_bn': '', 'G_tt': '0'}"
p366
F0.00054764512595837896
sS"{'G_ap': 'OAKLAND', 'G_dp': 'BLOOMFIELD', 'G_bn': '', 'G_tt': 'now'}"
p367
F0.0010952902519167579
sS"{'G_ap': 'NORTH SIDE', 'G_dp': 'SOUTH SIDE', 'G_bn': '', 'G_tt': 'now'}"
p368
F0.00054764512595837896
sS"{'G_ap': 'DOWNTOWN', 'G_dp': 'HIGHLAND AVENUE', 'G_bn': '', 'G_tt': 'now'}"
p369
F0.00054764512595837896
sS"{'G_ap': 'DUQUESNE', 'G_dp': 'MCKEESPORT', 'G_bn': '65', 'G_tt': 'now'}"
p370
F0.00054764512595837896
sS"{'G_ap': 'CHURCHILL', 'G_dp': 'OAKLAND AVENUE', 'G_bn': '', 'G_tt': '2000'}"
p371
F0.00054764512595837896
sS"{'G_ap': 'OAKLAND', 'G_dp': 'HIGHLAND PARK', 'G_bn': '', 'G_tt': 'now'}"
p372
F0.00054764512595837896
sS"{'G_ap': 'BUSWAY', 'G_dp': 'FOURTH STREET', 'G_bn': '', 'G_tt': 'now'}"
p373
F0.00054764512595837896
sS"{'G_ap': 'WILKINSBURG', 'G_dp': 'SOUTH', 'G_bn': '', 'G_tt': 'now'}"
p374
F0.00054764512595837896
sS"{'G_ap': 'WARRINGTON', 'G_dp': 'LAWRENCEVILLE', 'G_bn': '', 'G_tt': '2030'}"
p375
F0.00054764512595837896
sS"{'G_ap': 'WATERFRONT', 'G_dp': 'OAKLAND', 'G_bn': '', 'G_tt': 'now'}"
p376
F0.00054764512595837896
sS"{'G_ap': 'WILKINSBURG', 'G_dp': 'PENN AVENUE', 'G_bn': '', 'G_tt': 'now'}"
p377
F0.00054764512595837896
sS"{'G_ap': 'WEST PENN HOSPITAL', 'G_dp': 'BELTZHOOVER AVENUE AND CHARLES STREET', 'G_bn': '', 'G_tt': 'now'}"
p378
F0.00054764512595837896
sS"{'G_ap': 'DOWNTOWN', 'G_dp': 'FRANKSTOWN', 'G_bn': '', 'G_tt': '500'}"
p379
F0.00054764512595837896
sS"{'G_ap': 'MCKEE', 'G_dp': 'BRIDGE', 'G_bn': '61C', 'G_tt': '2000'}"
p380
F0.00054764512595837896
sS"{'G_ap': 'OAKLAND', 'G_dp': 'SWISSVALE', 'G_bn': '61A', 'G_tt': '700'}"
p381
F0.00054764512595837896
sS"{'G_ap': 'LAWRENCEVILLE', 'G_dp': 'LIBERTY', 'G_bn': '', 'G_tt': 'now'}"
p382
F0.00054764512595837896
sS"{'G_ap': 'CARNEGIE', 'G_dp': 'DOWNTOWN', 'G_bn': '', 'G_tt': '2300'}"
p383
F0.00054764512595837896
sS"{'G_ap': 'TRAFFORD', 'G_dp': 'OAKLAND', 'G_bn': '', 'G_tt': 'now'}"
p384
F0.0010952902519167579
sS"{'G_ap': 'DOWNTOWN', 'G_dp': 'BRIGHTON', 'G_bn': '', 'G_tt': '2100'}"
p385
F0.00054764512595837896
sS"{'G_ap': 'WILKINSBURG', 'G_dp': 'NORTH BRADDOCK', 'G_bn': '', 'G_tt': 'now'}"
p386
F0.00054764512595837896
sS"{'G_ap': 'PENN AVENUE AND FORTIETH STREET', 'G_dp': 'HIGHLAND AVENUE AND PENN', 'G_bn': '', 'G_tt': '800'}"
p387
F0.00054764512595837896
sS"{'G_ap': 'PITT', 'G_dp': 'MOUNT OLIVER', 'G_bn': '', 'G_tt': '100'}"
p388
F0.00054764512595837896
sS"{'G_ap': 'DOWNTOWN', 'G_dp': 'HIGHLAND PARK', 'G_bn': '', 'G_tt': 'now'}"
p389
F0.00054764512595837896
sS"{'G_ap': 'SWISSVALE', 'G_dp': 'SWISSVALE', 'G_bn': '', 'G_tt': 'now'}"
p390
F0.00054764512595837896
sS"{'G_ap': 'BRADDOCK', 'G_dp': 'DOWNTOWN', 'G_bn': '', 'G_tt': '100'}"
p391
F0.00054764512595837896
sS"{'G_ap': 'DUQUESNE', 'G_dp': 'GRANT', 'G_bn': '', 'G_tt': 'now'}"
p392
F0.00054764512595837896
sS"{'G_ap': 'TRAFFORD', 'G_dp': 'WILKINSBURG', 'G_bn': '69', 'G_tt': 'now'}"
p393
F0.00054764512595837896
sS"{'G_ap': 'SOUTH HILLS JUNCTION', 'G_dp': 'CARSON', 'G_bn': '64', 'G_tt': 'now'}"
p394
F0.00054764512595837896
sS"{'G_ap': 'PINE', 'G_dp': 'DOWNTOWN', 'G_bn': '71A', 'G_tt': '830'}"
p395
F0.00054764512595837896
sS"{'G_ap': 'FRANKSTOWN AT LINCOLN', 'G_dp': 'NEVILLE', 'G_bn': '', 'G_tt': 'now'}"
p396
F0.00054764512595837896
sS"{'G_ap': 'DOWNTOWN', 'G_dp': 'NORTH', 'G_bn': '', 'G_tt': '900'}"
p397
F0.00054764512595837896
sS"{'G_ap': 'HOMESTEAD', 'G_dp': 'OAKLAND', 'G_bn': '', 'G_tt': 'now'}"
p398
F0.0010952902519167579
sS"{'G_ap': 'AIRPORT', 'G_dp': 'FORBES AND MOREWOOD', 'G_bn': '', 'G_tt': 'now'}"
p399
F0.00054764512595837896
sS"{'G_ap': 'DUQUESNE', 'G_dp': 'HOMESTEAD', 'G_bn': '61C', 'G_tt': 'now'}"
p400
F0.00054764512595837896
sS"{'G_ap': 'DUQUESNE', 'G_dp': 'SWISSVALE', 'G_bn': '', 'G_tt': '2200'}"
p401
F0.00054764512595837896
sS"{'G_ap': 'ROBINSON', 'G_dp': 'DOWNTOWN', 'G_bn': '', 'G_tt': '2100'}"
p402
F0.00054764512595837896
sS"{'G_ap': 'DOWNTOWN', 'G_dp': 'CHESTNUT STREET', 'G_bn': '', 'G_tt': '1800'}"
p403
F0.00054764512595837896
sS"{'G_ap': 'LAWRENCEVILLE', 'G_dp': 'HOMESTEAD', 'G_bn': '', 'G_tt': '2200'}"
p404
F0.00054764512595837896
sS"{'G_ap': 'DOWNTOWN PITTSBURGH', 'G_dp': 'MCKEESPORT', 'G_bn': '', 'G_tt': '2100'}"
p405
F0.00054764512595837896
sS"{'G_ap': 'DOWNTOWN', 'G_dp': 'HOMESTEAD', 'G_bn': '', 'G_tt': '2100'}"
p406
F0.0010952902519167579
sS"{'G_ap': 'TRAFFORD', 'G_dp': 'PENN AVENUE', 'G_bn': '', 'G_tt': 'now'}"
p407
F0.00054764512595837896
sS"{'G_ap': 'NEGLEY', 'G_dp': 'CENTER AVENUE', 'G_bn': '', 'G_tt': 'now'}"
p408
F0.00054764512595837896
sS"{'G_ap': 'CMU', 'G_dp': 'AIRPORT', 'G_bn': '', 'G_tt': '0'}"
p409
F0.00054764512595837896
sS"{'G_ap': 'OAKLAND', 'G_dp': 'MCKEE', 'G_bn': '', 'G_tt': 'now'}"
p410
F0.00054764512595837896
sS"{'G_ap': 'SQUIRREL HILL', 'G_dp': 'CARNEGIE MELLON UNIVERSITY', 'G_bn': '', 'G_tt': 'now'}"
p411
F0.00054764512595837896
sS"{'G_ap': 'HOMESTEAD', 'G_dp': 'DOWNTOWN', 'G_bn': '61B', 'G_tt': '200'}"
p412
F0.00054764512595837896
sS"{'G_ap': 'MCKEESPORT', 'G_dp': 'DUQUESNE', 'G_bn': '', 'G_tt': '1800'}"
p413
F0.00054764512595837896
sS"{'G_ap': 'HIGHLAND AVENUE', 'G_dp': 'PENN AVENUE', 'G_bn': '', 'G_tt': '600'}"
p414
F0.00054764512595837896
sS"{'G_ap': 'HOMESTEAD', 'G_dp': 'DUQUESNE', 'G_bn': '', 'G_tt': '2200'}"
p415
F0.00054764512595837896
sS"{'G_ap': 'VERSAILLES', 'G_dp': 'OAKLAND', 'G_bn': '', 'G_tt': 'now'}"
p416
F0.00054764512595837896
sS"{'G_ap': 'SOUTH AND PENNWOOD', 'G_dp': 'TURTLE CREEK', 'G_bn': '', 'G_tt': '2200'}"
p417
F0.00054764512595837896
sS"{'G_ap': 'CENTURY THREE MALL', 'G_dp': 'BROWNSVILLE', 'G_bn': '', 'G_tt': '2100'}"
p418
F0.00054764512595837896
sS"{'G_ap': 'AIRPORT', 'G_dp': 'OAKLAND', 'G_bn': '', 'G_tt': '1200'}"
p419
F0.00054764512595837896
sS"{'G_ap': 'DOWNTOWN', 'G_dp': 'FIFTH', 'G_bn': '', 'G_tt': 'now'}"
p420
F0.0010952902519167579
sS"{'G_ap': 'HOMESTEAD', 'G_dp': 'DUQUESNE', 'G_bn': '', 'G_tt': 'now'}"
p421
F0.0010952902519167579
sS"{'G_ap': 'DOWNTOWN', 'G_dp': 'LEECHBURG AND SALTSBURG', 'G_bn': '', 'G_tt': 'now'}"
p422
F0.00054764512595837896
sS"{'G_ap': 'FIFTH', 'G_dp': 'FIFTH', 'G_bn': '', 'G_tt': '630'}"
p423
F0.00054764512595837896
sS"{'G_ap': 'WILKINSBURG', 'G_dp': 'ELM', 'G_bn': '', 'G_tt': 'now'}"
p424
F0.00054764512595837896
sS"{'G_ap': 'OAKLAND', 'G_dp': 'DOWNTOWN', 'G_bn': '', 'G_tt': '0'}"
p425
F0.0010952902519167579
sS"{'G_ap': 'BRADDOCK AVENUE', 'G_dp': 'WOOD STREET', 'G_bn': '71D', 'G_tt': '2230'}"
p426
F0.00054764512595837896
sS"{'G_ap': 'TURTLE CREEK', 'G_dp': 'TRAFFORD', 'G_bn': '', 'G_tt': 'now'}"
p427
F0.00054764512595837896
sS"{'G_ap': 'OAKLAND', 'G_dp': 'WILKINSBURG', 'G_bn': '', 'G_tt': '2200'}"
p428
F0.00054764512595837896
sS"{'G_ap': 'DOWNTOWN PITTSBURGH', 'G_dp': 'PITTSBURGH', 'G_bn': '', 'G_tt': '2130'}"
p429
F0.00054764512595837896
sS"{'G_ap': 'CARNEGIE', 'G_dp': 'CARNEGIE MELLON UNIVERSITY', 'G_bn': '', 'G_tt': '200'}"
p430
F0.00054764512595837896
sS"{'G_ap': 'WILKINSBURG', 'G_dp': 'TRAFFORD', 'G_bn': '', 'G_tt': '2100'}"
p431
F0.00054764512595837896
sS"{'G_ap': 'SOUTH', 'G_dp': 'WASHINGTON', 'G_bn': '', 'G_tt': 'now'}"
p432
F0.00054764512595837896
sS"{'G_ap': 'WILKINSBURG', 'G_dp': 'TRAFFORD', 'G_bn': '', 'G_tt': 'now'}"
p433
F0.00054764512595837896
sS"{'G_ap': 'EAST LIBERTY', 'G_dp': 'TURTLE CREEK', 'G_bn': '', 'G_tt': '630'}"
p434
F0.00054764512595837896
sS"{'G_ap': 'SOUTH HILLS JUNCTION', 'G_dp': 'CEDAR AND EAST OHIO STREET', 'G_bn': '', 'G_tt': 'now'}"
p435
F0.00054764512595837896
sS"{'G_ap': 'WEBSTER', 'G_dp': 'DOWNTOWN', 'G_bn': '', 'G_tt': 'now'}"
p436
F0.00054764512595837896
sS"{'G_ap': 'FRANKSTOWN', 'G_dp': 'PENN AVENUE', 'G_bn': '', 'G_tt': 'now'}"
p437
F0.00054764512595837896
sS"{'G_ap': 'DUQUESNE', 'G_dp': 'HOMESTEAD', 'G_bn': '', 'G_tt': 'now'}"
p438
F0.0016429353778751369
sS"{'G_ap': 'HILL', 'G_dp': 'PENN AVENUE AND HIGHLAND', 'G_bn': '71C', 'G_tt': 'now'}"
p439
F0.00054764512595837896
sS"{'G_ap': 'DOWNTOWN PITTSBURGH', 'G_dp': 'DUQUESNE', 'G_bn': '', 'G_tt': '1930'}"
p440
F0.00054764512595837896
sS"{'G_ap': 'DOWNTOWN PITTSBURGH', 'G_dp': 'DYNAMO', 'G_bn': '61A', 'G_tt': '500'}"
p441
F0.00054764512595837896
sS"{'G_ap': 'MONROEVILLE', 'G_dp': 'DOWNTOWN', 'G_bn': '', 'G_tt': '1030'}"
p442
F0.00054764512595837896
sS"{'G_ap': 'MCKEESPORT', 'G_dp': 'OAKLAND', 'G_bn': '', 'G_tt': '800'}"
p443
F0.00054764512595837896
sS"{'G_ap': 'MCKEESPORT', 'G_dp': 'DOWNTOWN PITTSBURGH', 'G_bn': '', 'G_tt': '2200'}"
p444
F0.00054764512595837896
sS"{'G_ap': 'MCKEESPORT', 'G_dp': 'SECOND AND GRANT', 'G_bn': '', 'G_tt': 'now'}"
p445
F0.00054764512595837896
sS"{'G_ap': 'DUQUESNE', 'G_dp': 'OAKLAND', 'G_bn': '', 'G_tt': 'now'}"
p446
F0.0027382256297918948
sS"{'G_ap': 'DOWNTOWN PITTSBURGH', 'G_dp': 'BRIGHTON', 'G_bn': '', 'G_tt': 'now'}"
p447
F0.00054764512595837896
sS"{'G_ap': 'DOWNTOWN', 'G_dp': 'NORTH BRADDOCK', 'G_bn': '', 'G_tt': 'now'}"
p448
F0.0032858707557502738
sS"{'G_ap': 'FRANKSTOWN', 'G_dp': 'EAST PITTSBURGH', 'G_bn': '', 'G_tt': 'now'}"
p449
F0.00054764512595837896
sS"{'G_ap': 'FORBES AND MURRAY', 'G_dp': 'DOWNTOWN', 'G_bn': '', 'G_tt': 'now'}"
p450
F0.0010952902519167579
sS"{'G_ap': 'OAKLAND', 'G_dp': 'HAMILTON AVENUE', 'G_bn': '', 'G_tt': 'now'}"
p451
F0.00054764512595837896
sS"{'G_ap': 'SAINT CLAIR', 'G_dp': 'MOUNT OLIVER', 'G_bn': '', 'G_tt': 'now'}"
p452
F0.00054764512595837896
sS"{'G_ap': 'OAKLAND', 'G_dp': 'TURTLE CREEK', 'G_bn': '', 'G_tt': '0'}"
p453
F0.00054764512595837896
sS"{'G_ap': 'OAKLAND', 'G_dp': 'HOMESTEAD', 'G_bn': '', 'G_tt': '800'}"
p454
F0.00054764512595837896
sS"{'G_ap': 'CENTER', 'G_dp': 'MCKEESPORT', 'G_bn': '', 'G_tt': '600'}"
p455
F0.00054764512595837896
sS"{'G_ap': 'CENTURY THREE MALL', 'G_dp': 'WALL', 'G_bn': '', 'G_tt': '830'}"
p456
F0.00054764512595837896
sS"{'G_ap': 'STRIP DISTRICT', 'G_dp': 'AMANDA AT CHARLES', 'G_bn': '', 'G_tt': 'now'}"
p457
F0.00054764512595837896
sS"{'G_ap': 'OAKLAND', 'G_dp': 'MOUNT OLIVER', 'G_bn': '', 'G_tt': 'now'}"
p458
F0.00054764512595837896
sS"{'G_ap': 'BON AIR', 'G_dp': 'WALL', 'G_bn': '', 'G_tt': '2000'}"
p459
F0.00054764512595837896
sS"{'G_ap': 'MAIN', 'G_dp': 'MALL', 'G_bn': '', 'G_tt': '400'}"
p460
F0.00054764512595837896
sS"{'G_ap': 'WILKINSBURG', 'G_dp': 'DOWNTOWN', 'G_bn': '', 'G_tt': '700'}"
p461
F0.00054764512595837896
sS"{'G_ap': 'SOUTH SIDE', 'G_dp': 'BELL', 'G_bn': '', 'G_tt': 'now'}"
p462
F0.00054764512595837896
sS"{'G_ap': 'WALL', 'G_dp': 'OAKLAND', 'G_bn': '', 'G_tt': '700'}"
p463
F0.00054764512595837896
sS"{'G_ap': 'DOWNTOWN', 'G_dp': 'THE BUSWAY', 'G_bn': '', 'G_tt': 'now'}"
p464
F0.00054764512595837896
sS"{'G_ap': 'UPTOWN', 'G_dp': 'DOWNTOWN PITTSBURGH', 'G_bn': '', 'G_tt': 'now'}"
p465
F0.00054764512595837896
sS"{'G_ap': 'OAKLAND', 'G_dp': 'BLOOMFIELD', 'G_bn': '', 'G_tt': '630'}"
p466
F0.00054764512595837896
sS"{'G_ap': 'OAKLAND', 'G_dp': 'MCKEESPORT', 'G_bn': '61C', 'G_tt': '2300'}"
p467
F0.00054764512595837896
sS"{'G_ap': 'SOUTH', 'G_dp': 'DOWNTOWN PITTSBURGH', 'G_bn': '', 'G_tt': '2130'}"
p468
F0.00054764512595837896
sS"{'G_ap': 'PITTSBURGH', 'G_dp': 'CENTER', 'G_bn': '', 'G_tt': '2100'}"
p469
F0.00054764512595837896
sS"{'G_ap': 'OAKLAND', 'G_dp': 'SOUTH HILLS JUNCTION', 'G_bn': '54C', 'G_tt': 'now'}"
p470
F0.00054764512595837896
sS"{'G_ap': 'DOWNTOWN', 'G_dp': 'BELLEVUE', 'G_bn': '', 'G_tt': 'now'}"
p471
F0.0016429353778751369
sS"{'G_ap': 'AIRPORT', 'G_dp': 'OAKLAND', 'G_bn': '', 'G_tt': '600'}"
p472
F0.00054764512595837896
sS"{'G_ap': 'FOX CHAPEL', 'G_dp': 'BUTLER STREET', 'G_bn': '', 'G_tt': 'now'}"
p473
F0.00054764512595837896
sS"{'G_ap': 'DOWNTOWN', 'G_dp': 'AIRPORT', 'G_bn': '', 'G_tt': '800'}"
p474
F0.00054764512595837896
sS"{'G_ap': 'MONROEVILLE', 'G_dp': 'NORTH', 'G_bn': '', 'G_tt': '530'}"
p475
F0.00054764512595837896
sS"{'G_ap': 'DOWNTOWN PITTSBURGH', 'G_dp': 'RANKIN', 'G_bn': '', 'G_tt': '2100'}"
p476
F0.00054764512595837896
sS"{'G_ap': 'DOWNTOWN', 'G_dp': 'MILLVALE', 'G_bn': '', 'G_tt': 'now'}"
p477
F0.00054764512595837896
sS"{'G_ap': 'DOWNTOWN', 'G_dp': 'NORTH SIDE', 'G_bn': '', 'G_tt': 'now'}"
p478
F0.00054764512595837896
sS"{'G_ap': 'HERRON', 'G_dp': 'EAST BUSWAY', 'G_bn': '', 'G_tt': 'now'}"
p479
F0.00054764512595837896
sS"{'G_ap': 'DOWNTOWN PITTSBURGH', 'G_dp': 'SOUTH', 'G_bn': '', 'G_tt': 'now'}"
p480
F0.00054764512595837896
sS"{'G_ap': 'MCKEESPORT', 'G_dp': 'TURTLE CREEK', 'G_bn': '', 'G_tt': '2300'}"
p481
F0.00054764512595837896
sS"{'G_ap': 'DOWNTOWN PITTSBURGH', 'G_dp': 'ROBINSON', 'G_bn': '', 'G_tt': 'now'}"
p482
F0.00054764512595837896
sS"{'G_ap': 'DUQUESNE', 'G_dp': 'SQUIRREL HILL', 'G_bn': '', 'G_tt': 'now'}"
p483
F0.0010952902519167579
sS"{'G_ap': 'BROWNSVILLE', 'G_dp': 'CENTURY THREE MALL', 'G_bn': '', 'G_tt': '900'}"
p484
F0.00054764512595837896
sS"{'G_ap': 'HOMEWOOD AVENUE', 'G_dp': 'NEGLEY AVENUE', 'G_bn': '', 'G_tt': '2300'}"
p485
F0.00054764512595837896
sS"{'G_ap': 'LINCOLN AVENUE', 'G_dp': 'EAST LIBERTY', 'G_bn': '', 'G_tt': '2100'}"
p486
F0.00054764512595837896
sS"{'G_ap': 'BELL', 'G_dp': 'SWISSVALE', 'G_bn': '', 'G_tt': 'now'}"
p487
F0.00054764512595837896
sS"{'G_ap': 'SOUTH SIDE', 'G_dp': 'SQUIRREL HILL', 'G_bn': '', 'G_tt': '2030'}"
p488
F0.00054764512595837896
sS"{'G_ap': 'OAKLAND', 'G_dp': 'ANN AND EIGHTH', 'G_bn': '', 'G_tt': 'now'}"
p489
F0.00054764512595837896
sS"{'G_ap': 'MCKEE', 'G_dp': 'UPTOWN', 'G_bn': '', 'G_tt': '2200'}"
p490
F0.00054764512595837896
sS"{'G_ap': 'CRAFTON', 'G_dp': 'DOWNTOWN', 'G_bn': '', 'G_tt': 'now'}"
p491
F0.00054764512595837896
sS"{'G_ap': 'PITTSBURGH', 'G_dp': 'CENTURY THREE MALL', 'G_bn': '', 'G_tt': 'now'}"
p492
F0.00054764512595837896
sS"{'G_ap': 'DOWNTOWN', 'G_dp': 'COAL', 'G_bn': '', 'G_tt': '1930'}"
p493
F0.00054764512595837896
sS"{'G_ap': 'DOWNTOWN', 'G_dp': 'EIGHTH', 'G_bn': '', 'G_tt': 'now'}"
p494
F0.00054764512595837896
sS"{'G_ap': 'EAST CARSON STREET', 'G_dp': 'LIBERTY AVENUE', 'G_bn': '', 'G_tt': 'now'}"
p495
F0.00054764512595837896
sS"{'G_ap': 'WATERWORKS MALL', 'G_dp': 'BELLEVUE', 'G_bn': '', 'G_tt': '2030'}"
p496
F0.00054764512595837896
sS"{'G_ap': 'EAST PITTSBURGH', 'G_dp': 'NORTH BRADDOCK', 'G_bn': '', 'G_tt': 'now'}"
p497
F0.0027382256297918948
sS"{'G_ap': 'OAKLAND', 'G_dp': 'EIGHTEENTH AND ARLINGTON AVENUE', 'G_bn': '', 'G_tt': 'now'}"
p498
F0.00054764512595837896
sS"{'G_ap': 'OAKLAND', 'G_dp': 'PENN AND MAIN', 'G_bn': '', 'G_tt': 'now'}"
p499
F0.00054764512595837896
sS"{'G_ap': 'PITTSBURGH', 'G_dp': 'EAST', 'G_bn': '', 'G_tt': '700'}"
p500
F0.00054764512595837896
sS"{'G_ap': 'DOWNTOWN', 'G_dp': 'MILLVALE', 'G_bn': '', 'G_tt': '2130'}"
p501
F0.00054764512595837896
sS"{'G_ap': 'NORTH SIDE', 'G_dp': 'BELLEVUE', 'G_bn': '', 'G_tt': 'now'}"
p502
F0.00054764512595837896
sS"{'G_ap': 'MILLVALE', 'G_dp': 'TALBOT', 'G_bn': '', 'G_tt': '800'}"
p503
F0.00054764512595837896
sS"{'G_ap': 'FORBES', 'G_dp': 'MAIN AND GRACE', 'G_bn': '', 'G_tt': 'now'}"
p504
F0.00054764512595837896
sS"{'G_ap': 'WOOD STREET', 'G_dp': 'WILKINSBURG STATION', 'G_bn': '', 'G_tt': '2000'}"
p505
F0.00054764512595837896
sS"{'G_ap': 'LINCOLN HIGHWAY', 'G_dp': 'DOWNTOWN', 'G_bn': '', 'G_tt': '1700'}"
p506
F0.00054764512595837896
sS"{'G_ap': 'CARNEGIE', 'G_dp': 'OAKLAND', 'G_bn': '', 'G_tt': '2200'}"
p507
F0.00054764512595837896
sS"{'G_ap': 'SEVENTH', 'G_dp': 'DOWNTOWN', 'G_bn': '', 'G_tt': '700'}"
p508
F0.00054764512595837896
sS"{'G_ap': 'DUQUESNE', 'G_dp': 'MCKEESPORT', 'G_bn': '', 'G_tt': 'now'}"
p509
F0.0043811610076670317
sS"{'G_ap': 'DOWNTOWN PITTSBURGH', 'G_dp': 'MCKEESPORT', 'G_bn': '', 'G_tt': 'now'}"
p510
F0.0032858707557502738
sS"{'G_ap': 'DOWNTOWN', 'G_dp': 'HOMESTEAD', 'G_bn': '', 'G_tt': 'now'}"
p511
F0.0043811610076670317
sS"{'G_ap': 'BLOOMFIELD', 'G_dp': 'EAST LIBERTY', 'G_bn': '', 'G_tt': 'now'}"
p512
F0.00054764512595837896
sS"{'G_ap': 'SOUTH SIDE', 'G_dp': 'BLOOMFIELD', 'G_bn': '', 'G_tt': '1900'}"
p513
F0.00054764512595837896
sS"{'G_ap': 'HOMESTEAD', 'G_dp': 'MURRAY', 'G_bn': '61C', 'G_tt': 'now'}"
p514
F0.00054764512595837896
sS"{'G_ap': 'DOWNTOWN', 'G_dp': 'DUQUESNE', 'G_bn': '61C', 'G_tt': 'now'}"
p515
F0.00054764512595837896
sS"{'G_ap': 'WEST', 'G_dp': 'EAST', 'G_bn': '', 'G_tt': '1800'}"
p516
F0.00054764512595837896
sS"{'G_ap': 'SHERADEN', 'G_dp': 'HILL', 'G_bn': '', 'G_tt': 'now'}"
p517
F0.00054764512595837896
sS"{'G_ap': 'DUQUESNE', 'G_dp': 'MCKEESPORT', 'G_bn': '61C', 'G_tt': 'now'}"
p518
F0.0010952902519167579
sS"{'G_ap': 'MCKEESPORT', 'G_dp': 'VERSAILLES', 'G_bn': '', 'G_tt': '600'}"
p519
F0.00054764512595837896
sS"{'G_ap': 'MURRAY AND HAZELWOOD', 'G_dp': 'FORBES AND MURRAY', 'G_bn': '', 'G_tt': '1100'}"
p520
F0.00054764512595837896
sS"{'G_ap': 'MCKEESPORT', 'G_dp': 'DOWNTOWN', 'G_bn': '', 'G_tt': '1700'}"
p521
F0.00054764512595837896
sS"{'G_ap': 'DOWNTOWN', 'G_dp': 'LAWRENCEVILLE', 'G_bn': '', 'G_tt': '2000'}"
p522
F0.00054764512595837896
sS"{'G_ap': 'RANKIN', 'G_dp': 'HOMESTEAD', 'G_bn': '', 'G_tt': 'now'}"
p523
F0.00054764512595837896
sS"{'G_ap': 'LAWRENCEVILLE', 'G_dp': 'THE WATERFRONT', 'G_bn': '', 'G_tt': 'now'}"
p524
F0.00054764512595837896
sS"{'G_ap': 'SWISSVALE', 'G_dp': 'OAKLAND', 'G_bn': '', 'G_tt': '2000'}"
p525
F0.00054764512595837896
sS"{'G_ap': 'BRIGHTON', 'G_dp': 'AIRPORT', 'G_bn': '', 'G_tt': 'now'}"
p526
F0.00054764512595837896
sS"{'G_ap': 'PITTSBURGH', 'G_dp': 'ALLEGHENY', 'G_bn': '', 'G_tt': '800'}"
p527
F0.00054764512595837896
sS"{'G_ap': 'THIRTY NINTH', 'G_dp': 'ALLEGHENY CENTER MALL', 'G_bn': '', 'G_tt': '2000'}"
p528
F0.00054764512595837896
sS"{'G_ap': 'SHADYSIDE', 'G_dp': 'MURRAY AVENUE', 'G_bn': '', 'G_tt': 'now'}"
p529
F0.00054764512595837896
sS"{'G_ap': 'MILLVALE', 'G_dp': 'DOWNTOWN', 'G_bn': '', 'G_tt': '2335'}"
p530
F0.00054764512595837896
sS"{'G_ap': 'NEGLEY', 'G_dp': 'NEGLEY', 'G_bn': '', 'G_tt': 'now'}"
p531
F0.00054764512595837896
sS"{'G_ap': 'EAST PITTSBURGH', 'G_dp': 'CRAFT', 'G_bn': '', 'G_tt': '700'}"
p532
F0.00054764512595837896
sS"{'G_ap': 'OAKLAND', 'G_dp': 'SWISSVALE STATION', 'G_bn': '', 'G_tt': '630'}"
p533
F0.00054764512595837896
sS"{'G_ap': 'HAWKINS AVENUE', 'G_dp': 'WALL', 'G_bn': '', 'G_tt': 'now'}"
p534
F0.00054764512595837896
sS"{'G_ap': 'PITTSBURGH', 'G_dp': 'MCKEESPORT', 'G_bn': '61C', 'G_tt': '0'}"
p535
F0.00054764512595837896
sS"{'G_ap': 'FORBES', 'G_dp': 'FIFTH AND SHADY', 'G_bn': '', 'G_tt': '2100'}"
p536
F0.00054764512595837896
sS"{'G_ap': 'OAKLAND', 'G_dp': 'HAMILTON', 'G_bn': '71D', 'G_tt': 'now'}"
p537
F0.00054764512595837896
sS"{'G_ap': 'GRANT STREET', 'G_dp': 'DOWNTOWN', 'G_bn': '', 'G_tt': '100'}"
p538
F0.00054764512595837896
sS"{'G_ap': 'HERRON', 'G_dp': 'OAK HILL', 'G_bn': '', 'G_tt': 'now'}"
p539
F0.00054764512595837896
sS"{'G_ap': 'MCKEE', 'G_dp': 'FOURTH AVENUE', 'G_bn': '', 'G_tt': '1930'}"
p540
F0.00054764512595837896
sS"{'G_ap': 'PITTSBURGH', 'G_dp': 'WILKINSBURG', 'G_bn': '', 'G_tt': 'now'}"
p541
F0.00054764512595837896
sS"{'G_ap': 'MCKEESPORT', 'G_dp': 'KENNYWOOD', 'G_bn': '61C', 'G_tt': 'now'}"
p542
F0.00054764512595837896
sS"{'G_ap': 'FRANKSTOWN', 'G_dp': 'WILKINSBURG STATION', 'G_bn': '', 'G_tt': '1000'}"
p543
F0.00054764512595837896
sS"{'G_ap': 'THE AIRPORT', 'G_dp': 'BLOOMFIELD', 'G_bn': '', 'G_tt': 'now'}"
p544
F0.00054764512595837896
sS"{'G_ap': 'HAMILTON AVENUE', 'G_dp': 'OAKLAND', 'G_bn': '', 'G_tt': 'now'}"
p545
F0.00054764512595837896
sS"{'G_ap': 'MCKEE', 'G_dp': 'OAKLAND', 'G_bn': '', 'G_tt': 'now'}"
p546
F0.00054764512595837896
sS"{'G_ap': 'WILKINSBURG', 'G_dp': 'DOWNTOWN PITTSBURGH', 'G_bn': '', 'G_tt': '630'}"
p547
F0.00054764512595837896
sS"{'G_ap': 'DOWNTOWN', 'G_dp': 'LINCOLN HIGHWAY', 'G_bn': '', 'G_tt': 'now'}"
p548
F0.00054764512595837896
sS"{'G_ap': 'BRADDOCK', 'G_dp': 'DOWNTOWN', 'G_bn': '', 'G_tt': '0'}"
p549
F0.00054764512595837896
sS"{'G_ap': 'TRAFFORD', 'G_dp': 'EAST PITTSBURGH', 'G_bn': '', 'G_tt': 'now'}"
p550
F0.0010952902519167579
sS"{'G_ap': 'OAKLAND', 'G_dp': 'WEST PENN HOSPITAL', 'G_bn': '86', 'G_tt': '2030'}"
p551
F0.00054764512595837896
sS"{'G_ap': 'DOWNTOWN PITTSBURGH', 'G_dp': 'HOMESTEAD', 'G_bn': '', 'G_tt': 'now'}"
p552
F0.0010952902519167579
sS"{'G_ap': 'MALL', 'G_dp': 'FOREST HILLS', 'G_bn': '', 'G_tt': '1900'}"
p553
F0.00054764512595837896
sS"{'G_ap': 'DOWNTOWN', 'G_dp': 'WILKINSBURG', 'G_bn': '', 'G_tt': 'now'}"
p554
F0.0032858707557502738
sS"{'G_ap': 'OAKLAND', 'G_dp': 'TWENTIETH AT EAST CARSON', 'G_bn': '', 'G_tt': 'now'}"
p555
F0.00054764512595837896
sS"{'G_ap': 'STRIP', 'G_dp': 'SOUTH HILLS JUNCTION', 'G_bn': '', 'G_tt': 'now'}"
p556
F0.00054764512595837896
sS"{'G_ap': 'SQUIRREL HILL', 'G_dp': 'SHADYSIDE', 'G_bn': '', 'G_tt': 'now'}"
p557
F0.00054764512595837896
sS"{'G_ap': 'BRADDOCK', 'G_dp': 'OAKLAND', 'G_bn': '', 'G_tt': '2000'}"
p558
F0.00054764512595837896
sS"{'G_ap': 'WALL', 'G_dp': 'STATION', 'G_bn': '', 'G_tt': 'now'}"
p559
F0.00054764512595837896
sS"{'G_ap': 'SOUTH HILLS JUNCTION', 'G_dp': 'WEST PENN HOSPITAL', 'G_bn': '', 'G_tt': 'now'}"
p560
F0.0016429353778751369
sS"{'G_ap': 'SWISSVALE', 'G_dp': 'DOWNTOWN', 'G_bn': '61B', 'G_tt': 'now'}"
p561
F0.00054764512595837896
sS"{'G_ap': 'NEGLEY AVENUE', 'G_dp': 'MURRAY AVENUE AND FLEMINGTON STREET', 'G_bn': '', 'G_tt': 'now'}"
p562
F0.00054764512595837896
sS"{'G_ap': 'MCKEESPORT', 'G_dp': 'DOWNTOWN', 'G_bn': '', 'G_tt': '2000'}"
p563
F0.0016429353778751369
sS"{'G_ap': 'UPTOWN', 'G_dp': 'MONROEVILLE', 'G_bn': '', 'G_tt': '615'}"
p564
F0.00054764512595837896
sS"{'G_ap': 'DOWNTOWN', 'G_dp': 'TEXAS', 'G_bn': '', 'G_tt': '630'}"
p565
F0.00054764512595837896
sS"{'G_ap': 'FOREST HILLS', 'G_dp': 'DOWNTOWN', 'G_bn': '', 'G_tt': '2000'}"
p566
F0.00054764512595837896
sS"{'G_ap': 'DOWNTOWN PITTSBURGH', 'G_dp': 'CMU', 'G_bn': '', 'G_tt': '500'}"
p567
F0.00054764512595837896
sS"{'G_ap': 'DOWNTOWN', 'G_dp': 'MONROEVILLE', 'G_bn': '', 'G_tt': '2100'}"
p568
F0.00054764512595837896
sS"{'G_ap': 'SQUIRREL HILL', 'G_dp': 'WILKINSBURG', 'G_bn': '', 'G_tt': '2030'}"
p569
F0.00054764512595837896
sS"{'G_ap': 'OAKLAND', 'G_dp': 'EAST LIBERTY', 'G_bn': '71D', 'G_tt': 'now'}"
p570
F0.00054764512595837896
sS"{'G_ap': 'DOWNTOWN PITTSBURGH', 'G_dp': 'CARNEGIE', 'G_bn': '', 'G_tt': '600'}"
p571
F0.00054764512595837896
sS"{'G_ap': 'DOWNTOWN PITTSBURGH', 'G_dp': 'BUTLER STREET', 'G_bn': '', 'G_tt': '500'}"
p572
F0.00054764512595837896
sS"{'G_ap': 'PITTSBURGH', 'G_dp': 'MCKEESPORT TRANSPORTATION CENTER', 'G_bn': '', 'G_tt': 'now'}"
p573
F0.00054764512595837896
sS"{'G_ap': 'BUTLER STREET', 'G_dp': 'MURRAY AVENUE', 'G_bn': '', 'G_tt': '15'}"
p574
F0.00054764512595837896
sS"{'G_ap': 'STRIP DISTRICT', 'G_dp': 'OAKLAND', 'G_bn': '', 'G_tt': '2100'}"
p575
F0.00054764512595837896
sS'{\'G_ap\': \'DOWNTOWN PITTSBURGH\', \'G_dp\': "CHILDREN\'S HOSPITAL", \'G_bn\': \'\', \'G_tt\': \'2330\'}'
p576
F0.00054764512595837896
sS"{'G_ap': 'AIRPORT', 'G_dp': 'FIFTH AND CRAIG', 'G_bn': '', 'G_tt': '930'}"
p577
F0.00054764512595837896
sS"{'G_ap': 'DOWNTOWN', 'G_dp': 'LIBERTY AVENUE', 'G_bn': '', 'G_tt': '530'}"
p578
F0.00054764512595837896
sS"{'G_ap': 'WILKINSBURG', 'G_dp': 'OAK HILL', 'G_bn': '', 'G_tt': 'now'}"
p579
F0.00054764512595837896
sS"{'G_ap': 'DOWNTOWN PITTSBURGH', 'G_dp': 'BLOOMFIELD', 'G_bn': '', 'G_tt': '1745'}"
p580
F0.00054764512595837896
sS"{'G_ap': 'DUQUESNE', 'G_dp': 'DOWNTOWN PITTSBURGH', 'G_bn': '', 'G_tt': 'now'}"
p581
F0.00054764512595837896
sS"{'G_ap': 'CENTER', 'G_dp': 'FRANKSTOWN', 'G_bn': '', 'G_tt': 'now'}"
p582
F0.00054764512595837896
sS"{'G_ap': 'PENN AT NEGLEY', 'G_dp': 'PARK PLAZA AT CRAIG', 'G_bn': '', 'G_tt': '1700'}"
p583
F0.00054764512595837896
sS"{'G_ap': 'HOMESTEAD', 'G_dp': 'DOWNTOWN', 'G_bn': '', 'G_tt': '100'}"
p584
F0.00054764512595837896
sS"{'G_ap': 'HOMESTEAD', 'G_dp': 'OAKLAND', 'G_bn': '61C', 'G_tt': 'now'}"
p585
F0.0010952902519167579
sS"{'G_ap': 'SWISSVALE', 'G_dp': 'FIFTH AND BIGELOW', 'G_bn': '', 'G_tt': '1930'}"
p586
F0.00054764512595837896
sS'{\'G_ap\': "CHILDREN\'S HOSPITAL", \'G_dp\': \'HIGHLAND\', \'G_bn\': \'\', \'G_tt\': \'1700\'}'
p587
F0.00054764512595837896
sS"{'G_ap': 'HILL AVENUE', 'G_dp': 'PRIDE AT FIFTH AVENUE', 'G_bn': '', 'G_tt': 'now'}"
p588
F0.00054764512595837896
sS"{'G_ap': 'ROSEDALE', 'G_dp': 'DOWNTOWN', 'G_bn': '', 'G_tt': 'now'}"
p589
F0.00054764512595837896
sS"{'G_ap': 'LAWRENCEVILLE', 'G_dp': 'THE WATERFRONT', 'G_bn': '64', 'G_tt': 'now'}"
p590
F0.00054764512595837896
sS"{'G_ap': 'EAST HILLS', 'G_dp': 'SWISSVALE', 'G_bn': '', 'G_tt': 'now'}"
p591
F0.00054764512595837896
sS"{'G_ap': 'HOMESTEAD', 'G_dp': 'DOWNTOWN PITTSBURGH', 'G_bn': '', 'G_tt': 'now'}"
p592
F0.00054764512595837896
sS"{'G_ap': 'DOWNTOWN PITTSBURGH', 'G_dp': 'MCKEESPORT', 'G_bn': '', 'G_tt': '0'}"
p593
F0.00054764512595837896
sS"{'G_ap': 'PITTSBURGH', 'G_dp': 'NEVILLE', 'G_bn': '', 'G_tt': 'now'}"
p594
F0.00054764512595837896
sS"{'G_ap': 'MOUNT OLIVER', 'G_dp': 'DOWNTOWN', 'G_bn': '', 'G_tt': 'now'}"
p595
F0.0016429353778751369
sS"{'G_ap': 'OAKLAND', 'G_dp': 'MARYLAND AVENUE', 'G_bn': '', 'G_tt': '2130'}"
p596
F0.00054764512595837896
sS"{'G_ap': 'THE WATERFRONT', 'G_dp': 'BLOOMFIELD', 'G_bn': '64', 'G_tt': 'now'}"
p597
F0.00054764512595837896
sS"{'G_ap': 'PLUM', 'G_dp': 'EAST LIBERTY', 'G_bn': '', 'G_tt': 'now'}"
p598
F0.00054764512595837896
sS"{'G_ap': 'SQUIRREL HILL', 'G_dp': 'DOWNTOWN', 'G_bn': '61C', 'G_tt': 'now'}"
p599
F0.00054764512595837896
sS"{'G_ap': 'FORBES', 'G_dp': 'CARNEGIE MELLON UNIVERSITY', 'G_bn': '', 'G_tt': 'now'}"
p600
F0.00054764512595837896
sS"{'G_ap': 'VERSAILLES', 'G_dp': 'HOMESTEAD', 'G_bn': '', 'G_tt': '2100'}"
p601
F0.00054764512595837896
sS"{'G_ap': 'MCKEESPORT', 'G_dp': 'DUQUESNE', 'G_bn': '', 'G_tt': '2130'}"
p602
F0.00054764512595837896
sS"{'G_ap': 'BUS STATION', 'G_dp': 'TURTLE CREEK', 'G_bn': '', 'G_tt': 'now'}"
p603
F0.00054764512595837896
sS"{'G_ap': 'HIGHLAND PARK', 'G_dp': 'OAKLAND', 'G_bn': '', 'G_tt': '600'}"
p604
F0.00054764512595837896
sS"{'G_ap': 'OAKLAND', 'G_dp': 'MURRAY', 'G_bn': '', 'G_tt': '2315'}"
p605
F0.00054764512595837896
sS"{'G_ap': 'SHERADEN', 'G_dp': 'ATWOOD', 'G_bn': '', 'G_tt': '2300'}"
p606
F0.00054764512595837896
sS"{'G_ap': 'HIGHLAND PARK', 'G_dp': 'HIGHLAND AVENUE', 'G_bn': '', 'G_tt': 'now'}"
p607
F0.00054764512595837896
sS"{'G_ap': 'OAKLAND', 'G_dp': 'CARSON', 'G_bn': '', 'G_tt': 'now'}"
p608
F0.00054764512595837896
sS"{'G_ap': 'ARDMORE AND BRYN MAWR', 'G_dp': 'FOURTH AND STANWIX', 'G_bn': '', 'G_tt': '2100'}"
p609
F0.00054764512595837896
sS"{'G_ap': 'BROOKLINE', 'G_dp': 'OAKLAND', 'G_bn': '', 'G_tt': '2100'}"
p610
F0.00054764512595837896
sS"{'G_ap': 'CARSON', 'G_dp': 'MCKEESPORT', 'G_bn': '', 'G_tt': '1700'}"
p611
F0.00054764512595837896
sS"{'G_ap': 'TENTH', 'G_dp': 'MONROEVILLE MALL', 'G_bn': '', 'G_tt': 'now'}"
p612
F0.00054764512595837896
sS"{'G_ap': 'SQUIRREL HILL', 'G_dp': 'HILL', 'G_bn': '', 'G_tt': 'now'}"
p613
F0.00054764512595837896
sS"{'G_ap': 'WILKINSBURG', 'G_dp': 'MALL', 'G_bn': '67', 'G_tt': 'now'}"
p614
F0.00054764512595837896
sS"{'G_ap': 'OAKLAND', 'G_dp': 'DUQUESNE', 'G_bn': '', 'G_tt': 'now'}"
p615
F0.0010952902519167579
sS"{'G_ap': 'CARNEGIE', 'G_dp': 'PITTSBURGH INTERNATIONAL AIRPORT', 'G_bn': '', 'G_tt': '700'}"
p616
F0.00054764512595837896
sS"{'G_ap': 'HILL', 'G_dp': 'DOWNTOWN', 'G_bn': '', 'G_tt': '1800'}"
p617
F0.00054764512595837896
sS"{'G_ap': 'PLUM', 'G_dp': 'EIGHTH AVENUE', 'G_bn': '', 'G_tt': '200'}"
p618
F0.00054764512595837896
sS"{'G_ap': 'PITTSBURGH', 'G_dp': 'PINE AVENUE', 'G_bn': '', 'G_tt': '800'}"
p619
F0.00054764512595837896
sS"{'G_ap': 'FORBES', 'G_dp': 'SWISSVALE', 'G_bn': '', 'G_tt': 'now'}"
p620
F0.00054764512595837896
sS"{'G_ap': 'MONROEVILLE', 'G_dp': 'WILKINSBURG', 'G_bn': '', 'G_tt': '630'}"
p621
F0.00054764512595837896
sS"{'G_ap': 'PITTSBURGH AIRPORT', 'G_dp': 'DOWNTOWN', 'G_bn': '', 'G_tt': '400'}"
p622
F0.00054764512595837896
sS"{'G_ap': 'WEST PENN HOSPITAL', 'G_dp': 'SOUTH HILLS JUNCTION', 'G_bn': '', 'G_tt': 'now'}"
p623
F0.0016429353778751369
sS"{'G_ap': 'OAKLAND', 'G_dp': 'DOWNTOWN', 'G_bn': '', 'G_tt': 'now'}"
p624
F0.0038335158817086527
sS"{'G_ap': 'VERSAILLES', 'G_dp': 'THE SOUTH SIDE', 'G_bn': '', 'G_tt': 'now'}"
p625
F0.00054764512595837896
sS"{'G_ap': 'WILKINSBURG', 'G_dp': 'FIFTH', 'G_bn': '', 'G_tt': 'now'}"
p626
F0.00054764512595837896
sS"{'G_ap': 'SOUTH SIDE', 'G_dp': 'SOUTH HILLS JUNCTION', 'G_bn': '', 'G_tt': 'now'}"
p627
F0.0010952902519167579
sS"{'G_ap': 'PITTSBURGH', 'G_dp': 'BELLEVUE', 'G_bn': '', 'G_tt': '730'}"
p628
F0.00054764512595837896
sS"{'G_ap': 'AIRPORT', 'G_dp': 'DOWNTOWN PITTSBURGH', 'G_bn': '', 'G_tt': '2300'}"
p629
F0.00054764512595837896
sS"{'G_ap': 'DOWNTOWN', 'G_dp': 'EAST OHIO STREET', 'G_bn': '', 'G_tt': '815'}"
p630
F0.00054764512595837896
sS"{'G_ap': 'DOWNTOWN', 'G_dp': 'HOMESTEAD', 'G_bn': '', 'G_tt': '2300'}"
p631
F0.00054764512595837896
sS"{'G_ap': 'DOWNTOWN PITTSBURGH', 'G_dp': 'BROADWAY AND CENTER', 'G_bn': '', 'G_tt': '2100'}"
p632
F0.00054764512595837896
sS"{'G_ap': 'STATION STREET', 'G_dp': 'ROSS STREET', 'G_bn': '', 'G_tt': '800'}"
p633
F0.00054764512595837896
sS"{'G_ap': 'SOUTH SIDE', 'G_dp': 'FIFTH AND BIGELOW', 'G_bn': '', 'G_tt': '1945'}"
p634
F0.00054764512595837896
sS"{'G_ap': 'DOWNTOWN', 'G_dp': 'ROBINSON', 'G_bn': '', 'G_tt': '1930'}"
p635
F0.00054764512595837896
sS"{'G_ap': 'MCKEESPORT', 'G_dp': 'SIXTH STREET', 'G_bn': '', 'G_tt': 'now'}"
p636
F0.00054764512595837896
sS"{'G_ap': 'CARNEGIE', 'G_dp': 'OAKLAND', 'G_bn': 'G', 'G_tt': '2200'}"
p637
F0.00054764512595837896
sS"{'G_ap': 'AIRPORT', 'G_dp': 'DOWNTOWN', 'G_bn': '', 'G_tt': '520'}"
p638
F0.00054764512595837896
sS"{'G_ap': 'LEBANON', 'G_dp': 'OAKLAND', 'G_bn': '', 'G_tt': 'now'}"
p639
F0.00054764512595837896
sS"{'G_ap': 'PITTSBURGH', 'G_dp': 'CARNEGIE', 'G_bn': '', 'G_tt': 'now'}"
p640
F0.00054764512595837896
sS"{'G_ap': 'AIKEN', 'G_dp': 'MONROEVILLE', 'G_bn': '', 'G_tt': '700'}"
p641
F0.00054764512595837896
sS"{'G_ap': 'EAST HILLS', 'G_dp': 'FIFTH AT MAGEE', 'G_bn': '', 'G_tt': 'now'}"
p642
F0.00054764512595837896
sS"{'G_ap': 'SWISSVALE', 'G_dp': 'LILAC', 'G_bn': '', 'G_tt': 'now'}"
p643
F0.00054764512595837896
sS"{'G_ap': 'POLISH HILL', 'G_dp': 'SHADYSIDE', 'G_bn': '', 'G_tt': 'now'}"
p644
F0.00054764512595837896
sS"{'G_ap': 'DOWNTOWN PITTSBURGH', 'G_dp': 'MILL AT FRANKLIN', 'G_bn': '', 'G_tt': '2230'}"
p645
F0.00054764512595837896
sS"{'G_ap': 'FRANKSTOWN AT LINCOLN', 'G_dp': 'BESSEMER', 'G_bn': '', 'G_tt': '500'}"
p646
F0.00054764512595837896
sS"{'G_ap': 'DOWNTOWN', 'G_dp': 'BRADDOCK AVENUE', 'G_bn': '', 'G_tt': '600'}"
p647
F0.00054764512595837896
sS"{'G_ap': 'SOUTH', 'G_dp': 'BELTZHOOVER AVENUE AND CHARLES', 'G_bn': '', 'G_tt': 'now'}"
p648
F0.00054764512595837896
sS"{'G_ap': 'OAKLAND', 'G_dp': 'WILKINSBURG', 'G_bn': '', 'G_tt': 'now'}"
p649
F0.0016429353778751369
sS"{'G_ap': 'BLOOMFIELD', 'G_dp': 'CENTRE AT CRAIG', 'G_bn': '', 'G_tt': '800'}"
p650
F0.00054764512595837896
sS"{'G_ap': 'NORTH BRADDOCK', 'G_dp': 'WILKINSBURG', 'G_bn': '61A', 'G_tt': 'now'}"
p651
F0.00054764512595837896
sS"{'G_ap': 'EAST LIBERTY STATION', 'G_dp': 'SWISSVALE STATION', 'G_bn': '', 'G_tt': '630'}"
p652
F0.00054764512595837896
sS"{'G_ap': 'SHADYSIDE', 'G_dp': 'CRAIG AT CENTRE', 'G_bn': '', 'G_tt': '800'}"
p653
F0.00054764512595837896
sS"{'G_ap': 'SMITHFIELD STREET', 'G_dp': 'DOWNTOWN', 'G_bn': '', 'G_tt': 'now'}"
p654
F0.00054764512595837896
sS"{'G_ap': 'DOWNTOWN', 'G_dp': 'DOWNTOWN', 'G_bn': '', 'G_tt': '2100'}"
p655
F0.00054764512595837896
sS"{'G_ap': 'DOWNTOWN', 'G_dp': 'THIRTY SEVENTH AND LIBERTY', 'G_bn': '', 'G_tt': 'now'}"
p656
F0.00054764512595837896
sS"{'G_ap': 'HOMESTEAD', 'G_dp': 'MCKEESPORT', 'G_bn': '', 'G_tt': '2300'}"
p657
F0.00054764512595837896
sS"{'G_ap': 'DOWNTOWN', 'G_dp': 'HIGH', 'G_bn': '', 'G_tt': '900'}"
p658
F0.00054764512595837896
sS"{'G_ap': 'ELEVENTH', 'G_dp': 'BUSWAY', 'G_bn': '', 'G_tt': '800'}"
p659
F0.00054764512595837896
sS"{'G_ap': 'MOUNT OLIVER', 'G_dp': 'SMITHFIELD STREET', 'G_bn': '', 'G_tt': 'now'}"
p660
F0.00054764512595837896
sS"{'G_ap': 'TRAFFORD', 'G_dp': 'WILKINSBURG', 'G_bn': '', 'G_tt': 'now'}"
p661
F0.0032858707557502738
sS"{'G_ap': 'HAZELWOOD', 'G_dp': 'MCKEESPORT', 'G_bn': '', 'G_tt': 'now'}"
p662
F0.00054764512595837896
sS"{'G_ap': 'DOWNTOWN', 'G_dp': 'BRADDOCK', 'G_bn': '', 'G_tt': '1930'}"
p663
F0.00054764512595837896
sS"{'G_ap': 'LAWRENCEVILLE', 'G_dp': 'WATERFRONT DRIVE', 'G_bn': '', 'G_tt': 'now'}"
p664
F0.00054764512595837896
sS"{'G_ap': 'HOMESTEAD', 'G_dp': 'SWISSVALE', 'G_bn': '', 'G_tt': 'now'}"
p665
F0.00054764512595837896
sS"{'G_ap': 'EAST OHIO STREET', 'G_dp': 'WEST PENN HOSPITAL', 'G_bn': 'EBA', 'G_tt': '1200'}"
p666
F0.00054764512595837896
sS"{'G_ap': 'DOWNTOWN', 'G_dp': 'SQUIRREL HILL', 'G_bn': '', 'G_tt': '900'}"
p667
F0.00054764512595837896
sS"{'G_ap': 'MILLVALE', 'G_dp': 'DOWNTOWN', 'G_bn': '', 'G_tt': '2345'}"
p668
F0.00054764512595837896
sS"{'G_ap': 'LIBERTY', 'G_dp': 'BRADDOCK', 'G_bn': '', 'G_tt': 'now'}"
p669
F0.00054764512595837896
sS"{'G_ap': 'GRACE', 'G_dp': 'PITTSBURGH', 'G_bn': '', 'G_tt': 'now'}"
p670
F0.00054764512595837896
sS"{'G_ap': 'ALLEGHENY GENERAL HOSPITAL', 'G_dp': 'WEST PENN HOSPITAL', 'G_bn': '', 'G_tt': '630'}"
p671
F0.00054764512595837896
sS"{'G_ap': 'OAKLAND', 'G_dp': 'PITTSBURGH', 'G_bn': '', 'G_tt': 'now'}"
p672
F0.00054764512595837896
sS"{'G_ap': 'DOWNTOWN', 'G_dp': 'EAST', 'G_bn': 'EBA', 'G_tt': '800'}"
p673
F0.00054764512595837896
sS"{'G_ap': 'OAKLAND', 'G_dp': 'DYNAMO WAY', 'G_bn': '', 'G_tt': '2100'}"
p674
F0.00054764512595837896
sS"{'G_ap': 'WILKINSBURG', 'G_dp': 'SWISSVALE', 'G_bn': '', 'G_tt': '1915'}"
p675
F0.00054764512595837896
sS"{'G_ap': 'MCKEESPORT', 'G_dp': 'HOMESTEAD', 'G_bn': '61C', 'G_tt': '100'}"
p676
F0.00054764512595837896
sS"{'G_ap': 'OLIVER', 'G_dp': 'EIGHTH', 'G_bn': '', 'G_tt': '2000'}"
p677
F0.00054764512595837896
sS"{'G_ap': 'TURTLE CREEK', 'G_dp': 'DUQUESNE', 'G_bn': '', 'G_tt': '425'}"
p678
F0.00054764512595837896
sS"{'G_ap': 'NORTH', 'G_dp': 'DUQUESNE', 'G_bn': '', 'G_tt': 'now'}"
p679
F0.00054764512595837896
sS"{'G_ap': 'EAST LIBERTY', 'G_dp': 'SOUTH', 'G_bn': '', 'G_tt': 'now'}"
p680
F0.00054764512595837896
sS"{'G_ap': 'DOWNTOWN PITTSBURGH', 'G_dp': 'BUSWAY', 'G_bn': 'EBA', 'G_tt': '2100'}"
p681
F0.00054764512595837896
sS"{'G_ap': 'SOUTH HILLS JUNCTION', 'G_dp': 'WEST PENN', 'G_bn': '', 'G_tt': 'now'}"
p682
F0.00054764512595837896
sS"{'G_ap': 'NORTH SIDE', 'G_dp': 'CENTER AVENUE', 'G_bn': '', 'G_tt': 'now'}"
p683
F0.00054764512595837896
sS"{'G_ap': 'MILLVALE', 'G_dp': 'DOWNTOWN PITTSBURGH', 'G_bn': '', 'G_tt': 'now'}"
p684
F0.00054764512595837896
sS"{'G_ap': 'PRESBY', 'G_dp': 'EAST HILLS', 'G_bn': '', 'G_tt': 'now'}"
p685
F0.00054764512595837896
sS"{'G_ap': 'DOWNTOWN PITTSBURGH', 'G_dp': 'PITT', 'G_bn': '', 'G_tt': 'now'}"
p686
F0.00054764512595837896
sS"{'G_ap': 'OAKLAND', 'G_dp': 'AIRPORT', 'G_bn': '', 'G_tt': '2230'}"
p687
F0.00054764512595837896
sS"{'G_ap': 'MALL', 'G_dp': 'DOWNTOWN PITTSBURGH', 'G_bn': '', 'G_tt': 'now'}"
p688
F0.00054764512595837896
sS"{'G_ap': 'CARNEGIE', 'G_dp': 'BELL AVENUE', 'G_bn': '', 'G_tt': 'now'}"
p689
F0.00054764512595837896
sS"{'G_ap': 'EAST PITTSBURGH', 'G_dp': 'TERRACE', 'G_bn': '', 'G_tt': 'now'}"
p690
F0.00054764512595837896
sS"{'G_ap': 'DUQUESNE', 'G_dp': 'MCKEESPORT', 'G_bn': '', 'G_tt': '2100'}"
p691
F0.00054764512595837896
sS"{'G_ap': 'SHADYSIDE', 'G_dp': 'OAKLAND', 'G_bn': '', 'G_tt': '815'}"
p692
F0.00054764512595837896
sS"{'G_ap': 'SWISSVALE', 'G_dp': 'WILKINSBURG', 'G_bn': '', 'G_tt': '2330'}"
p693
F0.00054764512595837896
sS"{'G_ap': 'OAKLAND', 'G_dp': 'THE SOUTH HILLS JUNCTION', 'G_bn': '', 'G_tt': '2115'}"
p694
F0.00054764512595837896
sS"{'G_ap': 'DOWNTOWN', 'G_dp': 'MCKEESPORT', 'G_bn': '', 'G_tt': 'now'}"
p695
F0.0087623220153340634
sS"{'G_ap': 'CARNEGIE MELLON', 'G_dp': 'SOUTH SIDE WORKS', 'G_bn': '', 'G_tt': '30'}"
p696
F0.00054764512595837896
sS"{'G_ap': 'DOWNTOWN', 'G_dp': 'WILKINSBURG BUSWAY', 'G_bn': '', 'G_tt': '630'}"
p697
F0.00054764512595837896
sS"{'G_ap': 'PITTSBURGH', 'G_dp': 'PITT', 'G_bn': '', 'G_tt': '2100'}"
p698
F0.00054764512595837896
sS"{'G_ap': 'PENN AVENUE', 'G_dp': 'CRAIG AND PARK PLAZA', 'G_bn': '71A', 'G_tt': 'now'}"
p699
F0.00054764512595837896
sS"{'G_ap': 'GREENFIELD', 'G_dp': 'SHADY', 'G_bn': '', 'G_tt': '2100'}"
p700
F0.00054764512595837896
sS"{'G_ap': 'SWISSVALE', 'G_dp': 'WOOD', 'G_bn': '', 'G_tt': '0'}"
p701
F0.00054764512595837896
sS"{'G_ap': 'SOUTH', 'G_dp': 'EAST HILLS', 'G_bn': '61C', 'G_tt': '900'}"
p702
F0.00054764512595837896
sS"{'G_ap': 'MCKEE', 'G_dp': 'COAL', 'G_bn': '', 'G_tt': 'now'}"
p703
F0.00054764512595837896
sS"{'G_ap': 'DOWNTOWN PITTSBURGH', 'G_dp': 'HILTON', 'G_bn': '', 'G_tt': '700'}"
p704
F0.00054764512595837896
sS"{'G_ap': 'WILKINSBURG', 'G_dp': 'DOWNTOWN', 'G_bn': '', 'G_tt': '900'}"
p705
F0.00054764512595837896
sS"{'G_ap': 'EAST HILLS', 'G_dp': 'WILKINSBURG', 'G_bn': '79', 'G_tt': '330'}"
p706
F0.00054764512595837896
sS"{'G_ap': 'WILKINSBURG STATION', 'G_dp': 'DOWNTOWN', 'G_bn': '', 'G_tt': '1840'}"
p707
F0.00054764512595837896
sS"{'G_ap': 'HILL', 'G_dp': 'DOWNTOWN', 'G_bn': '', 'G_tt': '900'}"
p708
F0.00054764512595837896
sS"{'G_ap': 'DOWNTOWN', 'G_dp': 'SHERADEN STATION', 'G_bn': '', 'G_tt': '2345'}"
p709
F0.00054764512595837896
sS"{'G_ap': 'SWISSVALE STATION', 'G_dp': 'WILKINSBURG STATION', 'G_bn': '', 'G_tt': 'now'}"
p710
F0.00054764512595837896
sS"{'G_ap': 'EAST LIBERTY', 'G_dp': 'DOWNTOWN', 'G_bn': '', 'G_tt': '1000'}"
p711
F0.00054764512595837896
sS"{'G_ap': 'LIBERTY', 'G_dp': 'DOWNTOWN', 'G_bn': '', 'G_tt': 'now'}"
p712
F0.00054764512595837896
sS"{'G_ap': 'DOWNTOWN', 'G_dp': 'BROOKLINE', 'G_bn': '', 'G_tt': '2100'}"
p713
F0.00054764512595837896
sS"{'G_ap': 'OAKLAND', 'G_dp': 'BUSWAY', 'G_bn': '', 'G_tt': '2215'}"
p714
F0.00054764512595837896
sS"{'G_ap': 'OAKLAND', 'G_dp': 'SWISSVALE', 'G_bn': '', 'G_tt': '745'}"
p715
F0.00054764512595837896
sS"{'G_ap': 'CARNEGIE', 'G_dp': 'DOWNTOWN', 'G_bn': '', 'G_tt': '2330'}"
p716
F0.00054764512595837896
sS"{'G_ap': 'GREENFIELD', 'G_dp': 'HOMESTEAD', 'G_bn': '', 'G_tt': '2145'}"
p717
F0.00054764512595837896
sS"{'G_ap': 'DOWNTOWN', 'G_dp': 'MCKEESPORT', 'G_bn': '', 'G_tt': '630'}"
p718
F0.00054764512595837896
sS"{'G_ap': 'NORTH BRADDOCK', 'G_dp': 'DOWNTOWN', 'G_bn': '', 'G_tt': '100'}"
p719
F0.00054764512595837896
sS"{'G_ap': 'EAST LIBERTY', 'G_dp': 'WATERWORKS MALL', 'G_bn': '', 'G_tt': '1900'}"
p720
F0.00054764512595837896
sS"{'G_ap': 'EAST', 'G_dp': 'THE MALL AT ROBINSON', 'G_bn': '', 'G_tt': 'now'}"
p721
F0.00054764512595837896
sS"{'G_ap': 'BRADDOCK', 'G_dp': 'SWISSVALE', 'G_bn': '61B', 'G_tt': '2000'}"
p722
F0.00054764512595837896
sS"{'G_ap': 'DOWNTOWN PITTSBURGH', 'G_dp': 'TRAFFORD', 'G_bn': '', 'G_tt': 'now'}"
p723
F0.00054764512595837896
sS"{'G_ap': 'SQUIRREL HILL', 'G_dp': 'NEGLEY AT MARGARETTA', 'G_bn': '', 'G_tt': '2000'}"
p724
F0.00054764512595837896
sS"{'G_ap': 'SOUTH SIDE', 'G_dp': 'DOWNTOWN', 'G_bn': '', 'G_tt': 'now'}"
p725
F0.00054764512595837896
sS"{'G_ap': 'PITTSBURGH', 'G_dp': 'FOX CHAPEL', 'G_bn': '', 'G_tt': 'now'}"
p726
F0.00054764512595837896
sS"{'G_ap': 'DOWNTOWN', 'G_dp': 'BRIGHTON', 'G_bn': '', 'G_tt': 'now'}"
p727
F0.0010952902519167579
sS"{'G_ap': 'CRAFTON', 'G_dp': 'DOWNTOWN PITTSBURGH', 'G_bn': '', 'G_tt': '900'}"
p728
F0.00054764512595837896
sS"{'G_ap': 'SWISSVALE', 'G_dp': 'WILKINSBURG', 'G_bn': '', 'G_tt': 'now'}"
p729
F0.0010952902519167579
sS"{'G_ap': 'SOUTH HILLS JUNCTION', 'G_dp': 'WALL', 'G_bn': '', 'G_tt': 'now'}"
p730
F0.00054764512595837896
sS"{'G_ap': 'OAKLAND', 'G_dp': 'SOUTH SIDE', 'G_bn': '', 'G_tt': 'now'}"
p731
F0.0021905805038335158
sS"{'G_ap': 'AIRPORT', 'G_dp': 'SHERADEN', 'G_bn': '', 'G_tt': '500'}"
p732
F0.00054764512595837896
sS"{'G_ap': 'CMU', 'G_dp': 'DOWNTOWN', 'G_bn': '', 'G_tt': 'now'}"
p733
F0.00054764512595837896
sS"{'G_ap': 'SWISSVALE BUS STATION', 'G_dp': 'THE WATERFRONT', 'G_bn': '', 'G_tt': '2230'}"
p734
F0.00054764512595837896
sS"{'G_ap': 'EAST LIBERTY', 'G_dp': 'OAKLAND', 'G_bn': '', 'G_tt': '600'}"
p735
F0.00054764512595837896
sS"{'G_ap': 'SECOND AVENUE', 'G_dp': 'FRANKSTOWN', 'G_bn': '', 'G_tt': '600'}"
p736
F0.00054764512595837896
sS"{'G_ap': 'EDGEWOOD', 'G_dp': 'WILKINSBURG', 'G_bn': '', 'G_tt': '900'}"
p737
F0.00054764512595837896
sS"{'G_ap': 'GREENFIELD', 'G_dp': 'FIFTH AND MARYLAND', 'G_bn': '64', 'G_tt': 'now'}"
p738
F0.00054764512595837896
sS"{'G_ap': 'FOREST HILLS', 'G_dp': 'DOWNTOWN', 'G_bn': '', 'G_tt': '800'}"
p739
F0.00054764512595837896
sS"{'G_ap': 'EAST LIBERTY', 'G_dp': 'SHERADEN', 'G_bn': '', 'G_tt': '800'}"
p740
F0.00054764512595837896
sS"{'G_ap': 'DOWNTOWN', 'G_dp': 'NORTH SIDE', 'G_bn': '', 'G_tt': '600'}"
p741
F0.00054764512595837896
sS"{'G_ap': 'OAKLAND', 'G_dp': 'MONONGAHELA AND WASHINGTON', 'G_bn': '61B', 'G_tt': '1730'}"
p742
F0.00054764512595837896
sS"{'G_ap': 'EAST LIBERTY', 'G_dp': 'SOUTH SIDE', 'G_bn': '', 'G_tt': 'now'}"
p743
F0.0010952902519167579
sS"{'G_ap': 'EAST PITTSBURGH', 'G_dp': 'AIRPORT', 'G_bn': '69', 'G_tt': '2030'}"
p744
F0.00054764512595837896
sS"{'G_ap': 'FIFTH AVENUE', 'G_dp': 'CENTRE AVENUE', 'G_bn': '', 'G_tt': '1715'}"
p745
F0.00054764512595837896
sS"{'G_ap': 'BUSWAY', 'G_dp': 'SWISSVALE', 'G_bn': '', 'G_tt': 'now'}"
p746
F0.00054764512595837896
sS"{'G_ap': 'EAST BUSWAY', 'G_dp': 'LIBERTY', 'G_bn': '', 'G_tt': 'now'}"
p747
F0.00054764512595837896
sS"{'G_ap': 'DOWNTOWN PITTSBURGH', 'G_dp': 'DYNAMO WAY', 'G_bn': '', 'G_tt': 'now'}"
p748
F0.00054764512595837896
sS"{'G_ap': 'WILKINSBURG STATION', 'G_dp': 'WALLACE', 'G_bn': '', 'G_tt': 'now'}"
p749
F0.0010952902519167579
sS"{'G_ap': 'EDGEWOOD', 'G_dp': 'PENN AVENUE', 'G_bn': '', 'G_tt': 'now'}"
p750
F0.00054764512595837896
sS"{'G_ap': 'WEST', 'G_dp': 'THE AIRPORT', 'G_bn': '', 'G_tt': '2200'}"
p751
F0.00054764512595837896
sS"{'G_ap': 'WOOD', 'G_dp': 'BURROWS STREET', 'G_bn': '', 'G_tt': '500'}"
p752
F0.00054764512595837896
sS"{'G_ap': 'WILKINSBURG', 'G_dp': 'MCKEESPORT', 'G_bn': '', 'G_tt': '700'}"
p753
F0.00054764512595837896
sS"{'G_ap': 'KENNEDY', 'G_dp': 'VERSAILLES', 'G_bn': '', 'G_tt': 'now'}"
p754
F0.00054764512595837896
sS"{'G_ap': 'PITTSBURGH', 'G_dp': 'MCKEESPORT', 'G_bn': '', 'G_tt': '1900'}"
p755
F0.00054764512595837896
sS"{'G_ap': 'DOWNTOWN PITTSBURGH', 'G_dp': 'BELL', 'G_bn': '', 'G_tt': '1000'}"
p756
F0.00054764512595837896
sS"{'G_ap': 'MCKEESPORT', 'G_dp': 'WATERFRONT', 'G_bn': '', 'G_tt': 'now'}"
p757
F0.00054764512595837896
sS"{'G_ap': 'MCKEESPORT', 'G_dp': 'HOMESTEAD', 'G_bn': '61C', 'G_tt': 'now'}"
p758
F0.0021905805038335158
sS"{'G_ap': 'SHADYSIDE', 'G_dp': 'FOREST HILLS', 'G_bn': '', 'G_tt': '1000'}"
p759
F0.00054764512595837896
sS"{'G_ap': 'BRADDOCK', 'G_dp': 'KENNYWOOD', 'G_bn': '', 'G_tt': '600'}"
p760
F0.00054764512595837896
sS"{'G_ap': 'DOWNTOWN', 'G_dp': 'DAWSON STREET', 'G_bn': '', 'G_tt': '2200'}"
p761
F0.00054764512595837896
sS"{'G_ap': 'MCKEESPORT', 'G_dp': 'FORBES AND ATWOOD', 'G_bn': '61C', 'G_tt': 'now'}"
p762
F0.00054764512595837896
sS"{'G_ap': 'WILKINSBURG', 'G_dp': 'OAKLAND', 'G_bn': '', 'G_tt': '800'}"
p763
F0.00054764512595837896
sS"{'G_ap': 'DOWNTOWN', 'G_dp': 'SOUTH', 'G_bn': '', 'G_tt': '2300'}"
p764
F0.00054764512595837896
sS"{'G_ap': 'EAST BUSWAY', 'G_dp': 'WILKINS', 'G_bn': '', 'G_tt': '2000'}"
p765
F0.00054764512595837896
sS"{'G_ap': 'AIRPORT', 'G_dp': 'DOWNTOWN', 'G_bn': '', 'G_tt': 'now'}"
p766
F0.00054764512595837896
sS"{'G_ap': 'AIRPORT', 'G_dp': 'SOUTH SIDE', 'G_bn': '', 'G_tt': 'now'}"
p767
F0.00054764512595837896
sS"{'G_ap': 'SQUIRREL HILL', 'G_dp': 'NORTH BRADDOCK', 'G_bn': '', 'G_tt': '2000'}"
p768
F0.00054764512595837896
sS"{'G_ap': 'OAKLAND', 'G_dp': 'FRANKSTOWN', 'G_bn': '', 'G_tt': 'now'}"
p769
F0.00054764512595837896
sS"{'G_ap': 'EAST LIBERTY', 'G_dp': 'FIFTH AVENUE', 'G_bn': '', 'G_tt': '840'}"
p770
F0.00054764512595837896
sS"{'G_ap': 'TURTLE CREEK', 'G_dp': 'DOWNTOWN PITTSBURGH', 'G_bn': '67E', 'G_tt': 'now'}"
p771
F0.00054764512595837896
sS"{'G_ap': 'SQUIRREL HILL', 'G_dp': 'COAL', 'G_bn': '', 'G_tt': '1920'}"
p772
F0.00054764512595837896
sS"{'G_ap': 'DOWNTOWN', 'G_dp': 'PIONEER', 'G_bn': '', 'G_tt': '2300'}"
p773
F0.00054764512595837896
sS"{'G_ap': 'MONROEVILLE', 'G_dp': 'DOWNTOWN PITTSBURGH', 'G_bn': '', 'G_tt': 'now'}"
p774
F0.0016429353778751369
sS"{'G_ap': 'OAKLAND', 'G_dp': 'REBECCA', 'G_bn': '', 'G_tt': 'now'}"
p775
F0.00054764512595837896
sS"{'G_ap': 'DUQUESNE', 'G_dp': 'SWISSVALE STATION', 'G_bn': '', 'G_tt': 'now'}"
p776
F0.0010952902519167579
sS"{'G_ap': 'HOMESTEAD', 'G_dp': 'DOWNTOWN PITTSBURGH', 'G_bn': '', 'G_tt': '2000'}"
p777
F0.00054764512595837896
sS"{'G_ap': 'MONROEVILLE', 'G_dp': 'MCKEESPORT', 'G_bn': '', 'G_tt': '2020'}"
p778
F0.00054764512595837896
sS"{'G_ap': 'ARLINGTON AVENUE', 'G_dp': 'CENTER AVENUE', 'G_bn': '', 'G_tt': '1500'}"
p779
F0.00054764512595837896
sS"{'G_ap': 'DOWNTOWN', 'G_dp': 'EAST LIBERTY', 'G_bn': '', 'G_tt': 'now'}"
p780
F0.0043811610076670317
sS"{'G_ap': 'OAKLAND', 'G_dp': 'HAMILTON', 'G_bn': '', 'G_tt': 'now'}"
p781
F0.00054764512595837896
sS"{'G_ap': 'DOWNTOWN', 'G_dp': 'HOMEWOOD STATION', 'G_bn': '', 'G_tt': 'now'}"
p782
F0.00054764512595837896
sS"{'G_ap': 'BROOKLINE', 'G_dp': 'DOWNTOWN PITTSBURGH', 'G_bn': '', 'G_tt': 'now'}"
p783
F0.00054764512595837896
sS"{'G_ap': 'SHADYSIDE', 'G_dp': 'GREENFIELD', 'G_bn': '', 'G_tt': 'now'}"
p784
F0.0010952902519167579
sS"{'G_ap': 'MAGEE', 'G_dp': 'FIFTH AND SMITHFIELD', 'G_bn': '', 'G_tt': 'now'}"
p785
F0.00054764512595837896
sS"{'G_ap': 'FOREST HILLS', 'G_dp': 'SWISSVALE', 'G_bn': '', 'G_tt': '600'}"
p786
F0.00054764512595837896
sS"{'G_ap': 'SWISSVALE', 'G_dp': 'DOWNTOWN PITTSBURGH', 'G_bn': '', 'G_tt': 'now'}"
p787
F0.00054764512595837896
sS"{'G_ap': 'OAKLAND', 'G_dp': 'WATERFRONT', 'G_bn': '', 'G_tt': '100'}"
p788
F0.00054764512595837896
sS"{'G_ap': 'EAST PITTSBURGH', 'G_dp': 'TRAFFORD', 'G_bn': '', 'G_tt': '600'}"
p789
F0.00054764512595837896
sS"{'G_ap': 'POINT BREEZE', 'G_dp': 'DOWNTOWN PITTSBURGH', 'G_bn': '', 'G_tt': '800'}"
p790
F0.00054764512595837896
sS"{'G_ap': 'MCKEESPORT', 'G_dp': 'MIFFLIN', 'G_bn': '', 'G_tt': '1730'}"
p791
F0.00054764512595837896
sS"{'G_ap': 'EAST OHIO STREET', 'G_dp': 'MILLVALE', 'G_bn': '54C', 'G_tt': '0'}"
p792
F0.00054764512595837896
sS"{'G_ap': 'OAKLAND', 'G_dp': 'EAST PITTSBURGH', 'G_bn': '', 'G_tt': 'now'}"
p793
F0.00054764512595837896
sS"{'G_ap': 'BIGELOW', 'G_dp': 'MCKEESPORT', 'G_bn': '', 'G_tt': '100'}"
p794
F0.00054764512595837896
sS"{'G_ap': 'WATERFRONT', 'G_dp': 'MURRAY AT BEACON', 'G_bn': '', 'G_tt': 'now'}"
p795
F0.00054764512595837896
sS"{'G_ap': 'THE BUSWAY', 'G_dp': 'FOURTH', 'G_bn': '', 'G_tt': 'now'}"
p796
F0.00054764512595837896
sS"{'G_ap': 'PITT UNIVERSITY', 'G_dp': 'PITTSBURGH ZOO', 'G_bn': '', 'G_tt': '2250'}"
p797
F0.00054764512595837896
sS"{'G_ap': 'SQUIRREL HILL', 'G_dp': 'DOWNTOWN', 'G_bn': '', 'G_tt': '2300'}"
p798
F0.00054764512595837896
sS"{'G_ap': 'HOMESTEAD', 'G_dp': 'MCKEESPORT', 'G_bn': '61C', 'G_tt': 'now'}"
p799
F0.00054764512595837896
sS"{'G_ap': 'SARAH', 'G_dp': 'EAST PITTSBURGH', 'G_bn': '', 'G_tt': '400'}"
p800
F0.00054764512595837896
sS"{'G_ap': 'SOUTH SIDE', 'G_dp': 'OAKLAND', 'G_bn': '54C', 'G_tt': 'now'}"
p801
F0.00054764512595837896
sS"{'G_ap': 'NORTH', 'G_dp': 'CARNEGIE STREET', 'G_bn': '', 'G_tt': '1700'}"
p802
F0.00054764512595837896
sS"{'G_ap': 'DOWNTOWN PITTSBURGH', 'G_dp': 'HOMESTEAD', 'G_bn': '', 'G_tt': '600'}"
p803
F0.00054764512595837896
sS"{'G_ap': 'PITT', 'G_dp': 'RANKIN', 'G_bn': '', 'G_tt': 'now'}"
p804
F0.00054764512595837896
sS"{'G_ap': 'NORTH BRADDOCK', 'G_dp': 'SWISSVALE', 'G_bn': '61A', 'G_tt': 'now'}"
p805
F0.0010952902519167579
sS"{'G_ap': 'GREENFIELD', 'G_dp': 'GIANT EAGLE', 'G_bn': '64', 'G_tt': '1900'}"
p806
F0.00054764512595837896
sS"{'G_ap': 'WILKINSBURG', 'G_dp': 'BELL AND ANN', 'G_bn': '61A', 'G_tt': 'now'}"
p807
F0.00054764512595837896
sS"{'G_ap': 'EIGHTH', 'G_dp': 'SECOND AT GRANT', 'G_bn': '', 'G_tt': '2311'}"
p808
F0.00054764512595837896
sS"{'G_ap': 'SAINT CLAIR', 'G_dp': 'MAGEE WOMENS HOSPITAL', 'G_bn': '', 'G_tt': 'now'}"
p809
F0.00054764512595837896
sS"{'G_ap': 'SHADY', 'G_dp': 'DOWNTOWN', 'G_bn': '', 'G_tt': 'now'}"
p810
F0.00054764512595837896
sS"{'G_ap': 'MALL', 'G_dp': 'HAY STREET', 'G_bn': '', 'G_tt': 'now'}"
p811
F0.00054764512595837896
sS"{'G_ap': 'NEGLEY', 'G_dp': 'BLOOMFIELD', 'G_bn': '', 'G_tt': 'now'}"
p812
F0.00054764512595837896
sS"{'G_ap': 'FRANKSTOWN', 'G_dp': 'BLOOMFIELD', 'G_bn': '', 'G_tt': 'now'}"
p813
F0.00054764512595837896
sS"{'G_ap': 'WOOD STREET', 'G_dp': 'EAST', 'G_bn': '', 'G_tt': '2000'}"
p814
F0.00054764512595837896
sS"{'G_ap': 'WILKINSBURG', 'G_dp': 'MCKEE STREET', 'G_bn': '', 'G_tt': 'now'}"
p815
F0.00054764512595837896
sS"{'G_ap': 'GREENFIELD', 'G_dp': 'CARNEGIE MELLON', 'G_bn': '', 'G_tt': 'now'}"
p816
F0.00054764512595837896
sS"{'G_ap': 'FIFTH AT MARYLAND', 'G_dp': 'MOUNT OLIVER', 'G_bn': '', 'G_tt': 'now'}"
p817
F0.00054764512595837896
sS"{'G_ap': 'TRAFFORD', 'G_dp': 'PITTSBURGH', 'G_bn': '', 'G_tt': '1200'}"
p818
F0.00054764512595837896
sS"{'G_ap': 'EAST PITTSBURGH', 'G_dp': 'SWISSVALE', 'G_bn': '61A', 'G_tt': 'now'}"
p819
F0.0010952902519167579
sS"{'G_ap': 'DOWNTOWN', 'G_dp': 'FRANKSTOWN', 'G_bn': '', 'G_tt': '2000'}"
p820
F0.00054764512595837896
sS"{'G_ap': 'OAKLAND', 'G_dp': 'BRADDOCK', 'G_bn': '', 'G_tt': '900'}"
p821
F0.00054764512595837896
sS"{'G_ap': 'WILKINSBURG', 'G_dp': 'EAST PITTSBURGH', 'G_bn': '61A', 'G_tt': '2300'}"
p822
F0.00054764512595837896
sS"{'G_ap': 'DOWNTOWN', 'G_dp': 'WATERWORKS MALL', 'G_bn': '', 'G_tt': 'now'}"
p823
F0.00054764512595837896
sS"{'G_ap': 'SWISSVALE', 'G_dp': 'SHADYSIDE', 'G_bn': '', 'G_tt': 'now'}"
p824
F0.00054764512595837896
sS"{'G_ap': 'CENTURY THREE', 'G_dp': 'CENTURY THREE', 'G_bn': '', 'G_tt': '1650'}"
p825
F0.00054764512595837896
sS"{'G_ap': 'DOBSON', 'G_dp': 'RANKIN', 'G_bn': '61C', 'G_tt': '500'}"
p826
F0.00054764512595837896
sS"{'G_ap': 'TURTLE CREEK', 'G_dp': 'DOWNTOWN PITTSBURGH', 'G_bn': '', 'G_tt': '2100'}"
p827
F0.00054764512595837896
sS"{'G_ap': 'WILMERDING', 'G_dp': 'DYNAMO WAY', 'G_bn': '', 'G_tt': '2000'}"
p828
F0.00054764512595837896
sS"{'G_ap': 'DOWNTOWN', 'G_dp': 'MALL', 'G_bn': '', 'G_tt': 'now'}"
p829
F0.0010952902519167579
sS"{'G_ap': 'MOUNT OLIVER', 'G_dp': 'OAKLAND', 'G_bn': '', 'G_tt': '700'}"
p830
F0.0010952902519167579
sS"{'G_ap': 'CARNEGIE MELLON UNIVERSITY', 'G_dp': 'AIRPORT', 'G_bn': '', 'G_tt': '0'}"
p831
F0.00054764512595837896
sS"{'G_ap': 'CRAFTON', 'G_dp': 'FIFTH AND LIBERTY', 'G_bn': '', 'G_tt': 'now'}"
p832
F0.00054764512595837896
sS"{'G_ap': 'SWISSVALE STATION', 'G_dp': 'FRANKSTOWN', 'G_bn': '', 'G_tt': 'now'}"
p833
F0.00054764512595837896
sS"{'G_ap': 'MCKEESPORT', 'G_dp': 'PITTSBURGH', 'G_bn': '', 'G_tt': 'now'}"
p834
F0.0016429353778751369
sS"{'G_ap': 'DOWNTOWN', 'G_dp': 'BELTZHOOVER', 'G_bn': '', 'G_tt': 'now'}"
p835
F0.00054764512595837896
sS"{'G_ap': 'SOUTH SIDE', 'G_dp': 'ATWOOD', 'G_bn': '', 'G_tt': 'now'}"
p836
F0.00054764512595837896
sS"{'G_ap': 'DOWNTOWN PITTSBURGH', 'G_dp': 'MCKEESPORT', 'G_bn': '', 'G_tt': '1830'}"
p837
F0.00054764512595837896
sS"{'G_ap': 'NORTH SIDE', 'G_dp': 'DOWNTOWN PITTSBURGH', 'G_bn': '', 'G_tt': '1830'}"
p838
F0.00054764512595837896
sS"{'G_ap': 'DOWNTOWN', 'G_dp': 'CENTER', 'G_bn': '', 'G_tt': 'now'}"
p839
F0.0010952902519167579
sS"{'G_ap': 'MOUNT OLIVER', 'G_dp': 'DOWNTOWN', 'G_bn': '', 'G_tt': '2245'}"
p840
F0.00054764512595837896
sS"{'G_ap': 'MCKEESPORT', 'G_dp': 'SIXTH AND WOOD STREET', 'G_bn': '', 'G_tt': '800'}"
p841
F0.00054764512595837896
sS"{'G_ap': 'OAKLAND', 'G_dp': 'BAYARD', 'G_bn': '', 'G_tt': 'now'}"
p842
F0.00054764512595837896
sS"{'G_ap': 'OAKLAND', 'G_dp': 'SOUTH SIDE', 'G_bn': '', 'G_tt': '2330'}"
p843
F0.00054764512595837896
sS"{'G_ap': 'HAZELWOOD', 'G_dp': 'DOWNTOWN', 'G_bn': '', 'G_tt': 'now'}"
p844
F0.0010952902519167579
sS"{'G_ap': 'SOUTH SIDE', 'G_dp': 'ZOO', 'G_bn': '', 'G_tt': '700'}"
p845
F0.00054764512595837896
sS"{'G_ap': 'ELLSWORTH', 'G_dp': 'TURTLE CREEK', 'G_bn': '', 'G_tt': 'now'}"
p846
F0.00054764512595837896
sS"{'G_ap': 'FORBES AND WIGHTMAN', 'G_dp': 'MURRAY AND HAZELWOOD', 'G_bn': '', 'G_tt': '2300'}"
p847
F0.0010952902519167579
sS"{'G_ap': 'SQUIRREL HILL', 'G_dp': 'DOWNTOWN', 'G_bn': '61B', 'G_tt': '2300'}"
p848
F0.0010952902519167579
sS"{'G_ap': 'KENNYWOOD MALL', 'G_dp': 'CENTURY THREE MALL', 'G_bn': '', 'G_tt': '2330'}"
p849
F0.00054764512595837896
sS"{'G_ap': 'MCKEESPORT', 'G_dp': 'OAKLAND', 'G_bn': '', 'G_tt': 'now'}"
p850
F0.0038335158817086527
sS"{'G_ap': 'VERSAILLES', 'G_dp': 'HOMESTEAD', 'G_bn': '', 'G_tt': 'now'}"
p851
F0.00054764512595837896
sS"{'G_ap': 'OAKLAND', 'G_dp': 'SWISSVALE', 'G_bn': '61B', 'G_tt': '1830'}"
p852
F0.00054764512595837896
sS"{'G_ap': 'BRADDOCK', 'G_dp': 'PITTSBURGH', 'G_bn': '', 'G_tt': '2340'}"
p853
F0.00054764512595837896
sS"{'G_ap': 'OAKLAND', 'G_dp': 'WILKINSBURG', 'G_bn': '', 'G_tt': '2300'}"
p854
F0.00054764512595837896
sS"{'G_ap': 'GREENFIELD', 'G_dp': 'PITTSBURGH', 'G_bn': 'EBA', 'G_tt': 'now'}"
p855
F0.00054764512595837896
sS"{'G_ap': 'DOWNTOWN', 'G_dp': 'WILMERDING', 'G_bn': '', 'G_tt': '700'}"
p856
F0.00054764512595837896
sS"{'G_ap': 'HIGHLAND AVENUE', 'G_dp': 'FORTIETH STREET', 'G_bn': '', 'G_tt': '600'}"
p857
F0.00054764512595837896
sS"{'G_ap': 'NORTH', 'G_dp': 'SWISSVALE', 'G_bn': '', 'G_tt': 'now'}"
p858
F0.00054764512595837896
sS"{'G_ap': 'DOWNTOWN', 'G_dp': 'MCKEESPORT', 'G_bn': '', 'G_tt': '1900'}"
p859
F0.00054764512595837896
sS"{'G_ap': 'CRAFTON', 'G_dp': 'SHERADEN', 'G_bn': '', 'G_tt': 'now'}"
p860
F0.00054764512595837896
sS"{'G_ap': 'DOWNTOWN', 'G_dp': 'DOWNTOWN', 'G_bn': '', 'G_tt': 'now'}"
p861
F0.0027382256297918948
sS"{'G_ap': 'HOMESTEAD', 'G_dp': 'OAKLAND', 'G_bn': '', 'G_tt': '1900'}"
p862
F0.00054764512595837896
sS"{'G_ap': 'EAST LIBERTY', 'G_dp': 'NORTH', 'G_bn': '', 'G_tt': 'now'}"
p863
F0.0010952902519167579
sS"{'G_ap': 'DOWNTOWN PITTSBURGH', 'G_dp': 'MCKEESPORT', 'G_bn': '', 'G_tt': '1100'}"
p864
F0.00054764512595837896
sS"{'G_ap': 'SOUTH SIDE', 'G_dp': 'HIGHLAND PARK', 'G_bn': '', 'G_tt': '1200'}"
p865
F0.00054764512595837896
sS"{'G_ap': 'DOWNTOWN', 'G_dp': 'AIRPORT', 'G_bn': '', 'G_tt': 'now'}"
p866
F0.0010952902519167579
sS"{'G_ap': 'OAKLAND', 'G_dp': 'FORBES', 'G_bn': '', 'G_tt': '130'}"
p867
F0.00054764512595837896
sS"{'G_ap': 'MONROEVILLE', 'G_dp': 'DOWNTOWN', 'G_bn': '', 'G_tt': 'now'}"
p868
F0.00054764512595837896
sS"{'G_ap': 'HAMILTON', 'G_dp': 'DOWNTOWN', 'G_bn': '', 'G_tt': 'now'}"
p869
F0.00054764512595837896
sS"{'G_ap': 'EAST LIBERTY', 'G_dp': 'DOWNTOWN', 'G_bn': '', 'G_tt': 'now'}"
p870
F0.0010952902519167579
sS"{'G_ap': 'WILKINSBURG', 'G_dp': 'WILMERDING', 'G_bn': '', 'G_tt': 'now'}"
p871
F0.00054764512595837896
sS"{'G_ap': 'CARNEGIE MELLON UNIVERSITY', 'G_dp': 'NORTH BRADDOCK', 'G_bn': '', 'G_tt': '1800'}"
p872
F0.00054764512595837896
sS"{'G_ap': 'FOREST HILLS', 'G_dp': 'TURTLE CREEK', 'G_bn': '', 'G_tt': 'now'}"
p873
F0.0010952902519167579
sS"{'G_ap': 'SWISSVALE STATION', 'G_dp': 'DOWNTOWN', 'G_bn': '', 'G_tt': 'now'}"
p874
F0.00054764512595837896
sS"{'G_ap': 'SQUIRREL HILL', 'G_dp': 'DOWNTOWN', 'G_bn': '61C', 'G_tt': '2330'}"
p875
F0.00054764512595837896
sS"{'G_ap': 'WILKINSBURG', 'G_dp': 'OAKLAND', 'G_bn': 'P3', 'G_tt': 'now'}"
p876
F0.0010952902519167579
sS"{'G_ap': 'HAZELWOOD', 'G_dp': 'HOMESTEAD', 'G_bn': '', 'G_tt': '500'}"
p877
F0.00054764512595837896
sS"{'G_ap': 'EAST LIBERTY', 'G_dp': 'POLISH HILL', 'G_bn': '', 'G_tt': '500'}"
p878
F0.00054764512595837896
sS"{'G_ap': 'EAST PITTSBURGH', 'G_dp': 'WILKINSBURG', 'G_bn': '', 'G_tt': '2230'}"
p879
F0.00054764512595837896
sS"{'G_ap': 'DOWNTOWN', 'G_dp': 'EAST LIBERTY STATION', 'G_bn': '', 'G_tt': 'now'}"
p880
F0.00054764512595837896
sS"{'G_ap': 'DOWNTOWN', 'G_dp': 'WEST LIBERTY', 'G_bn': '', 'G_tt': '700'}"
p881
F0.00054764512595837896
sS"{'G_ap': 'MALL', 'G_dp': 'DOWNTOWN PITTSBURGH', 'G_bn': '', 'G_tt': '700'}"
p882
F0.00054764512595837896
sS"{'G_ap': 'DOWNTOWN', 'G_dp': 'HOMESTEAD', 'G_bn': '', 'G_tt': '2200'}"
p883
F0.00054764512595837896
sS"{'G_ap': 'WILKINSBURG', 'G_dp': 'OAKLAND', 'G_bn': '', 'G_tt': 'now'}"
p884
F0.0021905805038335158
sS"{'G_ap': 'FORBES AVENUE', 'G_dp': 'BRADDOCK AVENUE', 'G_bn': '61B', 'G_tt': 'now'}"
p885
F0.00054764512595837896
sS"{'G_ap': 'WILKINSBURG', 'G_dp': 'WALL', 'G_bn': '', 'G_tt': '2000'}"
p886
F0.00054764512595837896
sS"{'G_ap': 'WILKINSBURG', 'G_dp': 'SHADY', 'G_bn': '', 'G_tt': '800'}"
p887
F0.00054764512595837896
sS"{'G_ap': 'EAST PITTSBURGH', 'G_dp': 'SHERADEN', 'G_bn': '', 'G_tt': '2300'}"
p888
F0.00054764512595837896
sS"{'G_ap': 'MONROEVILLE MALL', 'G_dp': 'DOWNTOWN', 'G_bn': '', 'G_tt': '2200'}"
p889
F0.00054764512595837896
sS"{'G_ap': 'DOWNTOWN', 'G_dp': 'NINTH AT PENN', 'G_bn': '', 'G_tt': '1800'}"
p890
F0.00054764512595837896
sS"{'G_ap': 'PITTSBURGH', 'G_dp': 'HOMESTEAD', 'G_bn': '', 'G_tt': '2200'}"
p891
F0.00054764512595837896
sS"{'G_ap': 'DOWNTOWN', 'G_dp': 'DYNAMO WAY', 'G_bn': '', 'G_tt': '600'}"
p892
F0.00054764512595837896
sS"{'G_ap': 'DOWNTOWN', 'G_dp': 'LINCOLN AVENUE', 'G_bn': '', 'G_tt': 'now'}"
p893
F0.0021905805038335158
sS"{'G_ap': 'CRAIG', 'G_dp': 'CENTURY THREE MALL', 'G_bn': '', 'G_tt': 'now'}"
p894
F0.00054764512595837896
sS"{'G_ap': 'EAST LIBERTY', 'G_dp': 'WALL', 'G_bn': '', 'G_tt': 'now'}"
p895
F0.00054764512595837896
sS"{'G_ap': 'SOUTH SIDE', 'G_dp': 'OAKLAND', 'G_bn': '', 'G_tt': 'now'}"
p896
F0.0016429353778751369
sS"{'G_ap': 'MERCY HOSPITAL', 'G_dp': 'SMITHFIELD', 'G_bn': '', 'G_tt': '900'}"
p897
F0.00054764512595837896
sS"{'G_ap': 'FORBES', 'G_dp': 'SWISSVALE AVENUE', 'G_bn': '', 'G_tt': 'now'}"
p898
F0.00054764512595837896
sS"{'G_ap': 'SWISSVALE', 'G_dp': 'SWISSVALE', 'G_bn': '', 'G_tt': '2345'}"
p899
F0.00054764512595837896
sS"{'G_ap': 'SOUTH SIDE', 'G_dp': 'DOBSON', 'G_bn': '54C', 'G_tt': 'now'}"
p900
F0.00054764512595837896
sS"{'G_ap': 'CARNEGIE', 'G_dp': 'PITTSBURGH', 'G_bn': '', 'G_tt': 'now'}"
p901
F0.00054764512595837896
sS"{'G_ap': 'THE STRIP', 'G_dp': 'SQUIRREL HILL', 'G_bn': '', 'G_tt': '1500'}"
p902
F0.00054764512595837896
sS"{'G_ap': 'MCKEESPORT', 'G_dp': 'DUQUESNE', 'G_bn': '', 'G_tt': '2230'}"
p903
F0.00054764512595837896
sS"{'G_ap': 'FRANKSTOWN', 'G_dp': 'ROSS', 'G_bn': '', 'G_tt': '600'}"
p904
F0.00054764512595837896
sS"{'G_ap': 'PITTSBURGH', 'G_dp': 'FORBES AND MURRAY', 'G_bn': '', 'G_tt': 'now'}"
p905
F0.00054764512595837896
sS"{'G_ap': 'THE AIRPORT', 'G_dp': 'CARNEGIE MELLON UNIVERSITY', 'G_bn': '', 'G_tt': 'now'}"
p906
F0.00054764512595837896
sS"{'G_ap': 'MALL', 'G_dp': 'DUQUESNE', 'G_bn': '61C', 'G_tt': 'now'}"
p907
F0.00054764512595837896
sS"{'G_ap': 'BRADDOCK', 'G_dp': 'SWISSVALE', 'G_bn': '', 'G_tt': 'now'}"
p908
F0.00054764512595837896
sS"{'G_ap': 'NORTH BRADDOCK', 'G_dp': 'SWISSVALE', 'G_bn': '', 'G_tt': 'now'}"
p909
F0.0016429353778751369
sS"{'G_ap': 'WEST PENN HOSPITAL', 'G_dp': 'SOUTH', 'G_bn': '', 'G_tt': 'now'}"
p910
F0.00054764512595837896
sS"{'G_ap': 'HOMESTEAD', 'G_dp': 'MCKEESPORT TRANSPORTATION CENTER', 'G_bn': '', 'G_tt': 'now'}"
p911
F0.00054764512595837896
sS"{'G_ap': 'SECOND AVENUE', 'G_dp': 'CRAFTON', 'G_bn': '', 'G_tt': '1800'}"
p912
F0.00054764512595837896
sS"{'G_ap': 'MAGEE', 'G_dp': 'DOWNTOWN', 'G_bn': '', 'G_tt': 'now'}"
p913
F0.00054764512595837896
sS"{'G_ap': 'DOWNTOWN', 'G_dp': 'FORTIETH STREET', 'G_bn': '', 'G_tt': '800'}"
p914
F0.00054764512595837896
sS"{'G_ap': 'COAL STREET', 'G_dp': 'BEDFORD AVENUE', 'G_bn': '', 'G_tt': 'now'}"
p915
F0.00054764512595837896
sS"{'G_ap': 'OAKLAND', 'G_dp': 'EAST OHIO STREET AND CHESTNUT', 'G_bn': '', 'G_tt': 'now'}"
p916
F0.00054764512595837896
sS"{'G_ap': 'FOX CHAPEL', 'G_dp': 'DOWNTOWN PITTSBURGH', 'G_bn': '', 'G_tt': 'now'}"
p917
F0.00054764512595837896
sS"{'G_ap': 'EAST LIBERTY', 'G_dp': 'HOMESTEAD', 'G_bn': '', 'G_tt': '2300'}"
p918
F0.00054764512595837896
sS"{'G_ap': 'SOUTH SIDE', 'G_dp': 'BLOOMFIELD', 'G_bn': '', 'G_tt': 'now'}"
p919
F0.0010952902519167579
sS"{'G_ap': 'SWISSVALE', 'G_dp': 'HOMESTEAD', 'G_bn': '', 'G_tt': '800'}"
p920
F0.00054764512595837896
sS"{'G_ap': 'OAKLAND', 'G_dp': 'MURRAY AND PHILLIPS', 'G_bn': '', 'G_tt': 'now'}"
p921
F0.00054764512595837896
sS"{'G_ap': 'SWISSVALE', 'G_dp': 'HOMESTEAD', 'G_bn': '', 'G_tt': 'now'}"
p922
F0.0010952902519167579
sS"{'G_ap': 'CRAFTON', 'G_dp': 'PITTSBURGH', 'G_bn': '', 'G_tt': '1330'}"
p923
F0.00054764512595837896
sS"{'G_ap': 'BAUM BOULEVARD', 'G_dp': 'MARYLAND', 'G_bn': '', 'G_tt': 'now'}"
p924
F0.00054764512595837896
sS"{'G_ap': 'HOMEVILLE', 'G_dp': 'CARNEGIE MELLON', 'G_bn': '', 'G_tt': '500'}"
p925
F0.00054764512595837896
sS"{'G_ap': 'LAWRENCEVILLE', 'G_dp': 'WALL', 'G_bn': '', 'G_tt': '2100'}"
p926
F0.00054764512595837896
sS"{'G_ap': 'HAMILTON', 'G_dp': 'FIFTH AVENUE AT OAKLAND', 'G_bn': '', 'G_tt': 'now'}"
p927
F0.00054764512595837896
sS"{'G_ap': 'TRAFFORD', 'G_dp': 'DOWNTOWN PITTSBURGH', 'G_bn': '', 'G_tt': 'now'}"
p928
F0.0021905805038335158
sS"{'G_ap': 'WEST PENN HOSPITAL', 'G_dp': 'JUNCTION', 'G_bn': '', 'G_tt': 'now'}"
p929
F0.0010952902519167579
sS"{'G_ap': 'DOWNTOWN', 'G_dp': 'TRAFFORD', 'G_bn': '69', 'G_tt': 'now'}"
p930
F0.00054764512595837896
sS"{'G_ap': 'SQUIRREL HILL', 'G_dp': 'EAST END', 'G_bn': '', 'G_tt': '730'}"
p931
F0.00054764512595837896
sS"{'G_ap': 'LAWRENCEVILLE', 'G_dp': 'FORBES AVENUE AT MURRAY', 'G_bn': '', 'G_tt': '2100'}"
p932
F0.00054764512595837896
sS"{'G_ap': 'MCKEESPORT', 'G_dp': 'FIFTH AVE', 'G_bn': '', 'G_tt': 'now'}"
p933
F0.00054764512595837896
sS"{'G_ap': 'DOWNTOWN', 'G_dp': 'HOMESTEAD', 'G_bn': '', 'G_tt': '1700'}"
p934
F0.00054764512595837896
sS"{'G_ap': 'HAZELWOOD', 'G_dp': 'MCKEESPORT TRANSPORTATION CENTER', 'G_bn': '', 'G_tt': '630'}"
p935
F0.00054764512595837896
sS"{'G_ap': 'FOURTH', 'G_dp': 'EAST LIBERTY', 'G_bn': '', 'G_tt': '600'}"
p936
F0.00054764512595837896
sS"{'G_ap': 'FORBES AT CRAIG', 'G_dp': 'FORBES AT BRADDOCK', 'G_bn': '', 'G_tt': '2130'}"
p937
F0.00054764512595837896
sS"{'G_ap': 'EIGHTEENTH', 'G_dp': 'PITTSBURGH', 'G_bn': '', 'G_tt': 'now'}"
p938
F0.00054764512595837896
sS"{'G_ap': 'PITTSBURGH', 'G_dp': 'CENTER', 'G_bn': '69', 'G_tt': '2230'}"
p939
F0.00054764512595837896
sS"{'G_ap': 'KENNYWOOD MALL', 'G_dp': 'SWISSVALE STATION', 'G_bn': '', 'G_tt': '700'}"
p940
F0.00054764512595837896
sS"{'G_ap': 'ROBINSON', 'G_dp': 'TALBOT', 'G_bn': '', 'G_tt': 'now'}"
p941
F0.00054764512595837896
sS"{'G_ap': 'CARNEGIE', 'G_dp': 'CURRY', 'G_bn': '', 'G_tt': 'now'}"
p942
F0.00054764512595837896
sS"{'G_ap': 'SQUIRREL HILL', 'G_dp': 'WILKINS AND SHADY', 'G_bn': '64', 'G_tt': '2000'}"
p943
F0.00054764512595837896
sS"{'G_ap': 'EAST BUSWAY', 'G_dp': 'SWISSVALE', 'G_bn': '', 'G_tt': 'now'}"
p944
F0.00054764512595837896
sS"{'G_ap': 'PITTSBURGH', 'G_dp': 'KIRKPATRICK', 'G_bn': '', 'G_tt': '630'}"
p945
F0.00054764512595837896
sS"{'G_ap': 'DOBSON', 'G_dp': 'CARNEGIE MELLON UNIVERSITY', 'G_bn': '', 'G_tt': 'now'}"
p946
F0.00054764512595837896
sS"{'G_ap': 'LAWRENCEVILLE', 'G_dp': 'WATERFRONT AND TERMINUS', 'G_bn': '', 'G_tt': 'now'}"
p947
F0.00054764512595837896
sS"{'G_ap': 'EAST LIBERTY', 'G_dp': 'FIFTH AVENUE', 'G_bn': '', 'G_tt': 'now'}"
p948
F0.00054764512595837896
sS"{'G_ap': 'POINT BREEZE', 'G_dp': 'FORBES AND MURRAY', 'G_bn': '', 'G_tt': 'now'}"
p949
F0.00054764512595837896
sS"{'G_ap': 'DOWNTOWN', 'G_dp': 'HOMESTEAD', 'G_bn': '', 'G_tt': '2330'}"
p950
F0.00054764512595837896
sS"{'G_ap': 'SQUIRREL HILL', 'G_dp': 'ELM', 'G_bn': '', 'G_tt': 'now'}"
p951
F0.00054764512595837896
sS"{'G_ap': 'SOUTH', 'G_dp': 'SHADYSIDE', 'G_bn': '', 'G_tt': 'now'}"
p952
F0.00054764512595837896
sS"{'G_ap': 'OAKLAND', 'G_dp': 'MOUNT OLIVER', 'G_bn': '', 'G_tt': '2100'}"
p953
F0.00054764512595837896
sS"{'G_ap': 'EAST LIBERTY', 'G_dp': 'WILKINSBURG', 'G_bn': '', 'G_tt': 'now'}"
p954
F0.0010952902519167579
sS"{'G_ap': 'PERRYSVILLE', 'G_dp': 'WILKINSBURG', 'G_bn': '61A', 'G_tt': '800'}"
p955
F0.00054764512595837896
sS"{'G_ap': 'LAWRENCEVILLE', 'G_dp': 'OAKLAND', 'G_bn': '', 'G_tt': 'now'}"
p956
F0.0016429353778751369
sS"{'G_ap': 'ARLINGTON', 'G_dp': 'SOUTH', 'G_bn': '', 'G_tt': 'now'}"
p957
F0.00054764512595837896
sS"{'G_ap': 'OAKLAND', 'G_dp': 'SOUTH HILLS JUNCTION', 'G_bn': '', 'G_tt': 'now'}"
p958
F0.0010952902519167579
sS"{'G_ap': 'PITTSBURGH', 'G_dp': 'WILKINSBURG', 'G_bn': '', 'G_tt': '800'}"
p959
F0.00054764512595837896
sS"{'G_ap': 'BRADDOCK', 'G_dp': 'WILMERDING', 'G_bn': '', 'G_tt': '0'}"
p960
F0.00054764512595837896
sS"{'G_ap': 'SQUIRREL HILL', 'G_dp': 'WILKINSBURG', 'G_bn': '', 'G_tt': 'now'}"
p961
F0.0010952902519167579
sS"{'G_ap': 'FORBES', 'G_dp': 'WILKINSBURG STATION', 'G_bn': '', 'G_tt': 'now'}"
p962
F0.00054764512595837896
sS"{'G_ap': 'MALL', 'G_dp': 'OAK', 'G_bn': '', 'G_tt': 'now'}"
p963
F0.00054764512595837896
sS"{'G_ap': 'OAKLAND', 'G_dp': 'LAWRENCEVILLE', 'G_bn': '', 'G_tt': '800'}"
p964
F0.00054764512595837896
sS"{'G_ap': 'BELLEVUE', 'G_dp': 'NORTH SIDE', 'G_bn': '', 'G_tt': 'now'}"
p965
F0.00054764512595837896
sS"{'G_ap': 'DOWNTOWN PITTSBURGH', 'G_dp': 'LIBERTY AVENUE', 'G_bn': '', 'G_tt': '400'}"
p966
F0.00054764512595837896
sS"{'G_ap': 'DOWNTOWN', 'G_dp': 'DUQUESNE', 'G_bn': '', 'G_tt': 'now'}"
p967
F0.0049288061336254111
sS"{'G_ap': 'DOWNTOWN PITTSBURGH', 'G_dp': 'NEGLEY', 'G_bn': '71A', 'G_tt': 'now'}"
p968
F0.00054764512595837896
sS"{'G_ap': 'MCKEESPORT', 'G_dp': 'NORTH AND ARCH', 'G_bn': '', 'G_tt': '640'}"
p969
F0.00054764512595837896
sS"{'G_ap': 'HOMESTEAD', 'G_dp': 'OAKLAND', 'G_bn': '', 'G_tt': '1715'}"
p970
F0.00054764512595837896
sS"{'G_ap': 'MOREWOOD', 'G_dp': 'DOWNTOWN', 'G_bn': '', 'G_tt': 'now'}"
p971
F0.00054764512595837896
sS"{'G_ap': 'WALLACE', 'G_dp': 'DOWNTOWN', 'G_bn': '', 'G_tt': 'now'}"
p972
F0.00054764512595837896
sS"{'G_ap': 'HOMEVILLE', 'G_dp': 'GIANT EAGLE', 'G_bn': '', 'G_tt': 'now'}"
p973
F0.00054764512595837896
sS"{'G_ap': 'SQUIRREL HILL', 'G_dp': 'FORBES AND CRAIG', 'G_bn': '', 'G_tt': 'now'}"
p974
F0.00054764512595837896
sS"{'G_ap': 'BRADDOCK', 'G_dp': 'SQUIRREL HILL', 'G_bn': '61B', 'G_tt': '2200'}"
p975
F0.00054764512595837896
sS"{'G_ap': 'MCKEESPORT', 'G_dp': 'DOWNTOWN PITTSBURGH', 'G_bn': '', 'G_tt': '200'}"
p976
F0.00054764512595837896
sS"{'G_ap': 'DOWNTOWN', 'G_dp': 'ROSS', 'G_bn': '', 'G_tt': 'now'}"
p977
F0.00054764512595837896
sS"{'G_ap': 'DOWNTOWN', 'G_dp': 'TRAFFORD', 'G_bn': '', 'G_tt': '700'}"
p978
F0.00054764512595837896
sS"{'G_ap': 'PENN', 'G_dp': 'EIGHTH', 'G_bn': '', 'G_tt': 'now'}"
p979
F0.00054764512595837896
sS"{'G_ap': 'STRIP DISTRICT', 'G_dp': 'OAKLAND', 'G_bn': '54C', 'G_tt': '2130'}"
p980
F0.00054764512595837896
sS"{'G_ap': 'BLOOMFIELD', 'G_dp': 'OAKLAND', 'G_bn': '', 'G_tt': '600'}"
p981
F0.00054764512595837896
sS"{'G_ap': 'DOWNTOWN', 'G_dp': 'EAST', 'G_bn': '', 'G_tt': '800'}"
p982
F0.00054764512595837896
sS"{'G_ap': 'OAKLAND', 'G_dp': 'SHADY', 'G_bn': '', 'G_tt': 'now'}"
p983
F0.00054764512595837896
sS"{'G_ap': 'PITTSBURGH', 'G_dp': 'SARAH', 'G_bn': '', 'G_tt': 'now'}"
p984
F0.00054764512595837896
sS"{'G_ap': 'OAKLAND', 'G_dp': 'WATERFRONT', 'G_bn': '', 'G_tt': 'now'}"
p985
F0.0016429353778751369
sS"{'G_ap': 'WILKINS', 'G_dp': 'DOWNTOWN', 'G_bn': '', 'G_tt': 'now'}"
p986
F0.00054764512595837896
sS"{'G_ap': 'WILKINSBURG', 'G_dp': 'WILKINSBURG', 'G_bn': '', 'G_tt': 'now'}"
p987
F0.00054764512595837896
sS"{'G_ap': 'VERSAILLES', 'G_dp': 'DUQUESNE', 'G_bn': '', 'G_tt': '2230'}"
p988
F0.00054764512595837896
sS"{'G_ap': 'DOWNTOWN', 'G_dp': 'FOREST HILLS', 'G_bn': '', 'G_tt': '2000'}"
p989
F0.0010952902519167579
sS"{'G_ap': 'OAKLAND', 'G_dp': 'MCKEESPORT', 'G_bn': '', 'G_tt': '700'}"
p990
F0.00054764512595837896
sS"{'G_ap': 'DOWNTOWN', 'G_dp': 'OAKLAND', 'G_bn': '', 'G_tt': 'now'}"
p991
F0.0010952902519167579
sS"{'G_ap': 'SWISSVALE STATION', 'G_dp': 'PITTSBURGH', 'G_bn': '', 'G_tt': 'now'}"
p992
F0.00054764512595837896
sS"{'G_ap': 'NINTH AND LIBERTY AVENUE', 'G_dp': 'BAUM BOULEVARD', 'G_bn': '', 'G_tt': '2000'}"
p993
F0.00054764512595837896
sS"{'G_ap': 'BRADDOCK', 'G_dp': 'DOWNTOWN', 'G_bn': '', 'G_tt': 'now'}"
p994
F0.0016429353778751369
sS"{'G_ap': 'NORTH', 'G_dp': 'DOWNTOWN', 'G_bn': '', 'G_tt': '1730'}"
p995
F0.00054764512595837896
sS"{'G_ap': 'SWISSVALE', 'G_dp': 'BRADDOCK AVENUE', 'G_bn': '', 'G_tt': 'now'}"
p996
F0.00054764512595837896
sS"{'G_ap': 'SQUIRREL HILL', 'G_dp': 'EDGEWOOD', 'G_bn': '', 'G_tt': '700'}"
p997
F0.00054764512595837896
sS"{'G_ap': 'LAWRENCEVILLE', 'G_dp': 'CARSON', 'G_bn': '', 'G_tt': 'now'}"
p998
F0.00054764512595837896
sS"{'G_ap': 'BRADDOCK', 'G_dp': 'OAKMONT', 'G_bn': '', 'G_tt': '2200'}"
p999
F0.00054764512595837896
sS"{'G_ap': 'BEACON AT EVANS', 'G_dp': 'LIBERTY', 'G_bn': '', 'G_tt': '2000'}"
p1000
F0.00054764512595837896
sS"{'G_ap': 'TURTLE CREEK', 'G_dp': 'MONROEVILLE', 'G_bn': '', 'G_tt': 'now'}"
p1001
F0.00054764512595837896
sS"{'G_ap': 'DOWNTOWN', 'G_dp': 'SWISSVALE BUS STATION', 'G_bn': '', 'G_tt': 'now'}"
p1002
F0.00054764512595837896
sS"{'G_ap': 'OAKLAND', 'G_dp': 'WILKINSBURG', 'G_bn': '', 'G_tt': '2330'}"
p1003
F0.0010952902519167579
sS"{'G_ap': 'DUQUESNE', 'G_dp': 'FIFTH', 'G_bn': '', 'G_tt': 'now'}"
p1004
F0.00054764512595837896
sS"{'G_ap': 'EAST HILLS', 'G_dp': 'LIBERTY', 'G_bn': '', 'G_tt': 'now'}"
p1005
F0.00054764512595837896
sS"{'G_ap': 'DOWNTOWN', 'G_dp': 'NEVILLE', 'G_bn': '', 'G_tt': 'now'}"
p1006
F0.00054764512595837896
sS"{'G_ap': 'SWISSVALE', 'G_dp': 'OAKLAND', 'G_bn': '', 'G_tt': 'now'}"
p1007
F0.0010952902519167579
sS"{'G_ap': 'BRADDOCK', 'G_dp': 'DYNAMO WAY', 'G_bn': '', 'G_tt': '1800'}"
p1008
F0.00054764512595837896
sS"{'G_ap': 'WALL', 'G_dp': 'NORTH', 'G_bn': '', 'G_tt': '2030'}"
p1009
F0.00054764512595837896
sS"{'G_ap': 'PITTSBURGH', 'G_dp': 'OAKLAND', 'G_bn': '', 'G_tt': '2030'}"
p1010
F0.00054764512595837896
sS"{'G_ap': 'DOWNTOWN', 'G_dp': 'KENNEDY', 'G_bn': '', 'G_tt': 'now'}"
p1011
F0.00054764512595837896
sS"{'G_ap': 'DOWNTOWN', 'G_dp': 'TRANSPORTATION CENTER', 'G_bn': '', 'G_tt': 'now'}"
p1012
F0.00054764512595837896
sS"{'G_ap': 'DOWNTOWN', 'G_dp': 'MILLVALE', 'G_bn': '', 'G_tt': '800'}"
p1013
F0.00054764512595837896
sS"{'G_ap': 'ZOO', 'G_dp': 'DOWNTOWN', 'G_bn': '', 'G_tt': 'now'}"
p1014
F0.00054764512595837896
sS"{'G_ap': 'PITTSBURGH', 'G_dp': 'NORTH', 'G_bn': 'O4', 'G_tt': '2100'}"
p1015
F0.00054764512595837896
sS"{'G_ap': 'EAST HILLS', 'G_dp': 'WALL', 'G_bn': '', 'G_tt': '2000'}"
p1016
F0.00054764512595837896
sS"{'G_ap': 'WALLACE', 'G_dp': 'CENTER', 'G_bn': '', 'G_tt': '2000'}"
p1017
F0.00054764512595837896
sS"{'G_ap': 'CENTURY THREE', 'G_dp': 'HOMESTEAD', 'G_bn': '', 'G_tt': 'now'}"
p1018
F0.00054764512595837896
sS"{'G_ap': 'WILKINSBURG', 'G_dp': 'TURTLE CREEK', 'G_bn': '', 'G_tt': 'now'}"
p1019
F0.0010952902519167579
sS"{'G_ap': 'HOMESTEAD', 'G_dp': 'DOWNTOWN', 'G_bn': '', 'G_tt': '2000'}"
p1020
F0.00054764512595837896
sS"{'G_ap': 'OAKLAND', 'G_dp': 'EIGHTH', 'G_bn': '', 'G_tt': 'now'}"
p1021
F0.00054764512595837896
sS"{'G_ap': 'SCOTT', 'G_dp': 'MCKEESPORT', 'G_bn': '', 'G_tt': 'now'}"
p1022
F0.00054764512595837896
sS"{'G_ap': 'OAKLAND', 'G_dp': 'SHADYSIDE', 'G_bn': '71D', 'G_tt': 'now'}"
p1023
F0.00054764512595837896
sS"{'G_ap': 'MCKEESPORT', 'G_dp': 'SMITHFIELD', 'G_bn': '', 'G_tt': 'now'}"
p1024
F0.00054764512595837896
sS"{'G_ap': 'DOWNTOWN PITTSBURGH', 'G_dp': 'BELLEFIELD', 'G_bn': '', 'G_tt': '1800'}"
p1025
F0.00054764512595837896
sS"{'G_ap': 'THE NORTH SIDE', 'G_dp': 'LIBERTY AVENUE', 'G_bn': '', 'G_tt': 'now'}"
p1026
F0.00054764512595837896
sS"{'G_ap': 'DOWNTOWN', 'G_dp': 'CARNEGIE MELLON UNIVERSITY', 'G_bn': '', 'G_tt': 'now'}"
p1027
F0.0016429353778751369
sS"{'G_ap': 'BLOOMFIELD', 'G_dp': 'CENTRE AT CRAIG', 'G_bn': '', 'G_tt': '830'}"
p1028
F0.00054764512595837896
sS"{'G_ap': 'HIGHLAND AVENUE', 'G_dp': 'DOWNTOWN', 'G_bn': '', 'G_tt': '2000'}"
p1029
F0.00054764512595837896
sS"{'G_ap': 'SOUTH SIDE', 'G_dp': 'OAKLAND', 'G_bn': '', 'G_tt': '700'}"
p1030
F0.00054764512595837896
sS"{'G_ap': 'EAST LIBERTY', 'G_dp': 'TURTLE CREEK', 'G_bn': '', 'G_tt': '1500'}"
p1031
F0.00054764512595837896
sS"{'G_ap': 'OAKLAND', 'G_dp': 'WEST PENN HOSPITAL', 'G_bn': '', 'G_tt': 'now'}"
p1032
F0.00054764512595837896
sS"{'G_ap': 'HOMESTEAD', 'G_dp': 'KENNYWOOD', 'G_bn': '', 'G_tt': 'now'}"
p1033
F0.0016429353778751369
sS"{'G_ap': 'EAST PITTSBURGH', 'G_dp': 'WILMERDING', 'G_bn': '', 'G_tt': 'now'}"
p1034
F0.00054764512595837896
sS"{'G_ap': 'HOMESTEAD', 'G_dp': 'MCKEESPORT', 'G_bn': '', 'G_tt': '2330'}"
p1035
F0.00054764512595837896
sS"{'G_ap': 'LAWRENCEVILLE', 'G_dp': 'WILKINS', 'G_bn': '', 'G_tt': 'now'}"
p1036
F0.00054764512595837896
sS"{'G_ap': 'DOWNTOWN PITTSBURGH', 'G_dp': 'MCKEESPORT', 'G_bn': '', 'G_tt': '500'}"
p1037
F0.00054764512595837896
sS"{'G_ap': 'GREENFIELD', 'G_dp': 'EAST LIBERTY', 'G_bn': '', 'G_tt': '1900'}"
p1038
F0.00054764512595837896
sS"{'G_ap': 'FIFTH', 'G_dp': 'CHURCHILL', 'G_bn': '', 'G_tt': '700'}"
p1039
F0.00054764512595837896
sS"{'G_ap': 'EAST PITTSBURGH', 'G_dp': 'NORTH', 'G_bn': '', 'G_tt': 'now'}"
p1040
F0.00054764512595837896
sS"{'G_ap': 'DUQUESNE', 'G_dp': 'DUQUESNE', 'G_bn': '', 'G_tt': '800'}"
p1041
F0.00054764512595837896
sS"{'G_ap': 'OAKLAND', 'G_dp': 'DOWNTOWN', 'G_bn': '', 'G_tt': '2300'}"
p1042
F0.0021905805038335158
sS"{'G_ap': 'DOWNTOWN', 'G_dp': 'MCKEESPORT', 'G_bn': '', 'G_tt': '600'}"
p1043
F0.00054764512595837896
sS"{'G_ap': 'TRAFFORD', 'G_dp': 'DOWNTOWN', 'G_bn': '', 'G_tt': 'now'}"
p1044
F0.0027382256297918948
sS"{'G_ap': 'EAST LIBERTY', 'G_dp': 'OAKLAND', 'G_bn': '', 'G_tt': '40'}"
p1045
F0.00054764512595837896
sS"{'G_ap': 'DOWNTOWN', 'G_dp': 'VERONA', 'G_bn': '', 'G_tt': '900'}"
p1046
F0.00054764512595837896
sS"{'G_ap': 'OAKMONT', 'G_dp': 'WILKINSBURG', 'G_bn': '', 'G_tt': 'now'}"
p1047
F0.00054764512595837896
sS"{'G_ap': 'MCKEESPORT', 'G_dp': 'FORBES AT ATWOOD', 'G_bn': '61C', 'G_tt': 'now'}"
p1048
F0.0016429353778751369
sS"{'G_ap': 'FRANKSTOWN AVENUE', 'G_dp': 'OAKLAND', 'G_bn': '', 'G_tt': '1500'}"
p1049
F0.00054764512595837896
sS"{'G_ap': 'MCKEESPORT', 'G_dp': 'WATERFRONT', 'G_bn': '', 'G_tt': '2040'}"
p1050
F0.00054764512595837896
sS"{'G_ap': 'THE HILTON', 'G_dp': 'MCKEESPORT', 'G_bn': '', 'G_tt': '2335'}"
p1051
F0.00054764512595837896
sS"{'G_ap': 'DOWNTOWN', 'G_dp': 'LAWRENCEVILLE', 'G_bn': '', 'G_tt': '2300'}"
p1052
F0.00054764512595837896
sS"{'G_ap': 'CARNEGIE', 'G_dp': 'DOWNTOWN PITTSBURGH', 'G_bn': '', 'G_tt': 'now'}"
p1053
F0.0010952902519167579
sS"{'G_ap': 'BLACKRIDGE', 'G_dp': 'DOWNTOWN', 'G_bn': '', 'G_tt': '800'}"
p1054
F0.00054764512595837896
sS"{'G_ap': 'OAKLAND', 'G_dp': 'WILKINSBURG STATION', 'G_bn': '', 'G_tt': 'now'}"
p1055
F0.00054764512595837896
sS"{'G_ap': 'FOURTH', 'G_dp': 'FORBES AND MURRAY', 'G_bn': '', 'G_tt': '0'}"
p1056
F0.00054764512595837896
sS"{'G_ap': 'NORTH SIDE', 'G_dp': 'OAKLAND', 'G_bn': '', 'G_tt': 'now'}"
p1057
F0.0021905805038335158
sS"{'G_ap': 'SOUTH SIDE', 'G_dp': 'FIFTH AND THACKERAY', 'G_bn': '', 'G_tt': 'now'}"
p1058
F0.00054764512595837896
sS"{'G_ap': 'OAKLAND', 'G_dp': 'CARSON AND TWENTY SECOND', 'G_bn': '', 'G_tt': 'now'}"
p1059
F0.00054764512595837896
sS"{'G_ap': 'TRAFFORD', 'G_dp': 'MCKEESPORT', 'G_bn': '', 'G_tt': '530'}"
p1060
F0.00054764512595837896
sS"{'G_ap': 'OAKLAND', 'G_dp': 'SWISSVALE', 'G_bn': '', 'G_tt': '600'}"
p1061
F0.0010952902519167579
sS"{'G_ap': 'NEGLEY', 'G_dp': 'CRAIG AND PARK PLAZA', 'G_bn': '71A', 'G_tt': 'now'}"
p1062
F0.00054764512595837896
sS"{'G_ap': 'MCKEESPORT', 'G_dp': 'DOWNTOWN PITTSBURGH', 'G_bn': '', 'G_tt': '1930'}"
p1063
F0.00054764512595837896
sS"{'G_ap': 'WILKINSBURG', 'G_dp': 'GIANT EAGLE', 'G_bn': '', 'G_tt': '2000'}"
p1064
F0.00054764512595837896
sS"{'G_ap': 'OAKLAND', 'G_dp': 'CARNEGIE', 'G_bn': '', 'G_tt': '900'}"
p1065
F0.00054764512595837896
sS"{'G_ap': 'WILKINSBURG', 'G_dp': 'ROBINSON', 'G_bn': '', 'G_tt': '1900'}"
p1066
F0.00054764512595837896
sS"{'G_ap': 'SOUTH SIDE', 'G_dp': 'CENTRE AVENUE AND EWART', 'G_bn': '', 'G_tt': 'now'}"
p1067
F0.00054764512595837896
sS"{'G_ap': 'MCKEESPORT', 'G_dp': 'OAKLAND', 'G_bn': '', 'G_tt': '2300'}"
p1068
F0.0010952902519167579
sS"{'G_ap': 'OAKLAND', 'G_dp': 'NORTH BRADDOCK', 'G_bn': '', 'G_tt': '900'}"
p1069
F0.00054764512595837896
sS"{'G_ap': 'SOUTH SIDE', 'G_dp': 'WEBSTER', 'G_bn': '83', 'G_tt': '2300'}"
p1070
F0.00054764512595837896
sS"{'G_ap': 'DOWNTOWN', 'G_dp': 'MONROEVILLE', 'G_bn': '', 'G_tt': '2200'}"
p1071
F0.00054764512595837896
sS"{'G_ap': 'AIRPORT', 'G_dp': 'PITT', 'G_bn': '', 'G_tt': '600'}"
p1072
F0.00054764512595837896
sS"{'G_ap': 'MILLVALE', 'G_dp': 'WILKINSBURG', 'G_bn': '', 'G_tt': '2000'}"
p1073
F0.00054764512595837896
sS"{'G_ap': 'MONROEVILLE', 'G_dp': 'OAKLAND', 'G_bn': '', 'G_tt': '500'}"
p1074
F0.00054764512595837896
sS"{'G_ap': 'OAKLAND', 'G_dp': 'HOMESTEAD', 'G_bn': '', 'G_tt': '730'}"
p1075
F0.0010952902519167579
sS"{'G_ap': 'MURRAY AND LORETTA', 'G_dp': 'FORBES AND MOREWOOD', 'G_bn': '', 'G_tt': 'now'}"
p1076
F0.00054764512595837896
sS"{'G_ap': 'SWISSVALE', 'G_dp': 'NORTH BRADDOCK', 'G_bn': '', 'G_tt': 'now'}"
p1077
F0.00054764512595837896
sS"{'G_ap': 'DOWNTOWN', 'G_dp': 'MARYLAND', 'G_bn': '', 'G_tt': 'now'}"
p1078
F0.00054764512595837896
sS"{'G_ap': 'DOWNTOWN', 'G_dp': 'MCKEESPORT TRANSPORTATION CENTER', 'G_bn': '', 'G_tt': 'now'}"
p1079
F0.00054764512595837896
sS"{'G_ap': 'NEGLEY', 'G_dp': 'CRAIG AND PARK PLAZA', 'G_bn': '', 'G_tt': 'now'}"
p1080
F0.00054764512595837896
sS"{'G_ap': 'WALL', 'G_dp': 'WEST CARSON STREET', 'G_bn': '', 'G_tt': 'now'}"
p1081
F0.00054764512595837896
sS"{'G_ap': 'SHADYSIDE HOSPITAL', 'G_dp': 'ELECTRIC AVENUE', 'G_bn': '', 'G_tt': '0'}"
p1082
F0.00054764512595837896
sS"{'G_ap': 'MCKEESPORT', 'G_dp': 'FORBES AND ATWOOD', 'G_bn': '', 'G_tt': '700'}"
p1083
F0.00054764512595837896
sS"{'G_ap': 'OAKLAND', 'G_dp': 'MONONGAHELA AND WASHINGTON', 'G_bn': '', 'G_tt': '1730'}"
p1084
F0.00054764512595837896
sS"{'G_ap': 'DOWNTOWN', 'G_dp': 'KIRKPATRICK', 'G_bn': '', 'G_tt': 'now'}"
p1085
F0.00054764512595837896
sS"{'G_ap': 'HULTON AND PENNSYLVANIA', 'G_dp': 'PITTSBURGH', 'G_bn': '', 'G_tt': 'now'}"
p1086
F0.00054764512595837896
sS"{'G_ap': 'CRAWFORD', 'G_dp': 'MCKEESPORT', 'G_bn': '', 'G_tt': '500'}"
p1087
F0.00054764512595837896
sS"{'G_ap': 'DOWNTOWN', 'G_dp': 'LAWRENCEVILLE', 'G_bn': '', 'G_tt': 'now'}"
p1088
F0.00054764512595837896
sS"{'G_ap': 'DOWNTOWN', 'G_dp': 'OVERBROOK', 'G_bn': '', 'G_tt': 'now'}"
p1089
F0.00054764512595837896
sS"{'G_ap': 'GRANT', 'G_dp': 'SOUTH HILLS JUNCTION', 'G_bn': '54C', 'G_tt': 'now'}"
p1090
F0.00054764512595837896
sS"{'G_ap': 'FORBES AND DEVON', 'G_dp': 'FORBES AND CRAIG', 'G_bn': '', 'G_tt': '2100'}"
p1091
F0.00054764512595837896
sS"{'G_ap': 'OAKLAND', 'G_dp': 'OAK HILL', 'G_bn': '', 'G_tt': '2030'}"
p1092
F0.00054764512595837896
sS"{'G_ap': 'WEST PENN', 'G_dp': 'SOUTH HILLS JUNCTION', 'G_bn': '', 'G_tt': 'now'}"
p1093
F0.00054764512595837896
sS"{'G_ap': 'THE AIRPORT', 'G_dp': 'NEGLEY', 'G_bn': '', 'G_tt': '2000'}"
p1094
F0.0010952902519167579
sS"{'G_ap': 'WILKINSBURG', 'G_dp': 'TRANSPORTATION CENTER', 'G_bn': '', 'G_tt': 'now'}"
p1095
F0.00054764512595837896
sS"{'G_ap': 'NORTH', 'G_dp': 'LIBERTY AVENUE', 'G_bn': '', 'G_tt': 'now'}"
p1096
F0.00054764512595837896
sS"{'G_ap': 'SOUTH', 'G_dp': 'SOUTH HILLS JUNCTION', 'G_bn': '', 'G_tt': '1230'}"
p1097
F0.00054764512595837896
sS"{'G_ap': 'OAKLAND', 'G_dp': 'KENNYWOOD', 'G_bn': '', 'G_tt': 'now'}"
p1098
F0.00054764512595837896
sS"{'G_ap': 'BRIDGE', 'G_dp': 'SHADY', 'G_bn': '', 'G_tt': '600'}"
p1099
F0.00054764512595837896
sS"{'G_ap': 'NORTH SIDE', 'G_dp': 'DOWNTOWN PITTSBURGH', 'G_bn': '', 'G_tt': '2230'}"
p1100
F0.00054764512595837896
sS"{'G_ap': 'EAST HILLS', 'G_dp': 'WILKINSBURG', 'G_bn': '', 'G_tt': '2100'}"
p1101
F0.00054764512595837896
sS"{'G_ap': 'FOURTH', 'G_dp': 'WILKINSBURG', 'G_bn': '61A', 'G_tt': 'now'}"
p1102
F0.00054764512595837896
sS"{'G_ap': 'HIGHLAND AVENUE AND PENN AVENUE', 'G_dp': 'PENN AVENUE AND FORTIETH STREET', 'G_bn': '', 'G_tt': '530'}"
p1103
F0.00054764512595837896
sS"{'G_ap': 'EAST BUSWAY', 'G_dp': 'DOWNTOWN', 'G_bn': '', 'G_tt': 'now'}"
p1104
F0.00054764512595837896
sS"{'G_ap': 'SQUIRREL HILL', 'G_dp': 'THE WATERFRONT', 'G_bn': '', 'G_tt': 'now'}"
p1105
F0.00054764512595837896
sS"{'G_ap': 'HERRON', 'G_dp': 'POLISH HILL', 'G_bn': '', 'G_tt': 'now'}"
p1106
F0.00054764512595837896
sS"{'G_ap': 'FRANKSTOWN', 'G_dp': 'BRADDOCK', 'G_bn': '', 'G_tt': 'now'}"
p1107
F0.00054764512595837896
sS"{'G_ap': 'HOMESTEAD', 'G_dp': 'DOWNTOWN', 'G_bn': '', 'G_tt': 'now'}"
p1108
F0.0038335158817086527
sS"{'G_ap': 'DOWNTOWN', 'G_dp': 'SPRING HILL', 'G_bn': '', 'G_tt': 'now'}"
p1109
F0.0016429353778751369
sS"{'G_ap': 'PITTSBURGH', 'G_dp': 'MONROEVILLE', 'G_bn': '67', 'G_tt': 'now'}"
p1110
F0.00054764512595837896
sS"{'G_ap': 'WEBSTER AVENUE', 'G_dp': 'DOWNTOWN', 'G_bn': '', 'G_tt': '2200'}"
p1111
F0.00054764512595837896
sS"{'G_ap': 'WOOD STREET', 'G_dp': 'WILKINSBURG STATION', 'G_bn': '', 'G_tt': '2200'}"
p1112
F0.00054764512595837896
sS"{'G_ap': 'OAKLAND', 'G_dp': 'LAWRENCEVILLE', 'G_bn': '', 'G_tt': 'now'}"
p1113
F0.00054764512595837896
sS"{'G_ap': 'THE NORTH SIDE', 'G_dp': 'OAKLAND', 'G_bn': '', 'G_tt': 'now'}"
p1114
F0.00054764512595837896
sS"{'G_ap': 'SOUTH HILLS JUNCTION', 'G_dp': 'CARSON STREET', 'G_bn': '', 'G_tt': 'now'}"
p1115
F0.00054764512595837896
sS"{'G_ap': 'WILKINSBURG', 'G_dp': 'SQUIRREL HILL', 'G_bn': '', 'G_tt': '2030'}"
p1116
F0.00054764512595837896
sS"{'G_ap': 'PENN STATION', 'G_dp': 'HOMEWOOD STATION', 'G_bn': '', 'G_tt': '500'}"
p1117
F0.00054764512595837896
sS"{'G_ap': 'HOMESTEAD', 'G_dp': 'NORTH BRADDOCK', 'G_bn': '', 'G_tt': 'now'}"
p1118
F0.00054764512595837896
sS"{'G_ap': 'SOUTH SIDE', 'G_dp': 'STRIP DISTRICT', 'G_bn': '', 'G_tt': 'now'}"
p1119
F0.00054764512595837896
sS"{'G_ap': 'MCKEESPORT', 'G_dp': 'DUQUESNE', 'G_bn': '', 'G_tt': '700'}"
p1120
F0.00054764512595837896
sS"{'G_ap': 'SQUIRREL HILL', 'G_dp': 'WILKINSBURG STATION', 'G_bn': '', 'G_tt': 'now'}"
p1121
F0.00054764512595837896
sS"{'G_ap': 'MOUNT OLIVER', 'G_dp': 'CHESTERFIELD AND FIFTH', 'G_bn': '', 'G_tt': '700'}"
p1122
F0.00054764512595837896
sS"{'G_ap': 'SOUTH', 'G_dp': 'LAWRENCEVILLE', 'G_bn': '', 'G_tt': '2000'}"
p1123
F0.00054764512595837896
sS"{'G_ap': 'DOWNTOWN', 'G_dp': 'MONROEVILLE', 'G_bn': '', 'G_tt': 'now'}"
p1124
F0.0021905805038335158
sS"{'G_ap': 'HOMESTEAD', 'G_dp': 'MCKEESPORT', 'G_bn': '', 'G_tt': 'now'}"
p1125
F0.0043811610076670317
sS"{'G_ap': 'OAKLAND', 'G_dp': 'ROBINSON TOWNE CENTER', 'G_bn': '', 'G_tt': 'now'}"
p1126
F0.00054764512595837896
sS"{'G_ap': 'PITTSBURGH', 'G_dp': 'MCKEESPORT', 'G_bn': '61C', 'G_tt': '2300'}"
p1127
F0.00054764512595837896
sS"{'G_ap': 'DOWNTOWN', 'G_dp': 'SAINT CLAIR', 'G_bn': '', 'G_tt': 'now'}"
p1128
F0.00054764512595837896
sS"{'G_ap': 'ROBINSON', 'G_dp': 'ROBINSON', 'G_bn': '', 'G_tt': 'now'}"
p1129
F0.00054764512595837896
sS"{'G_ap': 'DOWNTOWN PITTSBURGH', 'G_dp': 'MCKEESPORT TRANSPORTATION CENTER', 'G_bn': '', 'G_tt': 'now'}"
p1130
F0.00054764512595837896
sS"{'G_ap': 'TRAFFORD', 'G_dp': 'PITT', 'G_bn': '', 'G_tt': 'now'}"
p1131
F0.00054764512595837896
sS"{'G_ap': 'MCKEESPORT', 'G_dp': 'DUQUESNE', 'G_bn': '', 'G_tt': '2030'}"
p1132
F0.0010952902519167579
sS"{'G_ap': 'TURTLE CREEK', 'G_dp': 'DOWNTOWN PITTSBURGH', 'G_bn': '', 'G_tt': 'now'}"
p1133
F0.0010952902519167579
sS"{'G_ap': 'NORTH', 'G_dp': 'DOWNTOWN', 'G_bn': '', 'G_tt': 'now'}"
p1134
F0.00054764512595837896
sS"{'G_ap': 'BRADDOCK', 'G_dp': 'SWISSVALE', 'G_bn': '', 'G_tt': '700'}"
p1135
F0.00054764512595837896
sS"{'G_ap': 'HIGHLAND PARK', 'G_dp': 'PITTSBURGH', 'G_bn': '', 'G_tt': 'now'}"
p1136
F0.00054764512595837896
sS"{'G_ap': 'POINT BREEZE', 'G_dp': 'TURTLE CREEK', 'G_bn': '', 'G_tt': '800'}"
p1137
F0.00054764512595837896
sS"{'G_ap': 'OAKLAND', 'G_dp': 'EAST HILLS', 'G_bn': '', 'G_tt': '1900'}"
p1138
F0.00054764512595837896
sS"{'G_ap': 'BRADDOCK', 'G_dp': 'OAKLAND', 'G_bn': '61B', 'G_tt': 'now'}"
p1139
F0.00054764512595837896
sS"{'G_ap': 'DOWNTOWN', 'G_dp': 'SOUTH SIDE', 'G_bn': '', 'G_tt': 'now'}"
p1140
F0.0010952902519167579
sS"{'G_ap': 'WELFER', 'G_dp': 'DOWNTOWN', 'G_bn': '', 'G_tt': '700'}"
p1141
F0.00054764512595837896
sS"{'G_ap': 'MALL', 'G_dp': 'SECOND AND GRANT', 'G_bn': '', 'G_tt': 'now'}"
p1142
F0.00054764512595837896
sS"{'G_ap': 'LAWRENCEVILLE', 'G_dp': 'ARLINGTON AVENUE', 'G_bn': 'G', 'G_tt': '700'}"
p1143
F0.00054764512595837896
sS"{'G_ap': 'EAST', 'G_dp': 'DOWNTOWN', 'G_bn': '', 'G_tt': 'now'}"
p1144
F0.00054764512595837896
sS"{'G_ap': 'MCKEESPORT', 'G_dp': 'DOWNTOWN PITTSBURGH', 'G_bn': '61C', 'G_tt': 'now'}"
p1145
F0.00054764512595837896
sS"{'G_ap': 'EAST LIBERTY', 'G_dp': 'DOWNTOWN PITTSBURGH', 'G_bn': '', 'G_tt': 'now'}"
p1146
F0.0010952902519167579
sS"{'G_ap': 'EAST PITTSBURGH', 'G_dp': 'TRAFFORD', 'G_bn': '69', 'G_tt': '2030'}"
p1147
F0.00054764512595837896
sS"{'G_ap': 'OAKLAND', 'G_dp': 'ELECTRIC AVENUE', 'G_bn': '', 'G_tt': 'now'}"
p1148
F0.00054764512595837896
sS"{'G_ap': 'RODI', 'G_dp': 'THE MALL', 'G_bn': '', 'G_tt': '800'}"
p1149
F0.00054764512595837896
sS"{'G_ap': 'DOWNTOWN PITTSBURGH', 'G_dp': 'MCKEESPORT', 'G_bn': '', 'G_tt': '900'}"
p1150
F0.00054764512595837896
sS"{'G_ap': 'HOMESTEAD', 'G_dp': 'FRANKSTOWN AVENUE', 'G_bn': '', 'G_tt': 'now'}"
p1151
F0.00054764512595837896
sS"{'G_ap': 'DOWNTOWN PITTSBURGH', 'G_dp': 'SWISSVALE', 'G_bn': 'EBA', 'G_tt': 'now'}"
p1152
F0.00054764512595837896
sS"{'G_ap': 'DOWNTOWN', 'G_dp': 'DOWNTOWN', 'G_bn': '', 'G_tt': '2200'}"
p1153
F0.00054764512595837896
sS"{'G_ap': 'WOODSTOCK AND MELROSE', 'G_dp': 'SOUTH', 'G_bn': '', 'G_tt': '1900'}"
p1154
F0.00054764512595837896
sS"{'G_ap': 'DUQUESNE', 'G_dp': 'DOWNTOWN', 'G_bn': '', 'G_tt': 'now'}"
p1155
F0.00054764512595837896
sS"{'G_ap': 'WILKINSBURG', 'G_dp': 'WOODSTOCK AVENUE', 'G_bn': '', 'G_tt': 'now'}"
p1156
F0.00054764512595837896
sS"{'G_ap': 'FORBES AND MURRAY', 'G_dp': 'NEGLEY AND ELLSWORTH', 'G_bn': '', 'G_tt': 'now'}"
p1157
F0.00054764512595837896
sS"{'G_ap': 'MOUNT OLIVER', 'G_dp': 'OAKLAND', 'G_bn': '', 'G_tt': 'now'}"
p1158
F0.0021905805038335158
sS"{'G_ap': 'DOWNTOWN', 'G_dp': 'HOMESTEAD', 'G_bn': '', 'G_tt': '700'}"
p1159
F0.00054764512595837896
sS"{'G_ap': 'DOWNTOWN PITTSBURGH', 'G_dp': 'WESTWOOD', 'G_bn': '', 'G_tt': '2100'}"
p1160
F0.00054764512595837896
sS"{'G_ap': 'DOWNTOWN', 'G_dp': 'BELLEVUE', 'G_bn': '', 'G_tt': '530'}"
p1161
F0.00054764512595837896
sS"{'G_ap': 'PITTSBURGH', 'G_dp': 'DUQUESNE', 'G_bn': '', 'G_tt': '430'}"
p1162
F0.00054764512595837896
sS"{'G_ap': 'COAL', 'G_dp': 'BRIDGE', 'G_bn': '', 'G_tt': 'now'}"
p1163
F0.00054764512595837896
sS"{'G_ap': 'OAKLAND', 'G_dp': 'MCKEESPORT', 'G_bn': '', 'G_tt': '530'}"
p1164
F0.00054764512595837896
sS"{'G_ap': 'MIFFLIN', 'G_dp': 'WALL', 'G_bn': '61A', 'G_tt': 'now'}"
p1165
F0.00054764512595837896
sS"{'G_ap': 'LAWRENCEVILLE', 'G_dp': 'FORBES', 'G_bn': '64', 'G_tt': '2030'}"
p1166
F0.00054764512595837896
sS"{'G_ap': 'LAWRENCEVILLE', 'G_dp': 'NEGLEY AVENUE', 'G_bn': '', 'G_tt': 'now'}"
p1167
F0.00054764512595837896
sS"{'G_ap': 'DOWNTOWN', 'G_dp': 'EAST', 'G_bn': '', 'G_tt': '0'}"
p1168
F0.00054764512595837896
sS"{'G_ap': 'SWISSVALE STATION', 'G_dp': 'WATERFRONT', 'G_bn': '', 'G_tt': 'now'}"
p1169
F0.00054764512595837896
sS"{'G_ap': 'DOWNTOWN', 'G_dp': 'RANKIN', 'G_bn': '', 'G_tt': '700'}"
p1170
F0.00054764512595837896
sS"{'G_ap': 'WILMERDING', 'G_dp': 'DYNAMO WAY', 'G_bn': '', 'G_tt': 'now'}"
p1171
F0.0021905805038335158
sS"{'G_ap': 'REYNOLDS AND DALLAS', 'G_dp': 'FORBES AND MURRAY', 'G_bn': '', 'G_tt': 'now'}"
p1172
F0.0010952902519167579
sS"{'G_ap': 'WOOD STREET', 'G_dp': 'MONROEVILLE MALL', 'G_bn': '', 'G_tt': 'now'}"
p1173
F0.00054764512595837896
sS"{'G_ap': 'WATERFRONT', 'G_dp': 'ELECTRIC AVENUE', 'G_bn': '', 'G_tt': 'now'}"
p1174
F0.00054764512595837896
sS"{'G_ap': 'CARNEGIE', 'G_dp': 'BRIDGE', 'G_bn': '', 'G_tt': 'now'}"
p1175
F0.00054764512595837896
sS"{'G_ap': 'CMU', 'G_dp': 'FORBES AND MURRAY', 'G_bn': '', 'G_tt': 'now'}"
p1176
F0.0016429353778751369
sS"{'G_ap': 'DOWNTOWN', 'G_dp': 'MAIN', 'G_bn': '', 'G_tt': '2200'}"
p1177
F0.00054764512595837896
sS"{'G_ap': 'WILKINSBURG', 'G_dp': 'DOWNTOWN', 'G_bn': 'G', 'G_tt': 'now'}"
p1178
F0.00054764512595837896
sS"{'G_ap': 'SOUTH SIDE', 'G_dp': 'NEVILLE AND ELLSWORTH', 'G_bn': '', 'G_tt': 'now'}"
p1179
F0.00054764512595837896
sS"{'G_ap': 'MONROEVILLE', 'G_dp': 'WILKINSBURG STATION', 'G_bn': '', 'G_tt': '2200'}"
p1180
F0.00054764512595837896
sS"{'G_ap': 'MCKEESPORT', 'G_dp': 'HOMESTEAD', 'G_bn': '61C', 'G_tt': '2230'}"
p1181
F0.00054764512595837896
sS"{'G_ap': 'MAIN', 'G_dp': 'DOWNTOWN', 'G_bn': '', 'G_tt': 'now'}"
p1182
F0.00054764512595837896
sS"{'G_ap': 'HILL', 'G_dp': 'HOMESTEAD', 'G_bn': '', 'G_tt': 'now'}"
p1183
F0.00054764512595837896
sS"{'G_ap': 'HILL', 'G_dp': 'PITTSBURGH', 'G_bn': '', 'G_tt': 'now'}"
p1184
F0.00054764512595837896
sS"{'G_ap': 'DOWNTOWN', 'G_dp': 'WALL', 'G_bn': '', 'G_tt': '500'}"
p1185
F0.00054764512595837896
sS"{'G_ap': 'BRADDOCK', 'G_dp': 'FORBES AND MURRAY', 'G_bn': '', 'G_tt': '2300'}"
p1186
F0.00054764512595837896
sS"{'G_ap': 'MONROEVILLE', 'G_dp': 'ROSS STREET', 'G_bn': '', 'G_tt': 'now'}"
p1187
F0.00054764512595837896
sS"{'G_ap': 'MONROEVILLE', 'G_dp': 'ROSS', 'G_bn': '', 'G_tt': 'now'}"
p1188
F0.0010952902519167579
sS"{'G_ap': 'STRIP DISTRICT', 'G_dp': 'ALLEGHENY SQUARE', 'G_bn': '', 'G_tt': 'now'}"
p1189
F0.0010952902519167579
sS"{'G_ap': 'WATERFRONT', 'G_dp': 'CENTER', 'G_bn': '', 'G_tt': 'now'}"
p1190
F0.00054764512595837896
sS"{'G_ap': 'DOWNTOWN', 'G_dp': 'WILKINSBURG', 'G_bn': '', 'G_tt': '500'}"
p1191
F0.0010952902519167579
sS"{'G_ap': 'WILKINSBURG', 'G_dp': 'SWISSVALE BUS STATION', 'G_bn': '', 'G_tt': '700'}"
p1192
F0.00054764512595837896
sS"{'G_ap': 'THE AIRPORT', 'G_dp': 'CARNEGIE MELLON', 'G_bn': '', 'G_tt': '1700'}"
p1193
F0.0010952902519167579
sS"{'G_ap': 'EAST HILLS', 'G_dp': 'OAKLAND', 'G_bn': '', 'G_tt': 'now'}"
p1194
F0.00054764512595837896
sS"{'G_ap': 'DOWNTOWN', 'G_dp': 'CRAFTON', 'G_bn': '', 'G_tt': '2330'}"
p1195
F0.00054764512595837896
sS"{'G_ap': 'DUQUESNE', 'G_dp': 'MCKEESPORT', 'G_bn': '', 'G_tt': '2000'}"
p1196
F0.00054764512595837896
sS"{'G_ap': 'HIGHLAND PARK', 'G_dp': 'BLOOMFIELD', 'G_bn': '', 'G_tt': 'now'}"
p1197
F0.0010952902519167579
sS"{'G_ap': 'SQUIRREL HILL', 'G_dp': 'CMU', 'G_bn': '', 'G_tt': 'now'}"
p1198
F0.0016429353778751369
sS"{'G_ap': 'DOWNTOWN', 'G_dp': 'MURRAY AND PHILLIPS', 'G_bn': '', 'G_tt': 'now'}"
p1199
F0.00054764512595837896
sS"{'G_ap': 'FIFTH AND KIRKPATRICK', 'G_dp': 'BROWNSVILLE', 'G_bn': '', 'G_tt': 'now'}"
p1200
F0.00054764512595837896
sS"{'G_ap': 'SWISSVALE', 'G_dp': 'EAST LIBERTY STATION', 'G_bn': '', 'G_tt': 'now'}"
p1201
F0.00054764512595837896
sS"{'G_ap': 'POINT BREEZE', 'G_dp': 'SOUTH SIDE', 'G_bn': '', 'G_tt': 'now'}"
p1202
F0.00054764512595837896
sS"{'G_ap': 'DOWNTOWN', 'G_dp': 'MOUND AND FOURTH', 'G_bn': '', 'G_tt': '2300'}"
p1203
F0.00054764512595837896
sS"{'G_ap': 'CENTURY THREE MALL', 'G_dp': 'CARSON', 'G_bn': '', 'G_tt': '1930'}"
p1204
F0.00054764512595837896
sS"{'G_ap': 'DUQUESNE', 'G_dp': 'CENTURY THREE MALL', 'G_bn': '', 'G_tt': 'now'}"
p1205
F0.00054764512595837896
sS"{'G_ap': 'FOREST HILLS', 'G_dp': 'DOWNTOWN', 'G_bn': '', 'G_tt': '600'}"
p1206
F0.00054764512595837896
sS"{'G_ap': 'STATION', 'G_dp': 'BLOOMFIELD', 'G_bn': '', 'G_tt': '530'}"
p1207
F0.00054764512595837896
sS"{'G_ap': 'WATERFRONT', 'G_dp': 'DOWNTOWN', 'G_bn': '', 'G_tt': '2200'}"
p1208
F0.00054764512595837896
sS"{'G_ap': 'WILKINSBURG', 'G_dp': 'EAST PITTSBURGH', 'G_bn': '', 'G_tt': 'now'}"
p1209
F0.00054764512595837896
sS"{'G_ap': 'DOWNTOWN', 'G_dp': 'GRANT', 'G_bn': '', 'G_tt': '2000'}"
p1210
F0.00054764512595837896
sS"{'G_ap': 'WEST PENN HOSPITAL', 'G_dp': 'EAST LIBERTY', 'G_bn': '', 'G_tt': '800'}"
p1211
F0.00054764512595837896
sS"{'G_ap': 'DOWNTOWN', 'G_dp': 'KENNYWOOD', 'G_bn': '', 'G_tt': 'now'}"
p1212
F0.0010952902519167579
sS"{'G_ap': 'SQUIRREL HILL', 'G_dp': 'SWISSVALE STATION', 'G_bn': '', 'G_tt': 'now'}"
p1213
F0.00054764512595837896
sS"{'G_ap': 'COURTHOUSE', 'G_dp': 'SPRING HILL', 'G_bn': '', 'G_tt': '630'}"
p1214
F0.00054764512595837896
sS"{'G_ap': 'DOWNTOWN', 'G_dp': 'NORTH', 'G_bn': '', 'G_tt': 'now'}"
p1215
F0.0010952902519167579
sS"{'G_ap': 'DOWNTOWN PITTSBURGH', 'G_dp': 'SCHOOL', 'G_bn': '', 'G_tt': 'now'}"
p1216
F0.00054764512595837896
sS"{'G_ap': 'OAKLAND', 'G_dp': 'TOWNSHIP', 'G_bn': '', 'G_tt': 'now'}"
p1217
F0.00054764512595837896
sS"{'G_ap': 'DOWNTOWN', 'G_dp': 'INGRAM STATION', 'G_bn': '', 'G_tt': 'now'}"
p1218
F0.00054764512595837896
sS"{'G_ap': 'GREENFIELD', 'G_dp': 'DOWNTOWN', 'G_bn': '', 'G_tt': 'now'}"
p1219
F0.0021905805038335158
sS"{'G_ap': 'WILKINSBURG', 'G_dp': 'WILKINSBURG', 'G_bn': '', 'G_tt': '700'}"
p1220
F0.00054764512595837896
sS"{'G_ap': 'OAKLAND', 'G_dp': 'HAZELWOOD', 'G_bn': '', 'G_tt': '1900'}"
p1221
F0.00054764512595837896
sS"{'G_ap': 'MOUNT OLIVER', 'G_dp': 'CHESTERFIELD AT FIFTH', 'G_bn': '', 'G_tt': '700'}"
p1222
F0.00054764512595837896
sS"{'G_ap': 'AIRPORT', 'G_dp': 'CMU', 'G_bn': '', 'G_tt': 'now'}"
p1223
F0.00054764512595837896
sS"{'G_ap': 'OAKLAND', 'G_dp': 'MCKEESPORT', 'G_bn': '61C', 'G_tt': 'now'}"
p1224
F0.0010952902519167579
sS"{'G_ap': 'DOWNTOWN', 'G_dp': 'MCKEE', 'G_bn': '', 'G_tt': '2200'}"
p1225
F0.00054764512595837896
sS"{'G_ap': 'WILKINSBURG', 'G_dp': 'TURTLE CREEK', 'G_bn': '', 'G_tt': '2200'}"
p1226
F0.00054764512595837896
sS"{'G_ap': 'EAST LIBERTY', 'G_dp': 'DOWNTOWN', 'G_bn': '', 'G_tt': '2230'}"
p1227
F0.00054764512595837896
sS"{'G_ap': 'DOWNTOWN', 'G_dp': 'FRANKSTOWN', 'G_bn': '', 'G_tt': 'now'}"
p1228
F0.00054764512595837896
sS"{'G_ap': 'TURTLE CREEK', 'G_dp': 'TURTLE CREEK', 'G_bn': '', 'G_tt': 'now'}"
p1229
F0.00054764512595837896
sS"{'G_ap': 'OAKLAND', 'G_dp': 'BLOOMFIELD', 'G_bn': '', 'G_tt': '2030'}"
p1230
F0.0032858707557502738
sS"{'G_ap': 'MURRAY AND FORBES', 'G_dp': 'BRADDOCK', 'G_bn': '', 'G_tt': 'now'}"
p1231
F0.00054764512595837896
sS"{'G_ap': 'MCKEESPORT', 'G_dp': 'SQUIRREL HILL', 'G_bn': '', 'G_tt': 'now'}"
p1232
F0.00054764512595837896
sS"{'G_ap': 'MCKEESPORT', 'G_dp': 'BROOKLINE', 'G_bn': '', 'G_tt': '1900'}"
p1233
F0.00054764512595837896
sS"{'G_ap': 'EAST BUSWAY', 'G_dp': 'DOWNTOWN PITTSBURGH', 'G_bn': '', 'G_tt': 'now'}"
p1234
F0.00054764512595837896
sS"{'G_ap': 'SQUIRREL HILL', 'G_dp': 'LAWRENCEVILLE', 'G_bn': '', 'G_tt': 'now'}"
p1235
F0.0016429353778751369
sS"{'G_ap': 'DOWNTOWN', 'G_dp': 'NORTH SIDE', 'G_bn': '', 'G_tt': '30'}"
p1236
F0.00054764512595837896
sS"{'G_ap': 'SWISSVALE', 'G_dp': 'EAST LIBERTY', 'G_bn': '', 'G_tt': 'now'}"
p1237
F0.00054764512595837896
sS"{'G_ap': 'DOWNTOWN PITTSBURGH', 'G_dp': 'HAZELWOOD', 'G_bn': '', 'G_tt': '600'}"
p1238
F0.00054764512595837896
sS"{'G_ap': 'DOWNTOWN', 'G_dp': 'MCKEESPORT', 'G_bn': '61C', 'G_tt': 'now'}"
p1239
F0.0010952902519167579
sS"{'G_ap': 'SHADYSIDE', 'G_dp': 'SQUIRREL HILL', 'G_bn': '', 'G_tt': 'now'}"
p1240
F0.00054764512595837896
sS"{'G_ap': 'BLOOMFIELD', 'G_dp': 'LIBERTY AT HERRON', 'G_bn': '', 'G_tt': 'now'}"
p1241
F0.00054764512595837896
sS"{'G_ap': 'MONROEVILLE', 'G_dp': 'DOWNTOWN PITTSBURGH', 'G_bn': '', 'G_tt': '1130'}"
p1242
F0.00054764512595837896
sS"{'G_ap': 'OAKLAND', 'G_dp': 'AIRPORT', 'G_bn': '', 'G_tt': 'now'}"
p1243
F0.00054764512595837896
sS"{'G_ap': 'SQUIRREL HILL', 'G_dp': 'MCKEESPORT', 'G_bn': '', 'G_tt': 'now'}"
p1244
F0.0016429353778751369
sS"{'G_ap': 'ELLSWORTH', 'G_dp': 'LIBERTY AVENUE', 'G_bn': '', 'G_tt': '2300'}"
p1245
F0.00054764512595837896
sS"{'G_ap': 'MERCY HOSPITAL', 'G_dp': 'TWENTIETH', 'G_bn': '', 'G_tt': '1700'}"
p1246
F0.00054764512595837896
sS"{'G_ap': 'CHURCHILL', 'G_dp': 'MCKEE', 'G_bn': '', 'G_tt': '700'}"
p1247
F0.00054764512595837896
sS"{'G_ap': 'SQUIRREL HILL', 'G_dp': 'DOWNTOWN', 'G_bn': '61C', 'G_tt': '2300'}"
p1248
F0.0016429353778751369
sS"{'G_ap': 'DOWNTOWN', 'G_dp': 'CARNEGIE', 'G_bn': '', 'G_tt': 'now'}"
p1249
F0.00054764512595837896
sS"{'G_ap': 'DOWNTOWN', 'G_dp': 'MIFFLIN', 'G_bn': '', 'G_tt': 'now'}"
p1250
F0.00054764512595837896
sS"{'G_ap': 'PENN AND NEGLEY', 'G_dp': 'CRAIG AND PARK PLAZA', 'G_bn': '', 'G_tt': 'now'}"
p1251
F0.0010952902519167579
sS"{'G_ap': 'LAWRENCEVILLE', 'G_dp': 'SQUIRREL HILL', 'G_bn': '', 'G_tt': '2000'}"
p1252
F0.00054764512595837896
sS"{'G_ap': 'SOUTH HILLS JUNCTION', 'G_dp': 'BELTZHOOVER AVENUE AND CHARLES', 'G_bn': '', 'G_tt': 'now'}"
p1253
F0.00054764512595837896
sS"{'G_ap': 'FIFTH AVENUE', 'G_dp': 'SWISSVALE AVENUE', 'G_bn': '', 'G_tt': '2100'}"
p1254
F0.00054764512595837896
sS"{'G_ap': 'SQUIRREL HILL', 'G_dp': 'CARNEGIE MELLON', 'G_bn': '', 'G_tt': 'now'}"
p1255
F0.0010952902519167579
sS"{'G_ap': 'MCKEESPORT', 'G_dp': 'FORBES AND MURRAY', 'G_bn': '', 'G_tt': 'now'}"
p1256
F0.0016429353778751369
sS"{'G_ap': 'TURTLE CREEK', 'G_dp': 'WILKINSBURG', 'G_bn': '', 'G_tt': 'now'}"
p1257
F0.0010952902519167579
sS"{'G_ap': 'DOWNTOWN', 'G_dp': 'EAST', 'G_bn': '', 'G_tt': '2000'}"
p1258
F0.00054764512595837896
sS"{'G_ap': 'BRADDOCK', 'G_dp': 'DUQUESNE', 'G_bn': '', 'G_tt': '730'}"
p1259
F0.00054764512595837896
sS"{'G_ap': 'DOWNTOWN PITTSBURGH', 'G_dp': 'BRIGHTON', 'G_bn': '', 'G_tt': '400'}"
p1260
F0.00054764512595837896
sS"{'G_ap': 'MOUNT OLIVER', 'G_dp': 'SOUTH', 'G_bn': '', 'G_tt': 'now'}"
p1261
F0.00054764512595837896
sS"{'G_ap': 'WILMERDING', 'G_dp': 'WILKINSBURG', 'G_bn': '', 'G_tt': 'now'}"
p1262
F0.00054764512595837896
sS"{'G_ap': 'THE JUNCTION', 'G_dp': 'WEST LIBERTY AVENUE', 'G_bn': '', 'G_tt': 'now'}"
p1263
F0.00054764512595837896
sS"{'G_ap': 'CRAIG AND PARK PLAZA', 'G_dp': 'PENN AND NEGLEY', 'G_bn': '', 'G_tt': 'now'}"
p1264
F0.00054764512595837896
sS"{'G_ap': 'SHADYSIDE', 'G_dp': 'SOUTH SIDE', 'G_bn': '', 'G_tt': 'now'}"
p1265
F0.00054764512595837896
sS"{'G_ap': 'WATERFRONT', 'G_dp': 'BLOOMFIELD', 'G_bn': '64', 'G_tt': '1900'}"
p1266
F0.00054764512595837896
sS"{'G_ap': 'SQUIRREL HILL', 'G_dp': 'NORTH BRADDOCK', 'G_bn': '', 'G_tt': 'now'}"
p1267
F0.00054764512595837896
sS"{'G_ap': 'PERRYSVILLE', 'G_dp': 'SHERADEN', 'G_bn': '', 'G_tt': '800'}"
p1268
F0.00054764512595837896
sS"{'G_ap': 'OAKLAND', 'G_dp': 'SWISSVALE', 'G_bn': '', 'G_tt': 'now'}"
p1269
F0.0016429353778751369
sS"{'G_ap': 'AIRPORT', 'G_dp': 'CARNEGIE MELLON', 'G_bn': '', 'G_tt': 'now'}"
p1270
F0.00054764512595837896
sS"{'G_ap': 'PITTSBURGH', 'G_dp': 'OAKMONT', 'G_bn': '', 'G_tt': '700'}"
p1271
F0.00054764512595837896
sS"{'G_ap': 'MCKEESPORT', 'G_dp': 'DUQUESNE', 'G_bn': '', 'G_tt': '1930'}"
p1272
F0.00054764512595837896
sS"{'G_ap': 'HILL', 'G_dp': 'MANCHESTER', 'G_bn': '', 'G_tt': '500'}"
p1273
F0.00054764512595837896
sS"{'G_ap': 'DOWNTOWN', 'G_dp': 'CMU', 'G_bn': '', 'G_tt': 'now'}"
p1274
F0.0016429353778751369
sS"{'G_ap': 'NEGLEY STREET', 'G_dp': 'DOWNTOWN', 'G_bn': '', 'G_tt': '1700'}"
p1275
F0.00054764512595837896
sS"{'G_ap': 'HOMESTEAD', 'G_dp': 'EAST PITTSBURGH', 'G_bn': '', 'G_tt': 'now'}"
p1276
F0.00054764512595837896
sS"{'G_ap': 'SIXTEENTH STREET', 'G_dp': 'EAST LIBERTY STATION', 'G_bn': '', 'G_tt': 'now'}"
p1277
F0.00054764512595837896
sS"{'G_ap': 'WATERWORKS MALL', 'G_dp': 'PITTSBURGH ZOO', 'G_bn': '', 'G_tt': 'now'}"
p1278
F0.00054764512595837896
sS"{'G_ap': 'WEBSTER', 'G_dp': 'SOUTH', 'G_bn': '', 'G_tt': 'now'}"
p1279
F0.00054764512595837896
sS"{'G_ap': 'OAKLAND', 'G_dp': 'PITT', 'G_bn': '', 'G_tt': 'now'}"
p1280
F0.00054764512595837896
sS"{'G_ap': 'FIFTH', 'G_dp': 'MCKEESPORT', 'G_bn': '', 'G_tt': '1800'}"
p1281
F0.00054764512595837896
sS"{'G_ap': 'AIRPORT', 'G_dp': 'PITTSBURGH', 'G_bn': '3', 'G_tt': '1100'}"
p1282
F0.00054764512595837896
sS"{'G_ap': 'DOWNTOWN', 'G_dp': 'MCKEESPORT', 'G_bn': '', 'G_tt': '700'}"
p1283
F0.00054764512595837896
sS"{'G_ap': 'EAST PITTSBURGH', 'G_dp': 'TRAFFORD', 'G_bn': '69', 'G_tt': 'now'}"
p1284
F0.00054764512595837896
sS"{'G_ap': 'OAKLAND', 'G_dp': 'SOUTH SIDE', 'G_bn': '', 'G_tt': '130'}"
p1285
F0.00054764512595837896
sS"{'G_ap': 'COAL', 'G_dp': 'EAST PITTSBURGH', 'G_bn': '', 'G_tt': '500'}"
p1286
F0.00054764512595837896
sS"{'G_ap': 'DUQUESNE', 'G_dp': 'WATERFRONT', 'G_bn': '', 'G_tt': 'now'}"
p1287
F0.00054764512595837896
sS"{'G_ap': 'DOWNTOWN PITTSBURGH', 'G_dp': 'TEXAS', 'G_bn': '', 'G_tt': '2100'}"
p1288
F0.00054764512595837896
sS"{'G_ap': 'DOWNTOWN', 'G_dp': 'SOUTH', 'G_bn': '', 'G_tt': '800'}"
p1289
F0.00054764512595837896
sS"{'G_ap': 'MONROEVILLE', 'G_dp': 'OAKLAND', 'G_bn': '', 'G_tt': '2100'}"
p1290
F0.00054764512595837896
sS"{'G_ap': 'EIGHTH', 'G_dp': 'SWISSVALE', 'G_bn': '', 'G_tt': 'now'}"
p1291
F0.00054764512595837896
sS"{'G_ap': 'OAKLAND', 'G_dp': 'MONROEVILLE MALL', 'G_bn': '', 'G_tt': '1713'}"
p1292
F0.00054764512595837896
sS"{'G_ap': 'MCKEESPORT', 'G_dp': 'FIFTH', 'G_bn': '', 'G_tt': '630'}"
p1293
F0.00054764512595837896
sS"{'G_ap': 'CARNEGIE', 'G_dp': 'OAKLAND', 'G_bn': '', 'G_tt': 'now'}"
p1294
F0.00054764512595837896
sS"{'G_ap': 'WEST', 'G_dp': 'SWISSVALE STATION', 'G_bn': '', 'G_tt': '1900'}"
p1295
F0.00054764512595837896
sS"{'G_ap': 'MONROEVILLE MALL', 'G_dp': 'DOWNTOWN', 'G_bn': '', 'G_tt': 'now'}"
p1296
F0.00054764512595837896
sS"{'G_ap': 'HILL', 'G_dp': 'WILKINSBURG', 'G_bn': '', 'G_tt': '800'}"
p1297
F0.00054764512595837896
sS"{'G_ap': 'WOOD STREET', 'G_dp': 'THIRTY SIXTH AND PENN', 'G_bn': '', 'G_tt': 'now'}"
p1298
F0.00054764512595837896
sS"{'G_ap': 'NORTH AND BOYLE', 'G_dp': 'SWISSVALE', 'G_bn': '', 'G_tt': 'now'}"
p1299
F0.00054764512595837896
sS"{'G_ap': 'EIGHTH', 'G_dp': 'CENTER', 'G_bn': '61C', 'G_tt': '500'}"
p1300
F0.00054764512595837896
sS"{'G_ap': 'DOWNTOWN', 'G_dp': 'GREENFIELD AVENUE', 'G_bn': '', 'G_tt': 'now'}"
p1301
F0.00054764512595837896
sS"{'G_ap': 'WILMERDING', 'G_dp': 'EAST PITTSBURGH', 'G_bn': '', 'G_tt': 'now'}"
p1302
F0.0016429353778751369
sS"{'G_ap': 'OAKLAND', 'G_dp': 'SWISSVALE', 'G_bn': '', 'G_tt': '700'}"
p1303
F0.00054764512595837896
sS"{'G_ap': 'FRANKSTOWN', 'G_dp': 'CENTRE AND MILLVALE', 'G_bn': 'EBS', 'G_tt': 'now'}"
p1304
F0.00054764512595837896
sS"{'G_ap': 'SHADYSIDE', 'G_dp': 'DOWNTOWN', 'G_bn': '', 'G_tt': '700'}"
p1305
F0.00054764512595837896
sS"{'G_ap': 'THE AIRPORT', 'G_dp': 'DOWNTOWN', 'G_bn': '28X', 'G_tt': 'now'}"
p1306
F0.00054764512595837896
sS"{'G_ap': 'OAKLAND', 'G_dp': 'BEACON HILL', 'G_bn': '', 'G_tt': '700'}"
p1307
F0.00054764512595837896
sS"{'G_ap': 'WILKINSBURG', 'G_dp': 'WILKINSBURG', 'G_bn': '69', 'G_tt': 'now'}"
p1308
F0.00054764512595837896
sS"{'G_ap': 'OAKLAND', 'G_dp': 'HOMESTEAD', 'G_bn': '', 'G_tt': '2100'}"
p1309
F0.00054764512595837896
sS"{'G_ap': 'DUQUESNE', 'G_dp': 'VERSAILLES', 'G_bn': '', 'G_tt': '1900'}"
p1310
F0.00054764512595837896
sS"{'G_ap': 'THE AIRPORT', 'G_dp': 'ELM', 'G_bn': '', 'G_tt': '2230'}"
p1311
F0.00054764512595837896
sS"{'G_ap': 'BRADDOCK', 'G_dp': 'VERSAILLES', 'G_bn': '', 'G_tt': 'now'}"
p1312
F0.00054764512595837896
sS"{'G_ap': 'TRAFFORD', 'G_dp': 'PENN AND DALLAS', 'G_bn': '', 'G_tt': 'now'}"
p1313
F0.00054764512595837896
sS"{'G_ap': 'EAST SIXTH STREET', 'G_dp': 'DOWNTOWN', 'G_bn': '', 'G_tt': '1845'}"
p1314
F0.00054764512595837896
sS"{'G_ap': 'NORTH', 'G_dp': 'BELLEVUE', 'G_bn': '', 'G_tt': 'now'}"
p1315
F0.00054764512595837896
sS"{'G_ap': 'PITTSBURGH', 'G_dp': 'WILMERDING', 'G_bn': '', 'G_tt': '845'}"
p1316
F0.00054764512595837896
sS"{'G_ap': 'VERSAILLES', 'G_dp': 'NORTH BRADDOCK', 'G_bn': '', 'G_tt': '700'}"
p1317
F0.00054764512595837896
sS"{'G_ap': 'HIGHLAND PARK', 'G_dp': 'DOWNTOWN', 'G_bn': '', 'G_tt': '1030'}"
p1318
F0.00054764512595837896
sS"{'G_ap': 'MCKEESPORT', 'G_dp': 'DOWNTOWN PITTSBURGH', 'G_bn': '', 'G_tt': '2100'}"
p1319
F0.00054764512595837896
sS"{'G_ap': 'FORBES AT SHADY AVENUE', 'G_dp': 'FORBES AND BRADDOCK AVENUE', 'G_bn': '', 'G_tt': 'now'}"
p1320
F0.00054764512595837896
sS"{'G_ap': 'SHERADEN STATION', 'G_dp': 'DOWNTOWN PITTSBURGH', 'G_bn': 'G2', 'G_tt': '2300'}"
p1321
F0.00054764512595837896
sS"{'G_ap': 'RANKIN', 'G_dp': 'MCKEESPORT', 'G_bn': '', 'G_tt': 'now'}"
p1322
F0.00054764512595837896
sS"{'G_ap': 'CMU', 'G_dp': 'UNIVERSITY OF PITTSBURGH', 'G_bn': '', 'G_tt': 'now'}"
p1323
F0.00054764512595837896
sS"{'G_ap': 'NORTH SIDE', 'G_dp': 'CRAIG', 'G_bn': '', 'G_tt': 'now'}"
p1324
F0.00054764512595837896
sS"{'G_ap': 'MURRAY AND FORBES', 'G_dp': 'CARNEGIE MELLON UNIVERSITY', 'G_bn': '', 'G_tt': 'now'}"
p1325
F0.00054764512595837896
sS"{'G_ap': 'DOWNTOWN PITTSBURGH', 'G_dp': 'MCKEESPORT', 'G_bn': '', 'G_tt': '530'}"
p1326
F0.00054764512595837896
sS"{'G_ap': 'PITTSBURGH', 'G_dp': 'CENTER AVENUE', 'G_bn': '', 'G_tt': '600'}"
p1327
F0.00054764512595837896
sS"{'G_ap': 'HIGHLAND PARK', 'G_dp': 'DOWNTOWN PITTSBURGH', 'G_bn': '', 'G_tt': '1945'}"
p1328
F0.00054764512595837896
sS"{'G_ap': 'BEDFORD', 'G_dp': 'DOWNTOWN', 'G_bn': '', 'G_tt': 'now'}"
p1329
F0.00054764512595837896
sS"{'G_ap': 'FORBES AVENUE', 'G_dp': 'CARNEGIE', 'G_bn': '', 'G_tt': '1030'}"
p1330
F0.00054764512595837896
sS"{'G_ap': 'WILKINSBURG', 'G_dp': 'TWENTY SIXTH AT LIBERTY', 'G_bn': '', 'G_tt': 'now'}"
p1331
F0.00054764512595837896
sS"{'G_ap': 'HILL', 'G_dp': 'WALL', 'G_bn': '', 'G_tt': 'now'}"
p1332
F0.00054764512595837896
sS"{'G_ap': 'WATERWORKS MALL', 'G_dp': 'BELLEVUE', 'G_bn': '', 'G_tt': '130'}"
p1333
F0.00054764512595837896
sS"{'G_ap': 'OAKMONT', 'G_dp': 'WILKINSBURG', 'G_bn': '', 'G_tt': '2100'}"
p1334
F0.00054764512595837896
sS"{'G_ap': 'PITCAIRN', 'G_dp': 'ELM', 'G_bn': '', 'G_tt': 'now'}"
p1335
F0.00054764512595837896
sS"{'G_ap': 'DOWNTOWN', 'G_dp': 'BAYARD', 'G_bn': '', 'G_tt': '700'}"
p1336
F0.00054764512595837896
sS"{'G_ap': 'FOREST HILLS', 'G_dp': 'DOWNTOWN PITTSBURGH', 'G_bn': '', 'G_tt': 'now'}"
p1337
F0.00054764512595837896
sS"{'G_ap': 'SHADYSIDE HOSPITAL', 'G_dp': 'STANTON', 'G_bn': '', 'G_tt': 'now'}"
p1338
F0.00054764512595837896
sS"{'G_ap': 'MCKEE', 'G_dp': 'FORBES AND MURRAY', 'G_bn': '', 'G_tt': 'now'}"
p1339
F0.00054764512595837896
sS"{'G_ap': 'HILL', 'G_dp': 'WILKINSBURG', 'G_bn': '61A', 'G_tt': '2200'}"
p1340
F0.00054764512595837896
sS"{'G_ap': 'HIGHLAND', 'G_dp': 'CURRY', 'G_bn': '', 'G_tt': 'now'}"
p1341
F0.00054764512595837896
sS"{'G_ap': 'HIGHLAND PARK', 'G_dp': 'CENTER', 'G_bn': '', 'G_tt': '130'}"
p1342
F0.00054764512595837896
sS"{'G_ap': 'STATION', 'G_dp': 'OAKLAND', 'G_bn': '', 'G_tt': 'now'}"
p1343
F0.00054764512595837896
sS"{'G_ap': 'LIBERTY AVENUE', 'G_dp': 'PENN AVENUE', 'G_bn': '', 'G_tt': '1500'}"
p1344
F0.00054764512595837896
sS"{'G_ap': 'OAKLAND', 'G_dp': 'WILKINSBURG', 'G_bn': '', 'G_tt': '1913'}"
p1345
F0.00054764512595837896
sS"{'G_ap': 'WILKINSBURG', 'G_dp': 'DOWNTOWN PITTSBURGH', 'G_bn': '', 'G_tt': '2200'}"
p1346
F0.0010952902519167579
sS"{'G_ap': 'SOUTH', 'G_dp': 'PITTSBURGH', 'G_bn': '', 'G_tt': 'now'}"
p1347
F0.00054764512595837896
sS"{'G_ap': 'DOWNTOWN PITTSBURGH', 'G_dp': 'DUQUESNE', 'G_bn': '', 'G_tt': 'now'}"
p1348
F0.00054764512595837896
sS"{'G_ap': 'HAZELWOOD', 'G_dp': 'FIFTH', 'G_bn': '', 'G_tt': 'now'}"
p1349
F0.00054764512595837896
sS"{'G_ap': 'BRADDOCK', 'G_dp': 'WEST PENN HOSPITAL', 'G_bn': '', 'G_tt': 'now'}"
p1350
F0.00054764512595837896
sS"{'G_ap': 'WALL', 'G_dp': 'TURTLE CREEK', 'G_bn': '', 'G_tt': 'now'}"
p1351
F0.0010952902519167579
sS"{'G_ap': 'WALL', 'G_dp': 'HILL', 'G_bn': '', 'G_tt': '400'}"
p1352
F0.00054764512595837896
sS"{'G_ap': 'AIRPORT', 'G_dp': 'UPTOWN', 'G_bn': '', 'G_tt': 'now'}"
p1353
F0.00054764512595837896
sS"{'G_ap': 'NORTH BRADDOCK', 'G_dp': 'SWISSVALE BUS STATION', 'G_bn': '', 'G_tt': '2000'}"
p1354
F0.00054764512595837896
sS"{'G_ap': 'THE WATERFRONT', 'G_dp': 'CENTER', 'G_bn': '64', 'G_tt': 'now'}"
p1355
F0.00054764512595837896
sS"{'G_ap': 'DOWNTOWN', 'G_dp': 'SOUTH', 'G_bn': '', 'G_tt': '2100'}"
p1356
F0.00054764512595837896
sS"{'G_ap': 'PITTSBURGH', 'G_dp': 'CARLOW COLLEGE', 'G_bn': '', 'G_tt': 'now'}"
p1357
F0.00054764512595837896
sS"{'G_ap': 'MCKEESPORT', 'G_dp': 'DUQUESNE', 'G_bn': '', 'G_tt': '100'}"
p1358
F0.00054764512595837896
sS"{'G_ap': 'DOWNTOWN PITTSBURGH', 'G_dp': 'CARSON STREET', 'G_bn': '', 'G_tt': '100'}"
p1359
F0.00054764512595837896
sS"{'G_ap': 'PITTSBURGH', 'G_dp': 'OVERBROOK', 'G_bn': '', 'G_tt': 'now'}"
p1360
F0.00054764512595837896
sS"{'G_ap': 'HOMESTEAD', 'G_dp': 'SECOND AVENUE', 'G_bn': '', 'G_tt': 'now'}"
p1361
F0.00054764512595837896
sS"{'G_ap': 'PRESBYTERIAN HOSPITAL', 'G_dp': 'SOUTH', 'G_bn': '', 'G_tt': 'now'}"
p1362
F0.00054764512595837896
sS"{'G_ap': 'OAKLAND', 'G_dp': 'ALLEGHENY RIVER BOULEVARD', 'G_bn': '54C', 'G_tt': 'now'}"
p1363
F0.00054764512595837896
sS"{'G_ap': 'THIRTY NINTH STREET', 'G_dp': 'FRANKSTOWN AVENUE', 'G_bn': '', 'G_tt': '1900'}"
p1364
F0.00054764512595837896
sS"{'G_ap': 'DOWNTOWN', 'G_dp': 'TURTLE CREEK', 'G_bn': '3', 'G_tt': '630'}"
p1365
F0.00054764512595837896
sS"{'G_ap': 'MCKEESPORT', 'G_dp': 'HOMESTEAD', 'G_bn': '', 'G_tt': '2200'}"
p1366
F0.00054764512595837896
sS"{'G_ap': 'RANKIN', 'G_dp': 'BRADDOCK', 'G_bn': '', 'G_tt': '2330'}"
p1367
F0.00054764512595837896
sS"{'G_ap': 'PENN', 'G_dp': 'DOWNTOWN', 'G_bn': '', 'G_tt': 'now'}"
p1368
F0.00054764512595837896
sS"{'G_ap': 'FRANKSTOWN', 'G_dp': 'OAK', 'G_bn': '', 'G_tt': 'now'}"
p1369
F0.00054764512595837896
sS"{'G_ap': 'ROBINSON', 'G_dp': 'AIRPORT', 'G_bn': '', 'G_tt': '730'}"
p1370
F0.00054764512595837896
sS"{'G_ap': 'SIXTH', 'G_dp': 'CARNEGIE', 'G_bn': '', 'G_tt': '700'}"
p1371
F0.00054764512595837896
sS"{'G_ap': 'CENTER AVENUE', 'G_dp': 'JANE STREET', 'G_bn': '', 'G_tt': '1000'}"
p1372
F0.00054764512595837896
sS"{'G_ap': 'HOMESTEAD', 'G_dp': 'FORBES AND MURRAY', 'G_bn': '', 'G_tt': '1845'}"
p1373
F0.00054764512595837896
sS"{'G_ap': 'GREENFIELD', 'G_dp': 'FRANKSTOWN AVENUE', 'G_bn': '', 'G_tt': '800'}"
p1374
F0.00054764512595837896
sS"{'G_ap': 'PITT', 'G_dp': 'MURRAY AND FORWARD', 'G_bn': '', 'G_tt': 'now'}"
p1375
F0.00054764512595837896
sS"{'G_ap': 'DOWNTOWN', 'G_dp': 'AIRPORT', 'G_bn': '', 'G_tt': '700'}"
p1376
F0.00054764512595837896
sS"{'G_ap': 'PITTSBURGH', 'G_dp': 'DUQUESNE', 'G_bn': '', 'G_tt': '600'}"
p1377
F0.00054764512595837896
sS"{'G_ap': 'FORBES', 'G_dp': 'DOWNTOWN', 'G_bn': '61B', 'G_tt': 'now'}"
p1378
F0.00054764512595837896
sS"{'G_ap': 'OAKLAND', 'G_dp': 'SHADY', 'G_bn': '', 'G_tt': '700'}"
p1379
F0.00054764512595837896
sS"{'G_ap': 'MCKEE', 'G_dp': 'DOWNTOWN', 'G_bn': '', 'G_tt': 'now'}"
p1380
F0.00054764512595837896
sS"{'G_ap': 'PENN AND NEGLEY', 'G_dp': 'SHADYSIDE HOSPITAL', 'G_bn': '71A', 'G_tt': '0'}"
p1381
F0.00054764512595837896
sS"{'G_ap': 'PENN AND NEGLEY', 'G_dp': 'CRAIG AND PARK PLAZA', 'G_bn': '71A', 'G_tt': 'now'}"
p1382
F0.00054764512595837896
sS"{'G_ap': 'WEST PENN HOSPITAL', 'G_dp': 'ALLEGHENY GENERAL HOSPITAL', 'G_bn': '', 'G_tt': 'now'}"
p1383
F0.0010952902519167579
sS"{'G_ap': 'NEVILLE', 'G_dp': 'WILKINSBURG', 'G_bn': '', 'G_tt': '1930'}"
p1384
F0.00054764512595837896
sS"{'G_ap': 'FORBES', 'G_dp': 'ROBINSON', 'G_bn': '', 'G_tt': '500'}"
p1385
F0.00054764512595837896
sS"{'G_ap': 'DOWNTOWN', 'G_dp': 'LIBERTY AVENUE AT HERRON', 'G_bn': '', 'G_tt': '2000'}"
p1386
F0.00054764512595837896
sS"{'G_ap': 'HOMESTEAD', 'G_dp': 'SOUTH', 'G_bn': '', 'G_tt': '500'}"
p1387
F0.00054764512595837896
sS"{'G_ap': 'MCKEESPORT', 'G_dp': 'HOMESTEAD', 'G_bn': '', 'G_tt': '30'}"
p1388
F0.00054764512595837896
sS"{'G_ap': 'DOWNTOWN', 'G_dp': 'BLOOMFIELD', 'G_bn': '', 'G_tt': 'now'}"
p1389
F0.00054764512595837896
sS"{'G_ap': 'DOWNTOWN', 'G_dp': 'LINCOLN AT LINCOLN', 'G_bn': '', 'G_tt': '530'}"
p1390
F0.00054764512595837896
sS"{'G_ap': 'EAST', 'G_dp': 'WALL', 'G_bn': '', 'G_tt': '900'}"
p1391
F0.00054764512595837896
sS"{'G_ap': 'WALL', 'G_dp': 'SOUTH HILLS JUNCTION', 'G_bn': '', 'G_tt': 'now'}"
p1392
F0.0010952902519167579
sS"{'G_ap': 'HIGHLAND AVENUE', 'G_dp': 'FORTIETH STREET', 'G_bn': '', 'G_tt': '545'}"
p1393
F0.00054764512595837896
sS"{'G_ap': 'OAK', 'G_dp': 'DOWNTOWN', 'G_bn': '', 'G_tt': 'now'}"
p1394
F0.00054764512595837896
sS"{'G_ap': 'MCKEESPORT', 'G_dp': 'DOWNTOWN', 'G_bn': '', 'G_tt': '2200'}"
p1395
F0.00054764512595837896
sS"{'G_ap': 'SQUIRREL HILL', 'G_dp': 'PITTSBURGH INTERNATIONAL AIRPORT', 'G_bn': '', 'G_tt': ''}"
p1396
F0.00054764512595837896
sS"{'G_ap': 'WILKINSBURG', 'G_dp': 'MONROEVILLE', 'G_bn': '', 'G_tt': 'now'}"
p1397
F0.0021905805038335158
sS"{'G_ap': 'PITTSBURGH', 'G_dp': 'MCKEESPORT', 'G_bn': '', 'G_tt': 'now'}"
p1398
F0.00054764512595837896
sS"{'G_ap': 'TRAFFORD', 'G_dp': 'DOWNTOWN', 'G_bn': '', 'G_tt': '1030'}"
p1399
F0.00054764512595837896
sS"{'G_ap': 'HILL', 'G_dp': 'SOUTH', 'G_bn': '', 'G_tt': 'now'}"
p1400
F0.00054764512595837896
sS"{'G_ap': 'SWISSVALE STATION', 'G_dp': 'SQUIRREL HILL', 'G_bn': '', 'G_tt': 'now'}"
p1401
F0.00054764512595837896
sS"{'G_ap': 'WALL', 'G_dp': 'WALL', 'G_bn': '', 'G_tt': '700'}"
p1402
F0.00054764512595837896
sS"{'G_ap': 'HAZELWOOD', 'G_dp': 'HAZELWOOD', 'G_bn': '', 'G_tt': 'now'}"
p1403
F0.00054764512595837896
sS"{'G_ap': 'FIFTH AVENUE', 'G_dp': 'WATERFRONT', 'G_bn': '', 'G_tt': 'now'}"
p1404
F0.00054764512595837896
sS"{'G_ap': 'MCKEESPORT', 'G_dp': 'DOWNTOWN', 'G_bn': '89', 'G_tt': 'now'}"
p1405
F0.00054764512595837896
sS"{'G_ap': 'WILKINSBURG', 'G_dp': 'FORBES AND MURRAY', 'G_bn': '', 'G_tt': 'now'}"
p1406
F0.00054764512595837896
sS"{'G_ap': 'WHITAKER', 'G_dp': 'SWISSVALE', 'G_bn': '', 'G_tt': '2300'}"
p1407
F0.00054764512595837896
sS"{'G_ap': 'FEDERAL', 'G_dp': 'BELLEFIELD', 'G_bn': '', 'G_tt': 'now'}"
p1408
F0.00054764512595837896
sS"{'G_ap': 'HOMESTEAD', 'G_dp': 'CENTURY THREE MALL', 'G_bn': '', 'G_tt': 'now'}"
p1409
F0.00054764512595837896
sS"{'G_ap': 'OAKLAND', 'G_dp': 'DOWNTOWN PITTSBURGH', 'G_bn': '', 'G_tt': 'now'}"
p1410
F0.00054764512595837896
sS"{'G_ap': 'CARNEGIE MELLON', 'G_dp': 'SQUIRREL HILL', 'G_bn': '', 'G_tt': 'now'}"
p1411
F0.00054764512595837896
sS"{'G_ap': 'NORTH BRADDOCK', 'G_dp': 'MONROEVILLE', 'G_bn': '', 'G_tt': '2100'}"
p1412
F0.00054764512595837896
sS"{'G_ap': 'CARNEGIE', 'G_dp': 'OAKLAND', 'G_bn': '', 'G_tt': '1930'}"
p1413
F0.00054764512595837896
sS"{'G_ap': 'KENNYWOOD MALL', 'G_dp': 'CENTURY THREE MALL', 'G_bn': '', 'G_tt': '130'}"
p1414
F0.00054764512595837896
sS"{'G_ap': 'OAKLAND', 'G_dp': 'WATERFRONT', 'G_bn': '', 'G_tt': '30'}"
p1415
F0.00054764512595837896
sS"{'G_ap': 'TRAFFORD', 'G_dp': 'WILKINSBURG', 'G_bn': '', 'G_tt': '2300'}"
p1416
F0.00054764512595837896
sS"{'G_ap': 'POINT BREEZE', 'G_dp': 'DOWNTOWN PITTSBURGH', 'G_bn': '', 'G_tt': '630'}"
p1417
F0.00054764512595837896
sS"{'G_ap': 'EAST HILLS', 'G_dp': 'WILKINSBURG', 'G_bn': '', 'G_tt': 'now'}"
p1418
F0.00054764512595837896
sS"{'G_ap': 'WATERFRONT', 'G_dp': 'SWISSVALE', 'G_bn': '', 'G_tt': '800'}"
p1419
F0.00054764512595837896
sS"{'G_ap': 'HOMESTEAD', 'G_dp': 'MCKEESPORT', 'G_bn': '', 'G_tt': '2100'}"
p1420
F0.00054764512595837896
sS"{'G_ap': 'BLOOMFIELD', 'G_dp': 'WILKINSBURG', 'G_bn': '', 'G_tt': '2040'}"
p1421
F0.00054764512595837896
sS"{'G_ap': 'DOWNTOWN', 'G_dp': 'MONROEVILLE MALL', 'G_bn': '', 'G_tt': '2030'}"
p1422
F0.00054764512595837896
sS"{'G_ap': 'WATERWORKS MALL', 'G_dp': 'HIGHLAND PARK', 'G_bn': '71D', 'G_tt': '2200'}"
p1423
F0.00054764512595837896
sS"{'G_ap': 'DOWNTOWN', 'G_dp': 'BUTLER STREET', 'G_bn': '', 'G_tt': 'now'}"
p1424
F0.00054764512595837896
sS"{'G_ap': 'WALL', 'G_dp': 'FOURTH', 'G_bn': '', 'G_tt': 'now'}"
p1425
F0.00054764512595837896
sS"{'G_ap': 'LAWRENCEVILLE', 'G_dp': 'PITTSBURGH', 'G_bn': '', 'G_tt': 'now'}"
p1426
F0.00054764512595837896
sS"{'G_ap': 'EIGHTH AND GRANT', 'G_dp': 'CARNEGIE MELLON', 'G_bn': '', 'G_tt': '2000'}"
p1427
F0.00054764512595837896
sS"{'G_ap': 'SQUIRREL HILL', 'G_dp': 'DOWNTOWN', 'G_bn': '', 'G_tt': 'now'}"
p1428
F0.012595837897042717
sS"{'G_ap': 'OAKLAND', 'G_dp': 'LAWRENCEVILLE', 'G_bn': '54C', 'G_tt': '2030'}"
p1429
F0.00054764512595837896
sS"{'G_ap': 'PITCAIRN', 'G_dp': 'TRAFFORD', 'G_bn': '', 'G_tt': 'now'}"
p1430
F0.00054764512595837896
sS"{'G_ap': 'DOWNTOWN', 'G_dp': 'WASHINGTON', 'G_bn': '', 'G_tt': 'now'}"
p1431
F0.00054764512595837896
sS"{'G_ap': 'EAST LIBERTY', 'G_dp': 'SQUIRREL HILL', 'G_bn': '', 'G_tt': '2300'}"
p1432
F0.00054764512595837896
sS"{'G_ap': 'CARNEGIE MELLON UNIVERSITY', 'G_dp': 'PITTSBURGH INTERNATIONAL AIRPORT', 'G_bn': '', 'G_tt': 'now'}"
p1433
F0.00054764512595837896
sS"{'G_ap': 'WILMERDING', 'G_dp': 'HOWLEY AND MAIN', 'G_bn': '', 'G_tt': '430'}"
p1434
F0.00054764512595837896
sS"{'G_ap': 'BRADDOCK', 'G_dp': 'PITTSBURGH', 'G_bn': '', 'G_tt': '1900'}"
p1435
F0.00054764512595837896
sS"{'G_ap': 'OAKLAND', 'G_dp': 'LIBERTY', 'G_bn': '', 'G_tt': '800'}"
p1436
F0.00054764512595837896
sS"{'G_ap': 'WILKINSBURG STATION', 'G_dp': 'SWISSVALE STATION', 'G_bn': '', 'G_tt': 'now'}"
p1437
F0.00054764512595837896
sS"{'G_ap': 'OAKLAND', 'G_dp': 'OHIO STREET', 'G_bn': '67', 'G_tt': 'now'}"
p1438
F0.00054764512595837896
sS"{'G_ap': 'EAST LIBERTY', 'G_dp': 'LINCOLN AVENUE', 'G_bn': '', 'G_tt': 'now'}"
p1439
F0.00054764512595837896
sS"{'G_ap': 'FIFTH', 'G_dp': 'DOWNTOWN', 'G_bn': '', 'G_tt': 'now'}"
p1440
F0.00054764512595837896
sS"{'G_ap': 'MCKEESPORT', 'G_dp': 'DOWNTOWN', 'G_bn': '', 'G_tt': 'now'}"
p1441
F0.0016429353778751369
sS"{'G_ap': 'OAKLAND', 'G_dp': 'HOMESTEAD', 'G_bn': '', 'G_tt': '715'}"
p1442
F0.00054764512595837896
sS"{'G_ap': 'DOWNTOWN', 'G_dp': 'PITTSBURGH INTERNATIONAL AIRPORT', 'G_bn': '28X', 'G_tt': '600'}"
p1443
F0.00054764512595837896
sS"{'G_ap': 'OAKLAND', 'G_dp': 'EAST LIBERTY', 'G_bn': '', 'G_tt': '930'}"
p1444
F0.00054764512595837896
sS"{'G_ap': 'CARNEGIE', 'G_dp': 'ROBINSON', 'G_bn': '', 'G_tt': 'now'}"
p1445
F0.00054764512595837896
sS"{'G_ap': 'WILMERDING', 'G_dp': 'EAST PITTSBURGH', 'G_bn': 'G', 'G_tt': 'now'}"
p1446
F0.00054764512595837896
sS"{'G_ap': 'OAKLAND', 'G_dp': 'OAKLAND', 'G_bn': '', 'G_tt': 'now'}"
p1447
F0.00054764512595837896
sS"{'G_ap': 'PITTSBURGH', 'G_dp': 'WASHINGTON AND MONONGAHELA', 'G_bn': '', 'G_tt': '1830'}"
p1448
F0.00054764512595837896
sS"{'G_ap': 'EAST PITTSBURGH', 'G_dp': 'DOWNTOWN', 'G_bn': '', 'G_tt': 'now'}"
p1449
F0.0010952902519167579
sS"{'G_ap': 'WILKINSBURG STATION', 'G_dp': 'BUSWAY', 'G_bn': '', 'G_tt': 'now'}"
p1450
F0.00054764512595837896
sS"{'G_ap': 'FOURTH', 'G_dp': 'WILKINSBURG', 'G_bn': '', 'G_tt': '2200'}"
p1451
F0.00054764512595837896
sS"{'G_ap': 'THE NORTH SIDE', 'G_dp': 'FEDERAL', 'G_bn': '', 'G_tt': '700'}"
p1452
F0.00054764512595837896
sS"{'G_ap': 'BELTZHOOVER', 'G_dp': 'NORTH', 'G_bn': '', 'G_tt': '2030'}"
p1453
F0.00054764512595837896
s.