(dp0
S'multi3'
p1
(dp2
F0.089999999999999997
F0.25
sF0.28000000000000003
F0.25
sF0.17999999999999999
F0.25
sF0.040000000000000001
F0.25
ssS'multi2'
p3
(dp4
F0.42999999999999999
F0.0625
sF0.71999999999999997
F0.0625
sF0.28999999999999998
F0.0625
sF0.33000000000000002
F0.0625
sF0.040000000000000001
F0.0625
sF0.14999999999999999
F0.0625
sF0.56999999999999995
F0.0625
sF0.31
F0.0625
sF0.56000000000000005
F0.0625
sF0.41999999999999998
F0.0625
sF0.34999999999999998
F0.0625
sF0.14000000000000001
F0.0625
sF0.070000000000000007
F0.0625
sF0.01
F0.125
sF0.62
F0.0625
ssS'multi'
p5
(dp6
F0.42999999999999999
F0.050000000000000003
sF0.71999999999999997
F0.050000000000000003
sF0.28999999999999998
F0.050000000000000003
sF0.28000000000000003
F0.050000000000000003
sF0.33000000000000002
F0.050000000000000003
sF0.040000000000000001
F0.10000000000000001
sF0.14999999999999999
F0.050000000000000003
sF0.089999999999999997
F0.050000000000000003
sF0.56999999999999995
F0.050000000000000003
sF0.17999999999999999
F0.050000000000000003
sF0.31
F0.050000000000000003
sF0.56000000000000005
F0.050000000000000003
sF0.41999999999999998
F0.050000000000000003
sF0.34999999999999998
F0.050000000000000003
sF0.14000000000000001
F0.050000000000000003
sF0.070000000000000007
F0.050000000000000003
sF0.01
F0.10000000000000001
sF0.62
F0.050000000000000003
ssS'multi5'
p7
(dp8
sS'multi4'
p9
(dp10
sS'bn'
p11
(dp12
F0.42999999999999999
F0.076923076923076927
sF0.050000000000000003
F0.076923076923076927
sF1.0
F0.15384615384615385
sF0.44
F0.076923076923076927
sF0.60999999999999999
F0.15384615384615385
sF0.56999999999999995
F0.076923076923076927
sF0.45000000000000001
F0.076923076923076927
sF0.58999999999999997
F0.15384615384615385
sF0.64000000000000001
F0.15384615384615385
ssS'no'
p13
(dp14
F0.85999999999999999
F0.1111111111111111
sF0.82999999999999996
F0.1111111111111111
sF0.91000000000000003
F0.1111111111111111
sF0.88
F0.22222222222222221
sF0.93000000000000005
F0.1111111111111111
sF0.90000000000000002
F0.22222222222222221
sF0.87
F0.1111111111111111
ssS'ap'
p15
(dp16
F0.10000000000000001
F0.1111111111111111
sF0.77000000000000002
F0.1111111111111111
sF0.67000000000000004
F0.1111111111111111
sF0.73999999999999999
F0.1111111111111111
sF0.76000000000000001
F0.22222222222222221
sF0.48999999999999999
F0.1111111111111111
sF0.83999999999999997
F0.1111111111111111
sF0.23000000000000001
F0.1111111111111111
ssS'single'
p17
(dp18
F1.0
F0.02247191011235955
sF0.56000000000000005
F0.011235955056179775
sF0.89000000000000001
F0.02247191011235955
sF0.22
F0.011235955056179775
sF0.48999999999999999
F0.011235955056179775
sF0.35999999999999999
F0.011235955056179775
sF0.56999999999999995
F0.02247191011235955
sF0.089999999999999997
F0.011235955056179775
sF0.76000000000000001
F0.02247191011235955
sF0.92000000000000004
F0.056179775280898875
sF0.85999999999999999
F0.033707865168539325
sF0.58999999999999997
F0.033707865168539325
sF0.64000000000000001
F0.02247191011235955
sF0.82999999999999996
F0.011235955056179775
sF0.52000000000000002
F0.011235955056179775
sF0.23000000000000001
F0.02247191011235955
sF0.33000000000000002
F0.011235955056179775
sF0.12
F0.033707865168539325
sF0.45000000000000001
F0.011235955056179775
sF0.080000000000000002
F0.011235955056179775
sF0.81000000000000005
F0.011235955056179775
sF0.20999999999999999
F0.011235955056179775
sF0.44
F0.02247191011235955
sF0.83999999999999997
F0.02247191011235955
sF0.17999999999999999
F0.011235955056179775
sF0.54000000000000004
F0.011235955056179775
sF0.60999999999999999
F0.02247191011235955
sF0.59999999999999998
F0.011235955056179775
sF0.14999999999999999
F0.02247191011235955
sF0.80000000000000004
F0.02247191011235955
sF0.27000000000000002
F0.011235955056179775
sF0.91000000000000003
F0.02247191011235955
sF0.72999999999999998
F0.011235955056179775
sF0.67000000000000004
F0.033707865168539325
sF0.40999999999999998
F0.011235955056179775
sF0.46000000000000002
F0.02247191011235955
sF0.28000000000000003
F0.011235955056179775
sF0.42999999999999999
F0.02247191011235955
sF0.040000000000000001
F0.011235955056179775
sF0.10000000000000001
F0.011235955056179775
sF0.050000000000000003
F0.011235955056179775
sF0.79000000000000004
F0.011235955056179775
sF0.55000000000000004
F0.011235955056179775
sF0.90000000000000002
F0.033707865168539325
sF0.73999999999999999
F0.02247191011235955
sF0.88
F0.0449438202247191
sF0.53000000000000003
F0.011235955056179775
sF0.93000000000000005
F0.0449438202247191
sF0.77000000000000002
F0.011235955056179775
sF0.87
F0.02247191011235955
sF0.11
F0.011235955056179775
sF0.38
F0.011235955056179775
sF0.63
F0.011235955056179775
ssS'yes'
p19
(dp20
F0.85999999999999999
F0.0625
sF0.91000000000000003
F0.0625
sF0.88
F0.125
sF0.93000000000000005
F0.1875
sF0.54000000000000004
F0.0625
sF0.90000000000000002
F0.0625
sF0.87
F0.0625
sF0.83999999999999997
F0.0625
sF0.92000000000000004
F0.1875
sF0.89000000000000001
F0.125
ssS'total'
p21
(dp22
F1.0
F0.01834862385321101
sF0.56000000000000005
F0.01834862385321101
sF0.89000000000000001
F0.01834862385321101
sF0.22
F0.0091743119266055051
sF0.48999999999999999
F0.0091743119266055051
sF0.35999999999999999
F0.0091743119266055051
sF0.56999999999999995
F0.027522935779816515
sF0.089999999999999997
F0.01834862385321101
sF0.71999999999999997
F0.0091743119266055051
sF0.76000000000000001
F0.01834862385321101
sF0.92000000000000004
F0.045871559633027525
sF0.34999999999999998
F0.0091743119266055051
sF0.85999999999999999
F0.027522935779816515
sF0.58999999999999997
F0.027522935779816515
sF0.64000000000000001
F0.01834862385321101
sF0.41999999999999998
F0.0091743119266055051
sF0.82999999999999996
F0.0091743119266055051
sF0.070000000000000007
F0.0091743119266055051
sF0.52000000000000002
F0.0091743119266055051
sF0.23000000000000001
F0.01834862385321101
sF0.33000000000000002
F0.01834862385321101
sF0.12
F0.027522935779816515
sF0.01
F0.01834862385321101
sF0.45000000000000001
F0.0091743119266055051
sF0.080000000000000002
F0.0091743119266055051
sF0.81000000000000005
F0.0091743119266055051
sF0.20999999999999999
F0.0091743119266055051
sF0.44
F0.01834862385321101
sF0.62
F0.0091743119266055051
sF0.83999999999999997
F0.01834862385321101
sF0.17999999999999999
F0.01834862385321101
sF0.14000000000000001
F0.0091743119266055051
sF0.54000000000000004
F0.0091743119266055051
sF0.60999999999999999
F0.01834862385321101
sF0.59999999999999998
F0.0091743119266055051
sF0.14999999999999999
F0.027522935779816515
sF0.80000000000000004
F0.01834862385321101
sF0.27000000000000002
F0.0091743119266055051
sF0.91000000000000003
F0.01834862385321101
sF0.28999999999999998
F0.0091743119266055051
sF0.72999999999999998
F0.0091743119266055051
sF0.67000000000000004
F0.027522935779816515
sF0.40999999999999998
F0.0091743119266055051
sF0.46000000000000002
F0.01834862385321101
sF0.28000000000000003
F0.01834862385321101
sF0.42999999999999999
F0.027522935779816515
sF0.040000000000000001
F0.027522935779816515
sF0.10000000000000001
F0.0091743119266055051
sF0.050000000000000003
F0.0091743119266055051
sF0.79000000000000004
F0.0091743119266055051
sF0.55000000000000004
F0.0091743119266055051
sF0.90000000000000002
F0.027522935779816515
sF0.73999999999999999
F0.01834862385321101
sF0.88
F0.03669724770642202
sF0.53000000000000003
F0.0091743119266055051
sF0.93000000000000005
F0.03669724770642202
sF0.77000000000000002
F0.0091743119266055051
sF0.31
F0.0091743119266055051
sF0.87
F0.01834862385321101
sF0.11
F0.0091743119266055051
sF0.38
F0.0091743119266055051
sF0.63
F0.0091743119266055051
ssS'tt'
p23
(dp24
F0.85999999999999999
F0.058823529411764705
sF0.55000000000000004
F0.058823529411764705
sF0.80000000000000004
F0.11764705882352941
sF0.46000000000000002
F0.058823529411764705
sF0.11
F0.058823529411764705
sF0.73999999999999999
F0.058823529411764705
sF0.14999999999999999
F0.058823529411764705
sF0.12
F0.058823529411764705
sF0.56999999999999995
F0.058823529411764705
sF0.79000000000000004
F0.058823529411764705
sF0.38
F0.058823529411764705
sF0.58999999999999997
F0.058823529411764705
sF0.81000000000000005
F0.058823529411764705
sF0.40999999999999998
F0.058823529411764705
sF0.92000000000000004
F0.11764705882352941
ssS'dp'
p25
(dp26
F0.56000000000000005
F0.040000000000000001
sF0.22
F0.040000000000000001
sF0.35999999999999999
F0.040000000000000001
sF0.089999999999999997
F0.040000000000000001
sF0.040000000000000001
F0.040000000000000001
sF0.52000000000000002
F0.040000000000000001
sF0.67000000000000004
F0.080000000000000002
sF0.12
F0.080000000000000002
sF0.080000000000000002
F0.040000000000000001
sF0.20999999999999999
F0.040000000000000001
sF0.63
F0.040000000000000001
sF0.17999999999999999
F0.040000000000000001
sF0.33000000000000002
F0.040000000000000001
sF0.14999999999999999
F0.040000000000000001
sF0.59999999999999998
F0.040000000000000001
sF0.27000000000000002
F0.040000000000000001
sF0.72999999999999998
F0.040000000000000001
sF0.23000000000000001
F0.040000000000000001
sF0.46000000000000002
F0.040000000000000001
sF0.28000000000000003
F0.040000000000000001
sF0.42999999999999999
F0.040000000000000001
sF0.53000000000000003
F0.040000000000000001
sF0.44
F0.040000000000000001
ss.