(dp0
S'multi3'
p1
(lp2
F0.0092599999999999991
aF0.099879999999999997
aF0.25035000000000002
aF0.098049999999999998
aF0.039289999999999999
aF0.098080000000000001
aF0.20805000000000001
aF0.29411999999999999
aF0.29110000000000003
aF0.14171
aF0.055759999999999997
aF0.069180000000000005
aF0.27500999999999998
asS'multi2'
p3
(lp4
F0.18409
aF0.074660000000000004
aF0.64183000000000001
aF0.43828
aF0.64478999999999997
aF0.4511
aF0.74395999999999995
aF0.28649999999999998
aF0.20552000000000001
aF0.48858000000000001
aF0.60375000000000001
aF0.41448000000000002
aF0.28290999999999999
aF0.77020999999999995
aF0.40664
aF0.59992999999999996
aF0.61863999999999997
aF0.20577999999999999
aF0.57501000000000002
aF0.79298000000000002
aF0.52268999999999999
aF0.73116000000000003
aF0.57899
aF0.44829000000000002
aF0.72413000000000005
aF0.40192
aF0.32868999999999998
aF0.73177999999999999
aF0.49397999999999997
aF0.59955999999999998
aF0.82647999999999999
aF0.83260000000000001
aF0.40733999999999998
aF0.53337999999999997
aF0.70494999999999997
aF0.40192
aF0.81669999999999998
aF0.46504000000000001
aF0.19302
aF0.63368000000000002
aF0.32524999999999998
aF0.15934999999999999
aF0.49193999999999999
aF0.076670000000000002
aF0.15629999999999999
aF0.21808
aF0.74772000000000005
aF0.73307
aF0.038120000000000001
aF0.45522000000000001
aF0.11675000000000001
aF0.054039999999999998
aF0.48141
aF0.42086000000000001
aF0.78408999999999995
aF0.43814999999999998
aF0.042999999999999997
aF0.45289000000000001
aF0.13317000000000001
aF0.20932000000000001
aF0.20899000000000001
aF0.30409999999999998
aF0.61682999999999999
aF0.47420000000000001
aF0.60175000000000001
aF0.62977000000000005
aF0.34825
aF0.84928000000000003
aF0.51570000000000005
aF0.59262000000000004
aF0.41898999999999997
aF0.46939999999999998
aF0.51773999999999998
aF0.36946000000000001
aF0.048779999999999997
aF0.51805999999999996
aF0.59289999999999998
aF0.39938000000000001
aF0.42065999999999998
aF0.62487999999999999
aF0.71375999999999995
aF0.19302
aF0.61150000000000004
aF0.54578000000000004
aF0.15189
aF0.47205999999999998
aF0.64651000000000003
aF0.44891999999999999
aF0.065310000000000007
aF0.39706999999999998
aF0.079600000000000004
aF0.46193000000000001
aF0.36581000000000002
aF0.12361999999999999
asS'multi5'
p5
(lp6
F0.020320000000000001
asS'multi4'
p7
(lp8
F0.19203000000000001
aF0.14835000000000001
asS'bn'
p9
(lp10
F0.13405
aF0.47264
aF0.49259999999999998
aF0.60923000000000005
aF0.60555000000000003
aF0.62214000000000003
aF1.0
aF0.44240000000000002
aF0.64132999999999996
aF0.47277999999999998
aF0.39516000000000001
aF0.48970000000000002
aF0.48026000000000002
aF0.60614000000000001
aF0.51107999999999998
aF0.40355999999999997
aF0.45606999999999998
aF0.48651
aF0.38402999999999998
aF0.16986999999999999
aF0.46429999999999999
aF0.42251
aF0.48404000000000003
aF0.54020000000000001
aF0.63032999999999995
aF0.67012000000000005
aF0.50453000000000003
aF0.57655000000000001
aF0.66649999999999998
aF0.66729000000000005
aF0.40192
aF0.53337999999999997
aF1.0
aF0.54064000000000001
aF0.30681000000000003
aF0.33165
aF0.43475999999999998
aF0.47815000000000002
aF0.39582000000000001
aF0.46522000000000002
aF0.53337999999999997
aF0.49136000000000002
aF1.0
aF0.38650000000000001
aF0.56491000000000002
aF0.46771000000000001
aF1.0
aF1.0
aF0.33976000000000001
aF0.37339
aF0.64964
aF0.60592999999999997
aF0.50017999999999996
aF0.55878000000000005
aF0.10156999999999999
aF0.44756000000000001
aF0.42315999999999998
aF0.39157999999999998
aF1.0
aF0.59204000000000001
aF0.62214000000000003
aF0.61682999999999999
aF0.42282999999999998
aF0.12848999999999999
aF0.57655000000000001
aF0.29388999999999998
aF0.59987000000000001
aF0.42319000000000001
aF1.0
aF0.50517000000000001
aF0.3503
aF0.36108000000000001
aF0.38818000000000003
aF0.60592999999999997
aF0.45522000000000001
aF0.32101000000000002
aF1.0
aF0.36357
aF0.31148999999999999
aF0.48924000000000001
aF0.31108000000000002
aF1.0
aF0.63729000000000002
aF0.58809999999999996
aF0.61114999999999997
aF0.42748999999999998
aF0.33617000000000002
aF0.62214000000000003
aF1.0
aF0.21399000000000001
aF0.40694999999999998
aF0.66649999999999998
aF0.18923999999999999
asS'ap'
p11
(lp12
F0.59496000000000004
aF0.65563000000000005
aF0.44963999999999998
aF0.30558999999999997
aF0.33252999999999999
aF0.59692000000000001
aF0.14838000000000001
aF0.54866000000000004
aF0.096060000000000006
aF0.77034999999999998
aF0.37374000000000002
aF0.091200000000000003
aF0.47706999999999999
aF0.43226999999999999
aF0.76717999999999997
aF0.73045000000000004
aF0.85441
aF0.37839
aF0.63036999999999999
aF0.40392
aF0.32627
aF0.83528999999999998
aF0.40349000000000002
aF0.84494999999999998
aF0.68054000000000003
aF0.36703000000000002
aF0.65088999999999997
aF0.30395
aF0.80862999999999996
aF0.34619
aF0.54747000000000001
aF0.50373999999999997
aF0.63141000000000003
aF0.70431999999999995
aF0.58257000000000003
aF0.73477000000000003
aF0.86429999999999996
aF0.60253000000000001
aF0.78386999999999996
aF0.73924000000000001
aF0.76414000000000004
aF0.74114000000000002
aF0.34462999999999999
aF0.70913999999999999
aF0.4143
aF0.40466999999999997
aF0.23824000000000001
aF0.53693999999999997
aF0.33051000000000003
aF0.30385000000000001
aF0.071919999999999998
aF0.81427000000000005
aF0.78442000000000001
aF0.34860000000000002
aF0.32877000000000001
aF0.75629999999999997
aF0.86092999999999997
aF0.86663000000000001
aF0.61155999999999999
aF0.72411999999999999
aF0.71640000000000004
aF0.80059999999999998
aF0.69576000000000005
aF0.85721999999999998
aF0.75829999999999997
aF0.078829999999999997
aF0.63483999999999996
aF0.50875999999999999
aF0.65795999999999999
aF0.40027000000000001
aF0.073910000000000003
aF0.13947000000000001
aF0.81893000000000005
aF0.80879000000000001
aF0.79007000000000005
aF0.83682000000000001
aF0.73045000000000004
aF0.75683
aF0.71209
aF0.52963000000000005
aF0.41399000000000002
aF0.84687000000000001
aF0.074490000000000001
aF0.59297999999999995
aF0.43226999999999999
aF0.78956999999999999
aF0.85257000000000005
aF0.84965999999999997
aF0.84784999999999999
aF0.61841999999999997
aF0.31317
aF0.81938
aF0.47091
aF0.29820000000000002
aF0.15372
aF0.53090999999999999
aF0.52927999999999997
aF0.70574999999999999
aF0.82052000000000003
aF0.86348000000000003
aF0.82088000000000005
aF0.50973000000000002
aF0.86282999999999999
aF0.84519
aF0.82979000000000003
aF0.34275
aF0.77212999999999998
aF0.18887999999999999
aF0.79376999999999998
aF0.78541000000000005
aF0.72584000000000004
aF0.70706999999999998
aF0.82252999999999998
aF0.76619000000000004
aF0.83062000000000002
aF0.51976999999999995
aF0.83269000000000004
aF0.54962999999999995
aF0.57733999999999996
aF0.33984999999999999
aF0.23635999999999999
aF0.64807999999999999
aF0.21396000000000001
aF0.69591000000000003
aF0.52432000000000001
aF0.15686
aF0.70962999999999998
aF0.78544000000000003
aF0.72611999999999999
aF0.69782
aF0.80637000000000003
aF0.73536999999999997
aF0.67329000000000006
aF0.75155000000000005
aF0.36548999999999998
aF0.30136000000000002
aF0.066790000000000002
aF0.69872000000000001
aF0.14767
aF0.29787000000000002
aF0.84248000000000001
aF0.55227000000000004
aF0.54962999999999995
aF0.75844
aF0.84614
aF0.77395000000000003
aF0.77034999999999998
aF0.16467999999999999
aF0.84928000000000003
aF0.54532000000000003
aF0.19122
aF0.10453
aF0.74933000000000005
aF0.52271000000000001
aF0.14254
aF0.25896999999999998
aF0.34687000000000001
aF0.70170999999999994
aF0.36252000000000001
aF0.78588000000000002
asS'single'
p13
(lp14
F0.13405
aF0.47264
aF0.49259999999999998
aF0.60923000000000005
aF0.60555000000000003
aF0.62214000000000003
aF1.0
aF0.44240000000000002
aF0.64132999999999996
aF0.47277999999999998
aF0.39516000000000001
aF0.48970000000000002
aF0.48026000000000002
aF0.60614000000000001
aF0.51107999999999998
aF0.40355999999999997
aF0.45606999999999998
aF0.48651
aF0.38402999999999998
aF0.16986999999999999
aF0.46429999999999999
aF0.42251
aF0.48404000000000003
aF0.54020000000000001
aF0.63032999999999995
aF0.67012000000000005
aF0.50453000000000003
aF0.57655000000000001
aF0.66649999999999998
aF0.66729000000000005
aF0.40192
aF0.53337999999999997
aF1.0
aF0.54064000000000001
aF0.30681000000000003
aF0.33165
aF0.43475999999999998
aF0.47815000000000002
aF0.39582000000000001
aF0.46522000000000002
aF0.53337999999999997
aF0.49136000000000002
aF1.0
aF0.38650000000000001
aF0.56491000000000002
aF0.46771000000000001
aF1.0
aF1.0
aF0.33976000000000001
aF0.37339
aF0.64964
aF0.60592999999999997
aF0.50017999999999996
aF0.55878000000000005
aF0.10156999999999999
aF0.44756000000000001
aF0.42315999999999998
aF0.39157999999999998
aF1.0
aF0.59204000000000001
aF0.62214000000000003
aF0.61682999999999999
aF0.42282999999999998
aF0.12848999999999999
aF0.57655000000000001
aF0.29388999999999998
aF0.59987000000000001
aF0.42319000000000001
aF1.0
aF0.50517000000000001
aF0.3503
aF0.36108000000000001
aF0.38818000000000003
aF0.60592999999999997
aF0.45522000000000001
aF0.32101000000000002
aF1.0
aF0.36357
aF0.31148999999999999
aF0.48924000000000001
aF0.31108000000000002
aF1.0
aF0.63729000000000002
aF0.58809999999999996
aF0.61114999999999997
aF0.42748999999999998
aF0.33617000000000002
aF0.62214000000000003
aF1.0
aF0.21399000000000001
aF0.40694999999999998
aF0.66649999999999998
aF0.18923999999999999
aF0.26919999999999999
aF0.10507
aF0.50058000000000002
aF0.51846999999999999
aF0.22459999999999999
aF0.64842999999999995
aF0.80442000000000002
aF0.46817999999999999
aF0.30681000000000003
aF0.13827999999999999
aF0.04512
aF0.17027999999999999
aF0.24640999999999999
aF0.21948999999999999
aF0.38468999999999998
aF0.70121999999999995
aF0.70599999999999996
aF0.24945999999999999
aF0.47902
aF0.4073
aF0.31902000000000003
aF0.44585000000000002
aF0.29463
aF0.46073999999999998
aF0.40361999999999998
aF0.63397999999999999
aF0.57655000000000001
aF0.38924999999999998
aF0.55215000000000003
aF0.064119999999999996
aF0.32252999999999998
aF0.40115000000000001
aF0.41234999999999999
aF0.39593
aF0.65271000000000001
aF0.45017000000000001
aF0.094299999999999995
aF0.26112999999999997
aF0.47555999999999998
aF0.68593000000000004
aF0.44882
aF0.32705000000000001
aF0.47277999999999998
aF0.40683000000000002
aF0.52486999999999995
aF0.46842
aF0.45846999999999999
aF0.46292
aF0.68574999999999997
aF0.45534999999999998
aF0.48986000000000002
aF0.32232
aF0.47265000000000001
aF0.32455000000000001
aF0.41970000000000002
aF0.30851000000000001
aF0.38741999999999999
aF0.31723000000000001
aF0.56552999999999998
aF0.39065
aF0.42688999999999999
aF0.65271000000000001
aF0.48559000000000002
aF0.47420000000000001
aF0.40660000000000002
aF0.34132000000000001
aF0.38680999999999999
aF0.40900999999999998
aF0.48026000000000002
aF0.14784
aF0.50649
aF0.25696999999999998
aF0.26974999999999999
aF0.27799000000000001
aF0.61506000000000005
aF0.46583000000000002
aF0.22502
aF0.14271
aF0.10774
aF0.48188999999999999
aF0.58882000000000001
aF0.10313
aF0.05534
aF0.43845000000000001
aF0.058990000000000001
aF0.29958000000000001
aF0.46639999999999998
aF0.099860000000000004
aF0.13033
aF0.23169000000000001
aF0.39367000000000002
aF0.37796000000000002
aF0.17519000000000001
aF0.66303000000000001
aF0.49814999999999998
aF0.48187000000000002
aF0.29730000000000001
aF0.31796000000000002
aF0.35315999999999997
aF0.47777999999999998
aF0.42614999999999997
aF0.58194000000000001
aF0.32978000000000002
aF0.42293999999999998
aF0.13713
aF0.48651
aF0.28461999999999998
aF0.13322000000000001
aF0.15637000000000001
aF0.49120999999999998
aF0.27606000000000003
aF0.27743000000000001
aF0.48526999999999998
aF0.24229999999999999
aF0.49619999999999997
aF0.56857000000000002
aF0.31646000000000002
aF0.39157999999999998
aF0.43730000000000002
aF0.052769999999999997
aF0.58809999999999996
aF0.6482
aF0.43430999999999997
aF0.32483000000000001
aF0.42498999999999998
aF0.49001
aF0.20205000000000001
aF0.46631
aF0.14302999999999999
aF0.66469999999999996
aF0.34752
aF0.48463000000000001
aF0.37624000000000002
aF0.30468000000000001
aF0.35826000000000002
aF0.60614000000000001
aF0.50822999999999996
aF0.47116999999999998
aF0.40660000000000002
aF0.42803000000000002
aF0.11502
aF0.21273
aF0.35820000000000002
aF0.47277999999999998
aF0.60614000000000001
aF0.63266
aF0.22366
aF0.12060999999999999
aF0.57489000000000001
aF0.84023999999999999
aF0.51083999999999996
aF0.62624000000000002
aF0.56798000000000004
aF0.63032999999999995
aF0.45846999999999999
aF0.10435999999999999
aF0.31274999999999997
aF0.48111999999999999
aF0.24429999999999999
aF0.23222999999999999
aF0.42614999999999997
aF0.59496000000000004
aF0.65563000000000005
aF0.44963999999999998
aF0.30558999999999997
aF0.33252999999999999
aF0.59692000000000001
aF0.14838000000000001
aF0.54866000000000004
aF0.096060000000000006
aF0.77034999999999998
aF0.37374000000000002
aF0.091200000000000003
aF0.47706999999999999
aF0.43226999999999999
aF0.76717999999999997
aF0.73045000000000004
aF0.85441
aF0.37839
aF0.63036999999999999
aF0.40392
aF0.32627
aF0.83528999999999998
aF0.40349000000000002
aF0.84494999999999998
aF0.68054000000000003
aF0.36703000000000002
aF0.65088999999999997
aF0.30395
aF0.80862999999999996
aF0.34619
aF0.54747000000000001
aF0.50373999999999997
aF0.63141000000000003
aF0.70431999999999995
aF0.58257000000000003
aF0.73477000000000003
aF0.86429999999999996
aF0.60253000000000001
aF0.78386999999999996
aF0.73924000000000001
aF0.76414000000000004
aF0.74114000000000002
aF0.34462999999999999
aF0.70913999999999999
aF0.4143
aF0.40466999999999997
aF0.23824000000000001
aF0.53693999999999997
aF0.33051000000000003
aF0.30385000000000001
aF0.071919999999999998
aF0.81427000000000005
aF0.78442000000000001
aF0.34860000000000002
aF0.32877000000000001
aF0.75629999999999997
aF0.86092999999999997
aF0.86663000000000001
aF0.61155999999999999
aF0.72411999999999999
aF0.71640000000000004
aF0.80059999999999998
aF0.69576000000000005
aF0.85721999999999998
aF0.75829999999999997
aF0.078829999999999997
aF0.63483999999999996
aF0.50875999999999999
aF0.65795999999999999
aF0.40027000000000001
aF0.073910000000000003
aF0.13947000000000001
aF0.81893000000000005
aF0.80879000000000001
aF0.79007000000000005
aF0.83682000000000001
aF0.73045000000000004
aF0.75683
aF0.71209
aF0.52963000000000005
aF0.41399000000000002
aF0.84687000000000001
aF0.074490000000000001
aF0.59297999999999995
aF0.43226999999999999
aF0.78956999999999999
aF0.85257000000000005
aF0.84965999999999997
aF0.84784999999999999
aF0.61841999999999997
aF0.31317
aF0.81938
aF0.47091
aF0.29820000000000002
aF0.15372
aF0.53090999999999999
aF0.52927999999999997
aF0.70574999999999999
aF0.82052000000000003
aF0.86348000000000003
aF0.82088000000000005
aF0.50973000000000002
aF0.86282999999999999
aF0.84519
aF0.82979000000000003
aF0.34275
aF0.77212999999999998
aF0.18887999999999999
aF0.79376999999999998
aF0.78541000000000005
aF0.72584000000000004
aF0.70706999999999998
aF0.82252999999999998
aF0.76619000000000004
aF0.83062000000000002
aF0.51976999999999995
aF0.83269000000000004
aF0.54962999999999995
aF0.57733999999999996
aF0.33984999999999999
aF0.23635999999999999
aF0.64807999999999999
aF0.21396000000000001
aF0.69591000000000003
aF0.52432000000000001
aF0.15686
aF0.70962999999999998
aF0.78544000000000003
aF0.72611999999999999
aF0.69782
aF0.80637000000000003
aF0.73536999999999997
aF0.67329000000000006
aF0.75155000000000005
aF0.36548999999999998
aF0.30136000000000002
aF0.066790000000000002
aF0.69872000000000001
aF0.14767
aF0.29787000000000002
aF0.84248000000000001
aF0.55227000000000004
aF0.54962999999999995
aF0.75844
aF0.84614
aF0.77395000000000003
aF0.77034999999999998
aF0.16467999999999999
aF0.84928000000000003
aF0.54532000000000003
aF0.19122
aF0.10453
aF0.74933000000000005
aF0.52271000000000001
aF0.14254
aF0.25896999999999998
aF0.34687000000000001
aF0.70170999999999994
aF0.36252000000000001
aF0.78588000000000002
aF0.87387000000000004
aF0.78522999999999998
aF0.75592000000000004
aF0.78276999999999997
aF0.76858000000000004
aF0.39824999999999999
aF0.32905000000000001
aF0.34678999999999999
aF0.66581999999999997
aF0.45994000000000002
aF0.84077000000000002
aF0.31663999999999998
aF0.77751000000000003
aF0.85165999999999997
aF0.42485000000000001
aF0.93310999999999999
aF0.90688000000000002
aF0.90263000000000004
aF0.87295999999999996
aF0.57696999999999998
aF0.85313000000000005
aF0.84277000000000002
aF0.69569999999999999
aF0.79430000000000001
aF0.80162
aF0.30192999999999998
aF0.64770000000000005
aF0.89115999999999995
aF0.4652
aF0.47682999999999998
aF0.61970000000000003
aF0.65076000000000001
aF0.89847999999999995
aF0.88983999999999996
aF0.88941000000000003
aF0.63787000000000005
aF0.56759000000000004
aF0.82143999999999995
aF0.26746999999999999
aF0.79551000000000005
aF0.54810000000000003
aF0.92122000000000004
aF0.66361999999999999
aF0.81574000000000002
aF0.63209000000000004
aF0.87975999999999999
aF0.80074999999999996
aF0.80484
aF0.87970000000000004
aF0.56403000000000003
aF0.52653000000000005
aF0.83157000000000003
aF0.38417000000000001
aF0.70032000000000005
aF0.83972000000000002
aF0.83077999999999996
aF0.33459
aF0.84128000000000003
aF0.93284
aF0.83365999999999996
aF0.90746000000000004
aF0.88963999999999999
aF0.76612999999999998
aF0.38416
aF0.76322000000000001
aF0.85768999999999995
aF0.90808999999999995
aF0.56352999999999998
aF0.79039999999999999
aF0.62414999999999998
aF0.71199000000000001
aF0.84816000000000003
aF0.88890000000000002
aF0.89970000000000006
aF0.78376999999999997
aF0.48393999999999998
aF0.92132999999999998
aF0.81874000000000002
aF0.81957000000000002
aF0.84245000000000003
aF0.91507000000000005
aF0.92991999999999997
aF0.91898000000000002
aF0.91757999999999995
aF0.86731000000000003
aF0.67813999999999997
aF0.93149999999999999
aF0.91015000000000001
aF0.91015000000000001
aF0.87783999999999995
aF0.88912999999999998
aF0.86768999999999996
aF0.83201000000000003
aF0.93542000000000003
aF0.88895999999999997
aF0.92730999999999997
aF0.93728
aF0.93754999999999999
aF0.91735
aF0.92369000000000001
aF0.90798999999999996
aF0.92522000000000004
aF0.87973999999999997
aF0.93535999999999997
aF0.92474000000000001
aF0.93784999999999996
aF0.90547
aF0.81657000000000002
aF0.90549999999999997
aF0.91984999999999995
aF0.93732000000000004
aF0.88055000000000005
aF0.83804999999999996
aF0.93542000000000003
aF0.93886000000000003
aF0.93259000000000003
aF0.85907999999999995
aF0.86523000000000005
aF0.89192000000000005
aF0.90368999999999999
aF0.91625000000000001
aF0.93342000000000003
aF0.92617000000000005
aF0.93664999999999998
aF0.93732000000000004
aF0.93711
aF0.69044000000000005
aF0.78996999999999995
aF0.72977000000000003
aF0.52947
aF0.74106000000000005
aF0.49413000000000001
aF0.67430999999999996
aF0.64839999999999998
aF0.64712000000000003
aF0.70670999999999995
aF0.77227000000000001
aF0.76078999999999997
aF0.78693000000000002
aF0.60409000000000002
aF0.57411999999999996
aF0.78019000000000005
aF0.63827999999999996
aF0.78747
aF0.59924999999999995
aF0.67874999999999996
aF0.67269999999999996
aF0.65278999999999998
aF0.67515999999999998
aF0.79637000000000002
aF0.79559000000000002
asS'yes'
p15
(lp16
F0.84245000000000003
aF0.91507000000000005
aF0.92991999999999997
aF0.91898000000000002
aF0.91757999999999995
aF0.86731000000000003
aF0.67813999999999997
aF0.93149999999999999
aF0.91015000000000001
aF0.91015000000000001
aF0.87783999999999995
aF0.88912999999999998
aF0.86768999999999996
aF0.83201000000000003
aF0.93542000000000003
aF0.88895999999999997
aF0.92730999999999997
aF0.93728
aF0.93754999999999999
aF0.91735
aF0.92369000000000001
aF0.90798999999999996
aF0.92522000000000004
aF0.87973999999999997
aF0.93535999999999997
aF0.92474000000000001
aF0.93784999999999996
aF0.90547
aF0.81657000000000002
aF0.90549999999999997
aF0.91984999999999995
aF0.93732000000000004
aF0.88055000000000005
aF0.83804999999999996
aF0.93542000000000003
aF0.93886000000000003
aF0.93259000000000003
aF0.85907999999999995
aF0.86523000000000005
aF0.89192000000000005
aF0.90368999999999999
aF0.91625000000000001
aF0.93342000000000003
aF0.92617000000000005
aF0.93664999999999998
aF0.93732000000000004
aF0.93711
asS'total'
p17
(lp18
F0.13405
aF0.47264
aF0.49259999999999998
aF0.60923000000000005
aF0.60555000000000003
aF0.62214000000000003
aF1.0
aF0.44240000000000002
aF0.64132999999999996
aF0.47277999999999998
aF0.39516000000000001
aF0.48970000000000002
aF0.48026000000000002
aF0.60614000000000001
aF0.51107999999999998
aF0.40355999999999997
aF0.45606999999999998
aF0.48651
aF0.38402999999999998
aF0.16986999999999999
aF0.46429999999999999
aF0.42251
aF0.48404000000000003
aF0.54020000000000001
aF0.63032999999999995
aF0.67012000000000005
aF0.50453000000000003
aF0.57655000000000001
aF0.66649999999999998
aF0.66729000000000005
aF0.40192
aF0.53337999999999997
aF1.0
aF0.54064000000000001
aF0.30681000000000003
aF0.33165
aF0.43475999999999998
aF0.47815000000000002
aF0.39582000000000001
aF0.46522000000000002
aF0.53337999999999997
aF0.49136000000000002
aF1.0
aF0.38650000000000001
aF0.56491000000000002
aF0.46771000000000001
aF1.0
aF1.0
aF0.33976000000000001
aF0.37339
aF0.64964
aF0.60592999999999997
aF0.50017999999999996
aF0.55878000000000005
aF0.10156999999999999
aF0.44756000000000001
aF0.42315999999999998
aF0.39157999999999998
aF1.0
aF0.59204000000000001
aF0.62214000000000003
aF0.61682999999999999
aF0.42282999999999998
aF0.12848999999999999
aF0.57655000000000001
aF0.29388999999999998
aF0.59987000000000001
aF0.42319000000000001
aF1.0
aF0.50517000000000001
aF0.3503
aF0.36108000000000001
aF0.38818000000000003
aF0.60592999999999997
aF0.45522000000000001
aF0.32101000000000002
aF1.0
aF0.36357
aF0.31148999999999999
aF0.48924000000000001
aF0.31108000000000002
aF1.0
aF0.63729000000000002
aF0.58809999999999996
aF0.61114999999999997
aF0.42748999999999998
aF0.33617000000000002
aF0.62214000000000003
aF1.0
aF0.21399000000000001
aF0.40694999999999998
aF0.66649999999999998
aF0.18923999999999999
aF0.26919999999999999
aF0.10507
aF0.50058000000000002
aF0.51846999999999999
aF0.22459999999999999
aF0.64842999999999995
aF0.80442000000000002
aF0.46817999999999999
aF0.30681000000000003
aF0.13827999999999999
aF0.04512
aF0.17027999999999999
aF0.24640999999999999
aF0.21948999999999999
aF0.38468999999999998
aF0.70121999999999995
aF0.70599999999999996
aF0.24945999999999999
aF0.47902
aF0.4073
aF0.31902000000000003
aF0.44585000000000002
aF0.29463
aF0.46073999999999998
aF0.40361999999999998
aF0.63397999999999999
aF0.57655000000000001
aF0.38924999999999998
aF0.55215000000000003
aF0.064119999999999996
aF0.32252999999999998
aF0.40115000000000001
aF0.41234999999999999
aF0.39593
aF0.65271000000000001
aF0.45017000000000001
aF0.094299999999999995
aF0.26112999999999997
aF0.47555999999999998
aF0.68593000000000004
aF0.44882
aF0.32705000000000001
aF0.47277999999999998
aF0.40683000000000002
aF0.52486999999999995
aF0.46842
aF0.45846999999999999
aF0.46292
aF0.68574999999999997
aF0.45534999999999998
aF0.48986000000000002
aF0.32232
aF0.47265000000000001
aF0.32455000000000001
aF0.41970000000000002
aF0.30851000000000001
aF0.38741999999999999
aF0.31723000000000001
aF0.56552999999999998
aF0.39065
aF0.42688999999999999
aF0.65271000000000001
aF0.48559000000000002
aF0.47420000000000001
aF0.40660000000000002
aF0.34132000000000001
aF0.38680999999999999
aF0.40900999999999998
aF0.48026000000000002
aF0.14784
aF0.50649
aF0.25696999999999998
aF0.26974999999999999
aF0.27799000000000001
aF0.61506000000000005
aF0.46583000000000002
aF0.22502
aF0.14271
aF0.10774
aF0.48188999999999999
aF0.58882000000000001
aF0.10313
aF0.05534
aF0.43845000000000001
aF0.058990000000000001
aF0.29958000000000001
aF0.46639999999999998
aF0.099860000000000004
aF0.13033
aF0.23169000000000001
aF0.39367000000000002
aF0.37796000000000002
aF0.17519000000000001
aF0.66303000000000001
aF0.49814999999999998
aF0.48187000000000002
aF0.29730000000000001
aF0.31796000000000002
aF0.35315999999999997
aF0.47777999999999998
aF0.42614999999999997
aF0.58194000000000001
aF0.32978000000000002
aF0.42293999999999998
aF0.13713
aF0.48651
aF0.28461999999999998
aF0.13322000000000001
aF0.15637000000000001
aF0.49120999999999998
aF0.27606000000000003
aF0.27743000000000001
aF0.48526999999999998
aF0.24229999999999999
aF0.49619999999999997
aF0.56857000000000002
aF0.31646000000000002
aF0.39157999999999998
aF0.43730000000000002
aF0.052769999999999997
aF0.58809999999999996
aF0.6482
aF0.43430999999999997
aF0.32483000000000001
aF0.42498999999999998
aF0.49001
aF0.20205000000000001
aF0.46631
aF0.14302999999999999
aF0.66469999999999996
aF0.34752
aF0.48463000000000001
aF0.37624000000000002
aF0.30468000000000001
aF0.35826000000000002
aF0.60614000000000001
aF0.50822999999999996
aF0.47116999999999998
aF0.40660000000000002
aF0.42803000000000002
aF0.11502
aF0.21273
aF0.35820000000000002
aF0.47277999999999998
aF0.60614000000000001
aF0.63266
aF0.22366
aF0.12060999999999999
aF0.57489000000000001
aF0.84023999999999999
aF0.51083999999999996
aF0.62624000000000002
aF0.56798000000000004
aF0.63032999999999995
aF0.45846999999999999
aF0.10435999999999999
aF0.31274999999999997
aF0.48111999999999999
aF0.24429999999999999
aF0.23222999999999999
aF0.42614999999999997
aF0.59496000000000004
aF0.65563000000000005
aF0.44963999999999998
aF0.30558999999999997
aF0.33252999999999999
aF0.59692000000000001
aF0.14838000000000001
aF0.54866000000000004
aF0.096060000000000006
aF0.77034999999999998
aF0.37374000000000002
aF0.091200000000000003
aF0.47706999999999999
aF0.43226999999999999
aF0.76717999999999997
aF0.73045000000000004
aF0.85441
aF0.37839
aF0.63036999999999999
aF0.40392
aF0.32627
aF0.83528999999999998
aF0.40349000000000002
aF0.84494999999999998
aF0.68054000000000003
aF0.36703000000000002
aF0.65088999999999997
aF0.30395
aF0.80862999999999996
aF0.34619
aF0.54747000000000001
aF0.50373999999999997
aF0.63141000000000003
aF0.70431999999999995
aF0.58257000000000003
aF0.73477000000000003
aF0.86429999999999996
aF0.60253000000000001
aF0.78386999999999996
aF0.73924000000000001
aF0.76414000000000004
aF0.74114000000000002
aF0.34462999999999999
aF0.70913999999999999
aF0.4143
aF0.40466999999999997
aF0.23824000000000001
aF0.53693999999999997
aF0.33051000000000003
aF0.30385000000000001
aF0.071919999999999998
aF0.81427000000000005
aF0.78442000000000001
aF0.34860000000000002
aF0.32877000000000001
aF0.75629999999999997
aF0.86092999999999997
aF0.86663000000000001
aF0.61155999999999999
aF0.72411999999999999
aF0.71640000000000004
aF0.80059999999999998
aF0.69576000000000005
aF0.85721999999999998
aF0.75829999999999997
aF0.078829999999999997
aF0.63483999999999996
aF0.50875999999999999
aF0.65795999999999999
aF0.40027000000000001
aF0.073910000000000003
aF0.13947000000000001
aF0.81893000000000005
aF0.80879000000000001
aF0.79007000000000005
aF0.83682000000000001
aF0.73045000000000004
aF0.75683
aF0.71209
aF0.52963000000000005
aF0.41399000000000002
aF0.84687000000000001
aF0.074490000000000001
aF0.59297999999999995
aF0.43226999999999999
aF0.78956999999999999
aF0.85257000000000005
aF0.84965999999999997
aF0.84784999999999999
aF0.61841999999999997
aF0.31317
aF0.81938
aF0.47091
aF0.29820000000000002
aF0.15372
aF0.53090999999999999
aF0.52927999999999997
aF0.70574999999999999
aF0.82052000000000003
aF0.86348000000000003
aF0.82088000000000005
aF0.50973000000000002
aF0.86282999999999999
aF0.84519
aF0.82979000000000003
aF0.34275
aF0.77212999999999998
aF0.18887999999999999
aF0.79376999999999998
aF0.78541000000000005
aF0.72584000000000004
aF0.70706999999999998
aF0.82252999999999998
aF0.76619000000000004
aF0.83062000000000002
aF0.51976999999999995
aF0.83269000000000004
aF0.54962999999999995
aF0.57733999999999996
aF0.33984999999999999
aF0.23635999999999999
aF0.64807999999999999
aF0.21396000000000001
aF0.69591000000000003
aF0.52432000000000001
aF0.15686
aF0.70962999999999998
aF0.78544000000000003
aF0.72611999999999999
aF0.69782
aF0.80637000000000003
aF0.73536999999999997
aF0.67329000000000006
aF0.75155000000000005
aF0.36548999999999998
aF0.30136000000000002
aF0.066790000000000002
aF0.69872000000000001
aF0.14767
aF0.29787000000000002
aF0.84248000000000001
aF0.55227000000000004
aF0.54962999999999995
aF0.75844
aF0.84614
aF0.77395000000000003
aF0.77034999999999998
aF0.16467999999999999
aF0.84928000000000003
aF0.54532000000000003
aF0.19122
aF0.10453
aF0.74933000000000005
aF0.52271000000000001
aF0.14254
aF0.25896999999999998
aF0.34687000000000001
aF0.70170999999999994
aF0.36252000000000001
aF0.78588000000000002
aF0.87387000000000004
aF0.78522999999999998
aF0.75592000000000004
aF0.78276999999999997
aF0.76858000000000004
aF0.39824999999999999
aF0.32905000000000001
aF0.34678999999999999
aF0.66581999999999997
aF0.45994000000000002
aF0.84077000000000002
aF0.31663999999999998
aF0.77751000000000003
aF0.85165999999999997
aF0.42485000000000001
aF0.93310999999999999
aF0.90688000000000002
aF0.90263000000000004
aF0.87295999999999996
aF0.57696999999999998
aF0.85313000000000005
aF0.84277000000000002
aF0.69569999999999999
aF0.79430000000000001
aF0.80162
aF0.30192999999999998
aF0.64770000000000005
aF0.89115999999999995
aF0.4652
aF0.47682999999999998
aF0.61970000000000003
aF0.65076000000000001
aF0.89847999999999995
aF0.88983999999999996
aF0.88941000000000003
aF0.63787000000000005
aF0.56759000000000004
aF0.82143999999999995
aF0.26746999999999999
aF0.79551000000000005
aF0.54810000000000003
aF0.92122000000000004
aF0.66361999999999999
aF0.81574000000000002
aF0.63209000000000004
aF0.87975999999999999
aF0.80074999999999996
aF0.80484
aF0.87970000000000004
aF0.56403000000000003
aF0.52653000000000005
aF0.83157000000000003
aF0.38417000000000001
aF0.70032000000000005
aF0.83972000000000002
aF0.83077999999999996
aF0.33459
aF0.84128000000000003
aF0.93284
aF0.83365999999999996
aF0.90746000000000004
aF0.88963999999999999
aF0.76612999999999998
aF0.38416
aF0.76322000000000001
aF0.85768999999999995
aF0.90808999999999995
aF0.56352999999999998
aF0.79039999999999999
aF0.62414999999999998
aF0.71199000000000001
aF0.84816000000000003
aF0.88890000000000002
aF0.89970000000000006
aF0.78376999999999997
aF0.48393999999999998
aF0.92132999999999998
aF0.81874000000000002
aF0.81957000000000002
aF0.84245000000000003
aF0.91507000000000005
aF0.92991999999999997
aF0.91898000000000002
aF0.91757999999999995
aF0.86731000000000003
aF0.67813999999999997
aF0.93149999999999999
aF0.91015000000000001
aF0.91015000000000001
aF0.87783999999999995
aF0.88912999999999998
aF0.86768999999999996
aF0.83201000000000003
aF0.93542000000000003
aF0.88895999999999997
aF0.92730999999999997
aF0.93728
aF0.93754999999999999
aF0.91735
aF0.92369000000000001
aF0.90798999999999996
aF0.92522000000000004
aF0.87973999999999997
aF0.93535999999999997
aF0.92474000000000001
aF0.93784999999999996
aF0.90547
aF0.81657000000000002
aF0.90549999999999997
aF0.91984999999999995
aF0.93732000000000004
aF0.88055000000000005
aF0.83804999999999996
aF0.93542000000000003
aF0.93886000000000003
aF0.93259000000000003
aF0.85907999999999995
aF0.86523000000000005
aF0.89192000000000005
aF0.90368999999999999
aF0.91625000000000001
aF0.93342000000000003
aF0.92617000000000005
aF0.93664999999999998
aF0.93732000000000004
aF0.93711
aF0.69044000000000005
aF0.78996999999999995
aF0.72977000000000003
aF0.52947
aF0.74106000000000005
aF0.49413000000000001
aF0.67430999999999996
aF0.64839999999999998
aF0.64712000000000003
aF0.70670999999999995
aF0.77227000000000001
aF0.76078999999999997
aF0.78693000000000002
aF0.60409000000000002
aF0.57411999999999996
aF0.78019000000000005
aF0.63827999999999996
aF0.78747
aF0.59924999999999995
aF0.67874999999999996
aF0.67269999999999996
aF0.65278999999999998
aF0.67515999999999998
aF0.79637000000000002
aF0.79559000000000002
aF0.18409
aF0.074660000000000004
aF0.64183000000000001
aF0.43828
aF0.64478999999999997
aF0.4511
aF0.74395999999999995
aF0.28649999999999998
aF0.20552000000000001
aF0.48858000000000001
aF0.60375000000000001
aF0.41448000000000002
aF0.28290999999999999
aF0.77020999999999995
aF0.40664
aF0.59992999999999996
aF0.61863999999999997
aF0.20577999999999999
aF0.57501000000000002
aF0.79298000000000002
aF0.52268999999999999
aF0.73116000000000003
aF0.57899
aF0.44829000000000002
aF0.72413000000000005
aF0.40192
aF0.32868999999999998
aF0.73177999999999999
aF0.49397999999999997
aF0.59955999999999998
aF0.82647999999999999
aF0.83260000000000001
aF0.40733999999999998
aF0.53337999999999997
aF0.70494999999999997
aF0.40192
aF0.81669999999999998
aF0.46504000000000001
aF0.19302
aF0.63368000000000002
aF0.32524999999999998
aF0.15934999999999999
aF0.49193999999999999
aF0.076670000000000002
aF0.15629999999999999
aF0.21808
aF0.74772000000000005
aF0.73307
aF0.038120000000000001
aF0.45522000000000001
aF0.11675000000000001
aF0.054039999999999998
aF0.48141
aF0.42086000000000001
aF0.78408999999999995
aF0.43814999999999998
aF0.042999999999999997
aF0.45289000000000001
aF0.13317000000000001
aF0.20932000000000001
aF0.20899000000000001
aF0.30409999999999998
aF0.61682999999999999
aF0.47420000000000001
aF0.60175000000000001
aF0.62977000000000005
aF0.34825
aF0.84928000000000003
aF0.51570000000000005
aF0.59262000000000004
aF0.41898999999999997
aF0.46939999999999998
aF0.51773999999999998
aF0.36946000000000001
aF0.048779999999999997
aF0.51805999999999996
aF0.59289999999999998
aF0.39938000000000001
aF0.42065999999999998
aF0.62487999999999999
aF0.71375999999999995
aF0.19302
aF0.61150000000000004
aF0.54578000000000004
aF0.15189
aF0.47205999999999998
aF0.64651000000000003
aF0.44891999999999999
aF0.065310000000000007
aF0.39706999999999998
aF0.079600000000000004
aF0.46193000000000001
aF0.36581000000000002
aF0.12361999999999999
aF0.0092599999999999991
aF0.099879999999999997
aF0.25035000000000002
aF0.098049999999999998
aF0.039289999999999999
aF0.098080000000000001
aF0.20805000000000001
aF0.29411999999999999
aF0.29110000000000003
aF0.14171
aF0.055759999999999997
aF0.069180000000000005
aF0.27500999999999998
aF0.19203000000000001
aF0.14835000000000001
aF0.020320000000000001
asS'dp'
p19
(lp20
F0.26919999999999999
aF0.10507
aF0.50058000000000002
aF0.51846999999999999
aF0.22459999999999999
aF0.64842999999999995
aF0.80442000000000002
aF0.46817999999999999
aF0.30681000000000003
aF0.13827999999999999
aF0.04512
aF0.17027999999999999
aF0.24640999999999999
aF0.21948999999999999
aF0.38468999999999998
aF0.70121999999999995
aF0.70599999999999996
aF0.24945999999999999
aF0.47902
aF0.4073
aF0.31902000000000003
aF0.44585000000000002
aF0.29463
aF0.46073999999999998
aF0.40361999999999998
aF0.63397999999999999
aF0.57655000000000001
aF0.38924999999999998
aF0.55215000000000003
aF0.064119999999999996
aF0.32252999999999998
aF0.40115000000000001
aF0.41234999999999999
aF0.39593
aF0.65271000000000001
aF0.45017000000000001
aF0.094299999999999995
aF0.26112999999999997
aF0.47555999999999998
aF0.68593000000000004
aF0.44882
aF0.32705000000000001
aF0.47277999999999998
aF0.40683000000000002
aF0.52486999999999995
aF0.46842
aF0.45846999999999999
aF0.46292
aF0.68574999999999997
aF0.45534999999999998
aF0.48986000000000002
aF0.32232
aF0.47265000000000001
aF0.32455000000000001
aF0.41970000000000002
aF0.30851000000000001
aF0.38741999999999999
aF0.31723000000000001
aF0.56552999999999998
aF0.39065
aF0.42688999999999999
aF0.65271000000000001
aF0.48559000000000002
aF0.47420000000000001
aF0.40660000000000002
aF0.34132000000000001
aF0.38680999999999999
aF0.40900999999999998
aF0.48026000000000002
aF0.14784
aF0.50649
aF0.25696999999999998
aF0.26974999999999999
aF0.27799000000000001
aF0.61506000000000005
aF0.46583000000000002
aF0.22502
aF0.14271
aF0.10774
aF0.48188999999999999
aF0.58882000000000001
aF0.10313
aF0.05534
aF0.43845000000000001
aF0.058990000000000001
aF0.29958000000000001
aF0.46639999999999998
aF0.099860000000000004
aF0.13033
aF0.23169000000000001
aF0.39367000000000002
aF0.37796000000000002
aF0.17519000000000001
aF0.66303000000000001
aF0.49814999999999998
aF0.48187000000000002
aF0.29730000000000001
aF0.31796000000000002
aF0.35315999999999997
aF0.47777999999999998
aF0.42614999999999997
aF0.58194000000000001
aF0.32978000000000002
aF0.42293999999999998
aF0.13713
aF0.48651
aF0.28461999999999998
aF0.13322000000000001
aF0.15637000000000001
aF0.49120999999999998
aF0.27606000000000003
aF0.27743000000000001
aF0.48526999999999998
aF0.24229999999999999
aF0.49619999999999997
aF0.56857000000000002
aF0.31646000000000002
aF0.39157999999999998
aF0.43730000000000002
aF0.052769999999999997
aF0.58809999999999996
aF0.6482
aF0.43430999999999997
aF0.32483000000000001
aF0.42498999999999998
aF0.49001
aF0.20205000000000001
aF0.46631
aF0.14302999999999999
aF0.66469999999999996
aF0.34752
aF0.48463000000000001
aF0.37624000000000002
aF0.30468000000000001
aF0.35826000000000002
aF0.60614000000000001
aF0.50822999999999996
aF0.47116999999999998
aF0.40660000000000002
aF0.42803000000000002
aF0.11502
aF0.21273
aF0.35820000000000002
aF0.47277999999999998
aF0.60614000000000001
aF0.63266
aF0.22366
aF0.12060999999999999
aF0.57489000000000001
aF0.84023999999999999
aF0.51083999999999996
aF0.62624000000000002
aF0.56798000000000004
aF0.63032999999999995
aF0.45846999999999999
aF0.10435999999999999
aF0.31274999999999997
aF0.48111999999999999
aF0.24429999999999999
aF0.23222999999999999
aF0.42614999999999997
asS'multi'
p21
(lp22
F0.18409
aF0.074660000000000004
aF0.64183000000000001
aF0.43828
aF0.64478999999999997
aF0.4511
aF0.74395999999999995
aF0.28649999999999998
aF0.20552000000000001
aF0.48858000000000001
aF0.60375000000000001
aF0.41448000000000002
aF0.28290999999999999
aF0.77020999999999995
aF0.40664
aF0.59992999999999996
aF0.61863999999999997
aF0.20577999999999999
aF0.57501000000000002
aF0.79298000000000002
aF0.52268999999999999
aF0.73116000000000003
aF0.57899
aF0.44829000000000002
aF0.72413000000000005
aF0.40192
aF0.32868999999999998
aF0.73177999999999999
aF0.49397999999999997
aF0.59955999999999998
aF0.82647999999999999
aF0.83260000000000001
aF0.40733999999999998
aF0.53337999999999997
aF0.70494999999999997
aF0.40192
aF0.81669999999999998
aF0.46504000000000001
aF0.19302
aF0.63368000000000002
aF0.32524999999999998
aF0.15934999999999999
aF0.49193999999999999
aF0.076670000000000002
aF0.15629999999999999
aF0.21808
aF0.74772000000000005
aF0.73307
aF0.038120000000000001
aF0.45522000000000001
aF0.11675000000000001
aF0.054039999999999998
aF0.48141
aF0.42086000000000001
aF0.78408999999999995
aF0.43814999999999998
aF0.042999999999999997
aF0.45289000000000001
aF0.13317000000000001
aF0.20932000000000001
aF0.20899000000000001
aF0.30409999999999998
aF0.61682999999999999
aF0.47420000000000001
aF0.60175000000000001
aF0.62977000000000005
aF0.34825
aF0.84928000000000003
aF0.51570000000000005
aF0.59262000000000004
aF0.41898999999999997
aF0.46939999999999998
aF0.51773999999999998
aF0.36946000000000001
aF0.048779999999999997
aF0.51805999999999996
aF0.59289999999999998
aF0.39938000000000001
aF0.42065999999999998
aF0.62487999999999999
aF0.71375999999999995
aF0.19302
aF0.61150000000000004
aF0.54578000000000004
aF0.15189
aF0.47205999999999998
aF0.64651000000000003
aF0.44891999999999999
aF0.065310000000000007
aF0.39706999999999998
aF0.079600000000000004
aF0.46193000000000001
aF0.36581000000000002
aF0.12361999999999999
aF0.0092599999999999991
aF0.099879999999999997
aF0.25035000000000002
aF0.098049999999999998
aF0.039289999999999999
aF0.098080000000000001
aF0.20805000000000001
aF0.29411999999999999
aF0.29110000000000003
aF0.14171
aF0.055759999999999997
aF0.069180000000000005
aF0.27500999999999998
aF0.19203000000000001
aF0.14835000000000001
aF0.020320000000000001
asS'no'
p23
(lp24
F0.69044000000000005
aF0.78996999999999995
aF0.72977000000000003
aF0.52947
aF0.74106000000000005
aF0.49413000000000001
aF0.67430999999999996
aF0.64839999999999998
aF0.64712000000000003
aF0.70670999999999995
aF0.77227000000000001
aF0.76078999999999997
aF0.78693000000000002
aF0.60409000000000002
aF0.57411999999999996
aF0.78019000000000005
aF0.63827999999999996
aF0.78747
aF0.59924999999999995
aF0.67874999999999996
aF0.67269999999999996
aF0.65278999999999998
aF0.67515999999999998
aF0.79637000000000002
aF0.79559000000000002
asS'tt'
p25
(lp26
F0.87387000000000004
aF0.78522999999999998
aF0.75592000000000004
aF0.78276999999999997
aF0.76858000000000004
aF0.39824999999999999
aF0.32905000000000001
aF0.34678999999999999
aF0.66581999999999997
aF0.45994000000000002
aF0.84077000000000002
aF0.31663999999999998
aF0.77751000000000003
aF0.85165999999999997
aF0.42485000000000001
aF0.93310999999999999
aF0.90688000000000002
aF0.90263000000000004
aF0.87295999999999996
aF0.57696999999999998
aF0.85313000000000005
aF0.84277000000000002
aF0.69569999999999999
aF0.79430000000000001
aF0.80162
aF0.30192999999999998
aF0.64770000000000005
aF0.89115999999999995
aF0.4652
aF0.47682999999999998
aF0.61970000000000003
aF0.65076000000000001
aF0.89847999999999995
aF0.88983999999999996
aF0.88941000000000003
aF0.63787000000000005
aF0.56759000000000004
aF0.82143999999999995
aF0.26746999999999999
aF0.79551000000000005
aF0.54810000000000003
aF0.92122000000000004
aF0.66361999999999999
aF0.81574000000000002
aF0.63209000000000004
aF0.87975999999999999
aF0.80074999999999996
aF0.80484
aF0.87970000000000004
aF0.56403000000000003
aF0.52653000000000005
aF0.83157000000000003
aF0.38417000000000001
aF0.70032000000000005
aF0.83972000000000002
aF0.83077999999999996
aF0.33459
aF0.84128000000000003
aF0.93284
aF0.83365999999999996
aF0.90746000000000004
aF0.88963999999999999
aF0.76612999999999998
aF0.38416
aF0.76322000000000001
aF0.85768999999999995
aF0.90808999999999995
aF0.56352999999999998
aF0.79039999999999999
aF0.62414999999999998
aF0.71199000000000001
aF0.84816000000000003
aF0.88890000000000002
aF0.89970000000000006
aF0.78376999999999997
aF0.48393999999999998
aF0.92132999999999998
aF0.81874000000000002
aF0.81957000000000002
as.