(dp0
S'multi3'
p1
(lp2
F0.099150000000000002
aF0.073300000000000004
aF0.26850000000000002
aF0.081430000000000002
asS'multi2'
p3
(lp4
F0.047039999999999998
aF0.56271000000000004
aF0.18013000000000001
aF0.13385
aF0.085470000000000004
aF0.098320000000000005
aF0.58650000000000002
aF0.43081999999999998
aF0.36978
aF0.39628999999999998
aF0.71540999999999999
aF0.078240000000000004
aF0.25209999999999999
aF0.72775000000000001
aF0.16897999999999999
asS'multi5'
p5
(lp6
sS'multi4'
p7
(lp8
F0.076160000000000005
asS'bn'
p9
(lp10
F0.47264
aF0.62568000000000001
aF0.21611
aF0.59457000000000004
aF0.52837999999999996
aF0.38619999999999999
aF0.31952000000000003
aF0.39163999999999999
aF0.59235000000000004
aF0.39576
aF0.45622000000000001
aF0.39248
aF0.57899
aF0.38529999999999998
aF0.12451
aF0.16303000000000001
asS'ap'
p11
(lp12
F0.57126999999999994
aF0.32191999999999998
aF0.28343000000000002
aF0.45889999999999997
aF0.29597000000000001
aF0.12223000000000001
aF0.28475
aF0.32768000000000003
aF0.21290000000000001
aF0.05441
aF0.46533999999999998
aF0.15278
aF0.33062000000000002
aF0.53656000000000004
aF0.45138
aF0.52956000000000003
aF0.52947
aF0.51705000000000001
aF0.83091000000000004
aF0.72911999999999999
aF0.67003000000000001
aF0.45862000000000003
aF0.62936999999999999
aF0.60380999999999996
aF0.81427000000000005
aF0.66425000000000001
aF0.38862000000000002
aF0.80720000000000003
aF0.81072
aF0.501
aF0.50109999999999999
aF0.62982000000000005
aF0.80010000000000003
aF0.85326999999999997
aF0.66700000000000004
aF0.60748999999999997
aF0.72306000000000004
aF0.71833000000000002
aF0.70853999999999995
aF0.33191999999999999
asS'single'
p13
(lp14
F0.47264
aF0.62568000000000001
aF0.21611
aF0.59457000000000004
aF0.52837999999999996
aF0.38619999999999999
aF0.31952000000000003
aF0.39163999999999999
aF0.59235000000000004
aF0.39576
aF0.45622000000000001
aF0.39248
aF0.57899
aF0.38529999999999998
aF0.12451
aF0.16303000000000001
aF0.38662999999999997
aF0.19516
aF0.36791000000000001
aF0.34265000000000001
aF0.63605999999999996
aF0.32868000000000003
aF0.40187
aF0.30503999999999998
aF0.35376000000000002
aF0.33922000000000002
aF0.42981999999999998
aF0.43797000000000003
aF0.46639999999999998
aF0.61578999999999995
aF0.61238999999999999
aF0.47949999999999998
aF0.45934999999999998
aF0.61506000000000005
aF0.44732
aF0.33257999999999999
aF0.41248000000000001
aF0.16389000000000001
aF0.070550000000000002
aF0.11444
aF0.022210000000000001
aF0.57126999999999994
aF0.32191999999999998
aF0.28343000000000002
aF0.45889999999999997
aF0.29597000000000001
aF0.12223000000000001
aF0.28475
aF0.32768000000000003
aF0.21290000000000001
aF0.05441
aF0.46533999999999998
aF0.15278
aF0.33062000000000002
aF0.53656000000000004
aF0.45138
aF0.52956000000000003
aF0.52947
aF0.51705000000000001
aF0.83091000000000004
aF0.72911999999999999
aF0.67003000000000001
aF0.45862000000000003
aF0.62936999999999999
aF0.60380999999999996
aF0.81427000000000005
aF0.66425000000000001
aF0.38862000000000002
aF0.80720000000000003
aF0.81072
aF0.501
aF0.50109999999999999
aF0.62982000000000005
aF0.80010000000000003
aF0.85326999999999997
aF0.66700000000000004
aF0.60748999999999997
aF0.72306000000000004
aF0.71833000000000002
aF0.70853999999999995
aF0.33191999999999999
aF0.45282
aF0.35232999999999998
aF0.84669000000000005
aF0.46683999999999998
aF0.49353000000000002
aF0.82809999999999995
aF0.89749000000000001
aF0.80084999999999995
aF0.93876999999999999
aF0.66178999999999999
aF0.69998000000000005
aF0.46767999999999998
asS'yes'
p15
(lp16
F0.89749000000000001
aF0.80084999999999995
aF0.93876999999999999
aF0.66178999999999999
asS'total'
p17
(lp18
F0.47264
aF0.62568000000000001
aF0.21611
aF0.59457000000000004
aF0.52837999999999996
aF0.38619999999999999
aF0.31952000000000003
aF0.39163999999999999
aF0.59235000000000004
aF0.39576
aF0.45622000000000001
aF0.39248
aF0.57899
aF0.38529999999999998
aF0.12451
aF0.16303000000000001
aF0.38662999999999997
aF0.19516
aF0.36791000000000001
aF0.34265000000000001
aF0.63605999999999996
aF0.32868000000000003
aF0.40187
aF0.30503999999999998
aF0.35376000000000002
aF0.33922000000000002
aF0.42981999999999998
aF0.43797000000000003
aF0.46639999999999998
aF0.61578999999999995
aF0.61238999999999999
aF0.47949999999999998
aF0.45934999999999998
aF0.61506000000000005
aF0.44732
aF0.33257999999999999
aF0.41248000000000001
aF0.16389000000000001
aF0.070550000000000002
aF0.11444
aF0.022210000000000001
aF0.57126999999999994
aF0.32191999999999998
aF0.28343000000000002
aF0.45889999999999997
aF0.29597000000000001
aF0.12223000000000001
aF0.28475
aF0.32768000000000003
aF0.21290000000000001
aF0.05441
aF0.46533999999999998
aF0.15278
aF0.33062000000000002
aF0.53656000000000004
aF0.45138
aF0.52956000000000003
aF0.52947
aF0.51705000000000001
aF0.83091000000000004
aF0.72911999999999999
aF0.67003000000000001
aF0.45862000000000003
aF0.62936999999999999
aF0.60380999999999996
aF0.81427000000000005
aF0.66425000000000001
aF0.38862000000000002
aF0.80720000000000003
aF0.81072
aF0.501
aF0.50109999999999999
aF0.62982000000000005
aF0.80010000000000003
aF0.85326999999999997
aF0.66700000000000004
aF0.60748999999999997
aF0.72306000000000004
aF0.71833000000000002
aF0.70853999999999995
aF0.33191999999999999
aF0.45282
aF0.35232999999999998
aF0.84669000000000005
aF0.46683999999999998
aF0.49353000000000002
aF0.82809999999999995
aF0.89749000000000001
aF0.80084999999999995
aF0.93876999999999999
aF0.66178999999999999
aF0.69998000000000005
aF0.46767999999999998
aF0.047039999999999998
aF0.56271000000000004
aF0.18013000000000001
aF0.13385
aF0.085470000000000004
aF0.098320000000000005
aF0.58650000000000002
aF0.43081999999999998
aF0.36978
aF0.39628999999999998
aF0.71540999999999999
aF0.078240000000000004
aF0.25209999999999999
aF0.72775000000000001
aF0.16897999999999999
aF0.099150000000000002
aF0.073300000000000004
aF0.26850000000000002
aF0.081430000000000002
aF0.076160000000000005
asS'dp'
p19
(lp20
F0.38662999999999997
aF0.19516
aF0.36791000000000001
aF0.34265000000000001
aF0.63605999999999996
aF0.32868000000000003
aF0.40187
aF0.30503999999999998
aF0.35376000000000002
aF0.33922000000000002
aF0.42981999999999998
aF0.43797000000000003
aF0.46639999999999998
aF0.61578999999999995
aF0.61238999999999999
aF0.47949999999999998
aF0.45934999999999998
aF0.61506000000000005
aF0.44732
aF0.33257999999999999
aF0.41248000000000001
aF0.16389000000000001
aF0.070550000000000002
aF0.11444
aF0.022210000000000001
asS'multi'
p21
(lp22
F0.047039999999999998
aF0.56271000000000004
aF0.18013000000000001
aF0.13385
aF0.085470000000000004
aF0.098320000000000005
aF0.58650000000000002
aF0.43081999999999998
aF0.36978
aF0.39628999999999998
aF0.71540999999999999
aF0.078240000000000004
aF0.25209999999999999
aF0.72775000000000001
aF0.16897999999999999
aF0.099150000000000002
aF0.073300000000000004
aF0.26850000000000002
aF0.081430000000000002
aF0.076160000000000005
asS'no'
p23
(lp24
F0.69998000000000005
aF0.46767999999999998
asS'tt'
p25
(lp26
F0.45282
aF0.35232999999999998
aF0.84669000000000005
aF0.46683999999999998
aF0.49353000000000002
aF0.82809999999999995
as.