(dp0
S'multi3'
p1
(dp2
F0.17000000000000001
F0.20000000000000001
sF0.089999999999999997
F0.20000000000000001
sF0.059999999999999998
F0.20000000000000001
sF0.10000000000000001
F0.40000000000000002
ssS'multi2'
p3
(dp4
F0.60999999999999999
F0.050000000000000003
sF0.080000000000000002
F0.050000000000000003
sF0.28999999999999998
F0.050000000000000003
sF0.80000000000000004
F0.050000000000000003
sF0.23999999999999999
F0.10000000000000001
sF0.22
F0.10000000000000001
sF0.29999999999999999
F0.050000000000000003
sF0.35999999999999999
F0.10000000000000001
sF0.70999999999999996
F0.050000000000000003
sF0.68000000000000005
F0.050000000000000003
sF0.31
F0.050000000000000003
sF0.17000000000000001
F0.050000000000000003
sF0.48999999999999999
F0.10000000000000001
sF0.20999999999999999
F0.050000000000000003
sF0.23000000000000001
F0.050000000000000003
sF0.040000000000000001
F0.050000000000000003
ssS'multi'
p5
(dp6
F0.60999999999999999
F0.034482758620689655
sF0.080000000000000002
F0.034482758620689655
sF0.28999999999999998
F0.034482758620689655
sF0.10000000000000001
F0.10344827586206896
sF0.80000000000000004
F0.034482758620689655
sF0.23999999999999999
F0.068965517241379309
sF0.14999999999999999
F0.034482758620689655
sF0.22
F0.068965517241379309
sF0.29999999999999999
F0.034482758620689655
sF0.35999999999999999
F0.068965517241379309
sF0.70999999999999996
F0.034482758620689655
sF0.68000000000000005
F0.034482758620689655
sF0.059999999999999998
F0.068965517241379309
sF0.01
F0.034482758620689655
sF0.089999999999999997
F0.034482758620689655
sF0.31
F0.034482758620689655
sF0.17000000000000001
F0.068965517241379309
sF0.48999999999999999
F0.068965517241379309
sF0.20999999999999999
F0.034482758620689655
sF0.23000000000000001
F0.034482758620689655
sF0.040000000000000001
F0.034482758620689655
ssS'multi5'
p7
(dp8
F0.01
F1.0
ssS'multi4'
p9
(dp10
F0.14999999999999999
F0.33333333333333331
sF0.059999999999999998
F0.33333333333333331
sF0.10000000000000001
F0.33333333333333331
ssS'bn'
p11
(dp12
F0.64000000000000001
F0.083333333333333329
sF0.28999999999999998
F0.083333333333333329
sF0.52000000000000002
F0.083333333333333329
sF0.63
F0.25
sF0.059999999999999998
F0.083333333333333329
sF0.56999999999999995
F0.083333333333333329
sF0.23999999999999999
F0.083333333333333329
sF0.56000000000000005
F0.083333333333333329
sF0.46000000000000002
F0.083333333333333329
sF0.32000000000000001
F0.083333333333333329
ssS'no'
p13
(dp14
F0.71999999999999997
F0.125
sF0.73999999999999999
F0.25
sF0.37
F0.125
sF0.79000000000000004
F0.125
sF0.76000000000000001
F0.125
sF0.72999999999999998
F0.125
sF0.81000000000000005
F0.125
ssS'ap'
p15
(dp16
F0.5
F0.024390243902439025
sF0.63
F0.024390243902439025
sF0.85999999999999999
F0.024390243902439025
sF0.71999999999999997
F0.024390243902439025
sF0.81999999999999995
F0.097560975609756101
sF0.029999999999999999
F0.024390243902439025
sF0.34999999999999998
F0.024390243902439025
sF0.16
F0.024390243902439025
sF0.17000000000000001
F0.024390243902439025
sF0.82999999999999996
F0.024390243902439025
sF0.70999999999999996
F0.024390243902439025
sF0.47999999999999998
F0.024390243902439025
sF0.45000000000000001
F0.024390243902439025
sF0.64000000000000001
F0.024390243902439025
sF0.58999999999999997
F0.024390243902439025
sF0.78000000000000003
F0.024390243902439025
sF0.87
F0.024390243902439025
sF0.35999999999999999
F0.04878048780487805
sF0.33000000000000002
F0.024390243902439025
sF0.29999999999999999
F0.04878048780487805
sF0.84999999999999998
F0.04878048780487805
sF0.57999999999999996
F0.024390243902439025
sF0.48999999999999999
F0.024390243902439025
sF0.67000000000000004
F0.024390243902439025
sF0.60999999999999999
F0.024390243902439025
sF0.55000000000000004
F0.04878048780487805
sF0.40000000000000002
F0.024390243902439025
sF0.73999999999999999
F0.024390243902439025
sF0.39000000000000001
F0.024390243902439025
sF0.68000000000000005
F0.024390243902439025
sF0.31
F0.024390243902439025
sF0.62
F0.04878048780487805
sF0.56000000000000005
F0.024390243902439025
ssS'single'
p17
(dp18
F0.5
F0.0093457943925233638
sF0.37
F0.0093457943925233638
sF0.84999999999999998
F0.028037383177570093
sF0.46999999999999997
F0.018691588785046728
sF0.89000000000000001
F0.028037383177570093
sF0.63
F0.046728971962616821
sF0.85999999999999999
F0.0093457943925233638
sF0.13
F0.0093457943925233638
sF0.71999999999999997
F0.018691588785046728
sF0.56999999999999995
F0.0093457943925233638
sF0.35999999999999999
F0.018691588785046728
sF0.16
F0.0093457943925233638
sF0.23999999999999999
F0.028037383177570093
sF0.72999999999999998
F0.0093457943925233638
sF0.34999999999999998
F0.0093457943925233638
sF0.58999999999999997
F0.0093457943925233638
sF0.78000000000000003
F0.0093457943925233638
sF0.64000000000000001
F0.018691588785046728
sF0.68000000000000005
F0.018691588785046728
sF0.28999999999999998
F0.018691588785046728
sF0.47999999999999998
F0.0093457943925233638
sF0.52000000000000002
F0.0093457943925233638
sF0.67000000000000004
F0.0093457943925233638
sF0.91000000000000003
F0.037383177570093455
sF0.81999999999999995
F0.037383177570093455
sF0.22
F0.0093457943925233638
sF0.059999999999999998
F0.018691588785046728
sF0.45000000000000001
F0.028037383177570093
sF0.56000000000000005
F0.018691588785046728
sF0.81000000000000005
F0.018691588785046728
sF0.20999999999999999
F0.0093457943925233638
sF0.53000000000000003
F0.0093457943925233638
sF0.87
F0.018691588785046728
sF0.57999999999999996
F0.0093457943925233638
sF0.93000000000000005
F0.028037383177570093
sF0.089999999999999997
F0.0093457943925233638
sF0.33000000000000002
F0.028037383177570093
sF0.29999999999999999
F0.028037383177570093
sF0.59999999999999998
F0.0093457943925233638
sF0.029999999999999999
F0.0093457943925233638
sF0.27000000000000002
F0.0093457943925233638
sF0.82999999999999996
F0.0093457943925233638
sF0.48999999999999999
F0.028037383177570093
sF0.92000000000000004
F0.018691588785046728
sF0.40999999999999998
F0.0093457943925233638
sF0.46000000000000002
F0.0093457943925233638
sF0.070000000000000007
F0.018691588785046728
sF0.90000000000000002
F0.0093457943925233638
sF0.60999999999999999
F0.0093457943925233638
sF0.32000000000000001
F0.0093457943925233638
sF0.55000000000000004
F0.018691588785046728
sF0.40000000000000002
F0.018691588785046728
sF0.79000000000000004
F0.0093457943925233638
sF0.65000000000000002
F0.0093457943925233638
sF0.73999999999999999
F0.028037383177570093
sF0.39000000000000001
F0.0093457943925233638
sF0.17000000000000001
F0.018691588785046728
sF0.70999999999999996
F0.0093457943925233638
sF0.31
F0.0093457943925233638
sF0.62
F0.028037383177570093
sF0.76000000000000001
F0.0093457943925233638
sF0.28000000000000003
F0.0093457943925233638
ssS'yes'
p19
(dp20
F0.91000000000000003
F0.25
sF0.93000000000000005
F0.25
sF0.90000000000000002
F0.083333333333333329
sF0.87
F0.083333333333333329
sF0.81000000000000005
F0.083333333333333329
sF0.92000000000000004
F0.16666666666666666
sF0.89000000000000001
F0.083333333333333329
ssS'total'
p21
(dp22
F0.5
F0.0073529411764705881
sF0.37
F0.0073529411764705881
sF0.84999999999999998
F0.022058823529411766
sF0.46999999999999997
F0.014705882352941176
sF0.10000000000000001
F0.022058823529411766
sF0.89000000000000001
F0.022058823529411766
sF0.63
F0.036764705882352942
sF0.85999999999999999
F0.0073529411764705881
sF0.13
F0.0073529411764705881
sF0.71999999999999997
F0.014705882352941176
sF0.56999999999999995
F0.0073529411764705881
sF0.35999999999999999
F0.029411764705882353
sF0.16
F0.0073529411764705881
sF0.23999999999999999
F0.036764705882352942
sF0.72999999999999998
F0.0073529411764705881
sF0.34999999999999998
F0.0073529411764705881
sF0.58999999999999997
F0.0073529411764705881
sF0.78000000000000003
F0.0073529411764705881
sF0.64000000000000001
F0.014705882352941176
sF0.68000000000000005
F0.022058823529411766
sF0.28999999999999998
F0.022058823529411766
sF0.47999999999999998
F0.0073529411764705881
sF0.52000000000000002
F0.0073529411764705881
sF0.67000000000000004
F0.0073529411764705881
sF0.91000000000000003
F0.029411764705882353
sF0.81999999999999995
F0.029411764705882353
sF0.22
F0.022058823529411766
sF0.059999999999999998
F0.029411764705882353
sF0.01
F0.0073529411764705881
sF0.45000000000000001
F0.022058823529411766
sF0.56000000000000005
F0.014705882352941176
sF0.81000000000000005
F0.014705882352941176
sF0.20999999999999999
F0.014705882352941176
sF0.14999999999999999
F0.0073529411764705881
sF0.53000000000000003
F0.0073529411764705881
sF0.87
F0.014705882352941176
sF0.57999999999999996
F0.0073529411764705881
sF0.93000000000000005
F0.022058823529411766
sF0.089999999999999997
F0.014705882352941176
sF0.33000000000000002
F0.022058823529411766
sF0.29999999999999999
F0.029411764705882353
sF0.59999999999999998
F0.0073529411764705881
sF0.80000000000000004
F0.0073529411764705881
sF0.029999999999999999
F0.0073529411764705881
sF0.27000000000000002
F0.0073529411764705881
sF0.040000000000000001
F0.0073529411764705881
sF0.82999999999999996
F0.0073529411764705881
sF0.23000000000000001
F0.0073529411764705881
sF0.48999999999999999
F0.036764705882352942
sF0.92000000000000004
F0.014705882352941176
sF0.40999999999999998
F0.0073529411764705881
sF0.46000000000000002
F0.0073529411764705881
sF0.070000000000000007
F0.014705882352941176
sF0.90000000000000002
F0.0073529411764705881
sF0.60999999999999999
F0.014705882352941176
sF0.32000000000000001
F0.0073529411764705881
sF0.55000000000000004
F0.014705882352941176
sF0.40000000000000002
F0.014705882352941176
sF0.79000000000000004
F0.0073529411764705881
sF0.65000000000000002
F0.0073529411764705881
sF0.73999999999999999
F0.022058823529411766
sF0.39000000000000001
F0.0073529411764705881
sF0.17000000000000001
F0.029411764705882353
sF0.70999999999999996
F0.014705882352941176
sF0.31
F0.014705882352941176
sF0.62
F0.022058823529411766
sF0.76000000000000001
F0.0073529411764705881
sF0.28000000000000003
F0.0073529411764705881
sF0.080000000000000002
F0.0073529411764705881
ssS'tt'
p23
(dp24
F0.46999999999999997
F0.090909090909090912
sF0.33000000000000002
F0.090909090909090912
sF0.13
F0.090909090909090912
sF0.91000000000000003
F0.090909090909090912
sF0.84999999999999998
F0.090909090909090912
sF0.68000000000000005
F0.090909090909090912
sF0.65000000000000002
F0.090909090909090912
sF0.48999999999999999
F0.18181818181818182
sF0.89000000000000001
F0.18181818181818182
ssS'dp'
p25
(dp26
F0.089999999999999997
F0.043478260869565216
sF0.28999999999999998
F0.043478260869565216
sF0.070000000000000007
F0.086956521739130432
sF0.40000000000000002
F0.043478260869565216
sF0.33000000000000002
F0.043478260869565216
sF0.59999999999999998
F0.043478260869565216
sF0.63
F0.043478260869565216
sF0.29999999999999999
F0.043478260869565216
sF0.46999999999999997
F0.043478260869565216
sF0.23999999999999999
F0.086956521739130432
sF0.53000000000000003
F0.043478260869565216
sF0.17000000000000001
F0.043478260869565216
sF0.27000000000000002
F0.043478260869565216
sF0.45000000000000001
F0.086956521739130432
sF0.059999999999999998
F0.043478260869565216
sF0.20999999999999999
F0.043478260869565216
sF0.28000000000000003
F0.043478260869565216
sF0.40999999999999998
F0.043478260869565216
sF0.22
F0.043478260869565216
sF0.62
F0.043478260869565216
ss.