(dp0
S'multi3'
p1
(dp2
F0.35999999999999999
F0.10000000000000001
sF0.10000000000000001
F0.10000000000000001
sF0.17999999999999999
F0.10000000000000001
sF0.059999999999999998
F0.10000000000000001
sF0.089999999999999997
F0.10000000000000001
sF0.070000000000000007
F0.40000000000000002
sF0.32000000000000001
F0.10000000000000001
ssS'multi2'
p3
(dp4
F0.0
F0.027777777777777776
sF0.46999999999999997
F0.027777777777777776
sF0.22
F0.027777777777777776
sF0.56999999999999995
F0.055555555555555552
sF0.38
F0.055555555555555552
sF0.47999999999999998
F0.027777777777777776
sF0.34999999999999998
F0.055555555555555552
sF0.41999999999999998
F0.083333333333333329
sF0.02
F0.027777777777777776
sF0.17000000000000001
F0.027777777777777776
sF0.57999999999999996
F0.027777777777777776
sF0.13
F0.055555555555555552
sF0.33000000000000002
F0.027777777777777776
sF0.059999999999999998
F0.027777777777777776
sF0.65000000000000002
F0.027777777777777776
sF0.040000000000000001
F0.027777777777777776
sF0.20999999999999999
F0.027777777777777776
sF0.53000000000000003
F0.027777777777777776
sF0.089999999999999997
F0.027777777777777776
sF0.66000000000000003
F0.027777777777777776
sF0.40000000000000002
F0.027777777777777776
sF0.27000000000000002
F0.027777777777777776
sF0.67000000000000004
F0.027777777777777776
sF0.20000000000000001
F0.027777777777777776
sF0.050000000000000003
F0.055555555555555552
sF0.55000000000000004
F0.027777777777777776
sF0.34000000000000002
F0.083333333333333329
ssS'multi'
p5
(dp6
F0.0
F0.021276595744680851
sF0.46999999999999997
F0.021276595744680851
sF0.10000000000000001
F0.021276595744680851
sF0.22
F0.021276595744680851
sF0.17999999999999999
F0.021276595744680851
sF0.56999999999999995
F0.042553191489361701
sF0.35999999999999999
F0.021276595744680851
sF0.38
F0.042553191489361701
sF0.47999999999999998
F0.021276595744680851
sF0.34999999999999998
F0.042553191489361701
sF0.41999999999999998
F0.063829787234042548
sF0.02
F0.021276595744680851
sF0.17000000000000001
F0.021276595744680851
sF0.57999999999999996
F0.021276595744680851
sF0.13
F0.042553191489361701
sF0.33000000000000002
F0.021276595744680851
sF0.059999999999999998
F0.042553191489361701
sF0.65000000000000002
F0.021276595744680851
sF0.040000000000000001
F0.021276595744680851
sF0.20999999999999999
F0.021276595744680851
sF0.53000000000000003
F0.021276595744680851
sF0.089999999999999997
F0.042553191489361701
sF0.66000000000000003
F0.021276595744680851
sF0.40000000000000002
F0.021276595744680851
sF0.27000000000000002
F0.021276595744680851
sF0.67000000000000004
F0.021276595744680851
sF0.32000000000000001
F0.021276595744680851
sF0.20000000000000001
F0.021276595744680851
sF0.050000000000000003
F0.063829787234042548
sF0.55000000000000004
F0.021276595744680851
sF0.34000000000000002
F0.063829787234042548
sF0.070000000000000007
F0.085106382978723402
ssS'multi5'
p7
(dp8
sS'multi4'
p9
(dp10
F0.050000000000000003
F1.0
ssS'bn'
p11
(dp12
F0.5
F0.030303030303030304
sF1.0
F0.090909090909090912
sF0.46999999999999997
F0.060606060606060608
sF0.22
F0.030303030303030304
sF0.40999999999999998
F0.030303030303030304
sF0.38
F0.030303030303030304
sF0.34999999999999998
F0.030303030303030304
sF0.20999999999999999
F0.030303030303030304
sF0.64000000000000001
F0.030303030303030304
sF0.26000000000000001
F0.030303030303030304
sF0.23999999999999999
F0.030303030303030304
sF0.58999999999999997
F0.060606060606060608
sF0.53000000000000003
F0.030303030303030304
sF0.33000000000000002
F0.060606060606060608
sF0.59999999999999998
F0.030303030303030304
sF0.29999999999999999
F0.030303030303030304
sF0.44
F0.030303030303030304
sF0.54000000000000004
F0.060606060606060608
sF0.46000000000000002
F0.090909090909090912
sF0.42999999999999999
F0.030303030303030304
sF0.55000000000000004
F0.030303030303030304
sF0.40000000000000002
F0.030303030303030304
sF0.34000000000000002
F0.030303030303030304
sF0.31
F0.030303030303030304
sF0.56000000000000005
F0.030303030303030304
ssS'no'
p13
(dp14
F0.5
F0.083333333333333329
sF0.75
F0.083333333333333329
sF0.55000000000000004
F0.083333333333333329
sF0.66000000000000003
F0.083333333333333329
sF0.73999999999999999
F0.25
sF0.68000000000000005
F0.083333333333333329
sF0.65000000000000002
F0.083333333333333329
sF0.72999999999999998
F0.083333333333333329
sF0.69999999999999996
F0.083333333333333329
sF0.64000000000000001
F0.083333333333333329
ssS'ap'
p15
(dp16
F0.5
F0.018181818181818181
sF0.75
F0.018181818181818181
sF0.25
F0.036363636363636362
sF0.63
F0.018181818181818181
sF0.089999999999999997
F0.018181818181818181
sF0.81999999999999995
F0.036363636363636362
sF0.76000000000000001
F0.072727272727272724
sF0.69999999999999996
F0.036363636363636362
sF0.41999999999999998
F0.018181818181818181
sF0.32000000000000001
F0.018181818181818181
sF0.57999999999999996
F0.018181818181818181
sF0.77000000000000002
F0.018181818181818181
sF0.46000000000000002
F0.036363636363636362
sF0.70999999999999996
F0.018181818181818181
sF0.45000000000000001
F0.018181818181818181
sF0.58999999999999997
F0.036363636363636362
sF0.22
F0.036363636363636362
sF0.83999999999999997
F0.018181818181818181
sF0.71999999999999997
F0.018181818181818181
sF0.66000000000000003
F0.018181818181818181
sF0.29999999999999999
F0.018181818181818181
sF0.050000000000000003
F0.018181818181818181
sF0.54000000000000004
F0.036363636363636362
sF0.82999999999999996
F0.018181818181818181
sF0.48999999999999999
F0.018181818181818181
sF0.67000000000000004
F0.072727272727272724
sF0.78000000000000003
F0.018181818181818181
sF0.85999999999999999
F0.054545454545454543
sF0.80000000000000004
F0.018181818181818181
sF0.40000000000000002
F0.018181818181818181
sF0.27000000000000002
F0.018181818181818181
sF0.65000000000000002
F0.036363636363636362
sF0.37
F0.018181818181818181
sF0.38
F0.018181818181818181
sF0.53000000000000003
F0.018181818181818181
sF0.68000000000000005
F0.036363636363636362
sF0.51000000000000001
F0.018181818181818181
sF0.44
F0.018181818181818181
ssS'single'
p17
(dp18
F0.5
F0.019704433497536946
sF1.0
F0.014778325123152709
sF0.73999999999999999
F0.014778325123152709
sF0.14999999999999999
F0.0049261083743842365
sF0.46999999999999997
F0.019704433497536946
sF0.25
F0.014778325123152709
sF0.10000000000000001
F0.019704433497536946
sF0.89000000000000001
F0.009852216748768473
sF0.22
F0.014778325123152709
sF0.48999999999999999
F0.0049261083743842365
sF0.11
F0.019704433497536946
sF0.40999999999999998
F0.009852216748768473
sF0.089999999999999997
F0.009852216748768473
sF0.71999999999999997
F0.0049261083743842365
sF0.38
F0.024630541871921183
sF0.70999999999999996
F0.009852216748768473
sF0.72999999999999998
F0.009852216748768473
sF0.69999999999999996
F0.014778325123152709
sF0.34999999999999998
F0.019704433497536946
sF0.20999999999999999
F0.0049261083743842365
sF0.28000000000000003
F0.0049261083743842365
sF0.78000000000000003
F0.0049261083743842365
sF0.64000000000000001
F0.024630541871921183
sF0.75
F0.009852216748768473
sF0.41999999999999998
F0.019704433497536946
sF0.68000000000000005
F0.014778325123152709
sF0.28999999999999998
F0.0049261083743842365
sF0.47999999999999998
F0.014778325123152709
sF0.26000000000000001
F0.0049261083743842365
sF0.23000000000000001
F0.009852216748768473
sF0.66000000000000003
F0.019704433497536946
sF0.23999999999999999
F0.0049261083743842365
sF0.84999999999999998
F0.0049261083743842365
sF0.79000000000000004
F0.0049261083743842365
sF0.050000000000000003
F0.024630541871921183
sF0.45000000000000001
F0.009852216748768473
sF0.070000000000000007
F0.009852216748768473
sF0.83999999999999997
F0.0049261083743842365
sF0.81000000000000005
F0.0049261083743842365
sF0.58999999999999997
F0.019704433497536946
sF0.53000000000000003
F0.009852216748768473
sF0.62
F0.009852216748768473
sF0.57999999999999996
F0.0049261083743842365
sF0.93000000000000005
F0.0049261083743842365
sF0.17999999999999999
F0.0049261083743842365
sF0.27000000000000002
F0.0049261083743842365
sF0.33000000000000002
F0.024630541871921183
sF0.59999999999999998
F0.0049261083743842365
sF0.29999999999999999
F0.029556650246305417
sF0.44
F0.019704433497536946
sF0.029999999999999999
F0.0049261083743842365
sF0.54000000000000004
F0.024630541871921183
sF0.91000000000000003
F0.009852216748768473
sF0.82999999999999996
F0.014778325123152709
sF0.85999999999999999
F0.019704433497536946
sF0.77000000000000002
F0.0049261083743842365
sF0.67000000000000004
F0.019704433497536946
sF0.88
F0.014778325123152709
sF0.81999999999999995
F0.009852216748768473
sF0.46000000000000002
F0.034482758620689655
sF0.14000000000000001
F0.0049261083743842365
sF0.90000000000000002
F0.0049261083743842365
sF0.42999999999999999
F0.014778325123152709
sF0.01
F0.0049261083743842365
sF0.92000000000000004
F0.014778325123152709
sF0.55000000000000004
F0.029556650246305417
sF0.40000000000000002
F0.009852216748768473
sF0.32000000000000001
F0.0049261083743842365
sF0.80000000000000004
F0.014778325123152709
sF0.65000000000000002
F0.024630541871921183
sF0.37
F0.009852216748768473
sF0.63
F0.0049261083743842365
sF0.51000000000000001
F0.009852216748768473
sF0.39000000000000001
F0.0049261083743842365
sF0.34000000000000002
F0.009852216748768473
sF0.52000000000000002
F0.009852216748768473
sF0.31
F0.014778325123152709
sF0.76000000000000001
F0.024630541871921183
sF0.56000000000000005
F0.0049261083743842365
sF0.20000000000000001
F0.0049261083743842365
sF0.059999999999999998
F0.009852216748768473
ssS'yes'
p19
(dp20
F0.82999999999999996
F0.076923076923076927
sF0.91000000000000003
F0.15384615384615385
sF0.90000000000000002
F0.076923076923076927
sF0.88
F0.15384615384615385
sF0.93000000000000005
F0.076923076923076927
sF0.65000000000000002
F0.076923076923076927
sF0.51000000000000001
F0.076923076923076927
sF0.72999999999999998
F0.076923076923076927
sF0.92000000000000004
F0.23076923076923078
ssS'total'
p21
(dp22
F0.5
F0.016
sF1.0
F0.012
sF0.25
F0.012
sF0.38
F0.028000000000000001
sF0.47999999999999998
F0.016
sF0.75
F0.0080000000000000002
sF0.23999999999999999
F0.0040000000000000001
sF0.13
F0.0080000000000000002
sF0.67000000000000004
F0.02
sF0.11
F0.016
sF0.29999999999999999
F0.024
sF0.40000000000000002
F0.012
sF0.41999999999999998
F0.028000000000000001
sF0.46000000000000002
F0.028000000000000001
sF0.050000000000000003
F0.032000000000000001
sF0.10000000000000001
F0.02
sF0.80000000000000004
F0.012
sF0.90000000000000002
F0.0040000000000000001
sF0.39000000000000001
F0.0040000000000000001
sF0.51000000000000001
F0.0080000000000000002
sF0.28000000000000003
F0.0040000000000000001
sF0.42999999999999999
F0.012
sF0.71999999999999997
F0.0040000000000000001
sF0.40999999999999998
F0.0080000000000000002
sF0.83999999999999997
F0.0040000000000000001
sF0.0
F0.0040000000000000001
sF0.93000000000000005
F0.0040000000000000001
sF0.28999999999999998
F0.0040000000000000001
sF0.81999999999999995
F0.0080000000000000002
sF0.64000000000000001
F0.02
sF0.20999999999999999
F0.0080000000000000002
sF0.14000000000000001
F0.0040000000000000001
sF0.84999999999999998
F0.0040000000000000001
sF0.14999999999999999
F0.0040000000000000001
sF0.55000000000000004
F0.028000000000000001
sF0.070000000000000007
F0.024
sF0.85999999999999999
F0.016
sF0.76000000000000001
F0.02
sF0.26000000000000001
F0.0040000000000000001
sF0.35999999999999999
F0.0040000000000000001
sF0.62
F0.0080000000000000002
sF0.56000000000000005
F0.0040000000000000001
sF0.22
F0.016
sF0.72999999999999998
F0.0080000000000000002
sF0.17999999999999999
F0.0080000000000000002
sF0.92000000000000004
F0.012
sF0.53000000000000003
F0.012
sF0.89000000000000001
F0.0080000000000000002
sF0.54000000000000004
F0.02
sF0.45000000000000001
F0.0080000000000000002
sF0.65000000000000002
F0.024
sF0.66000000000000003
F0.02
sF0.01
F0.0040000000000000001
sF0.44
F0.016
sF0.91000000000000003
F0.0080000000000000002
sF0.56999999999999995
F0.0080000000000000002
sF0.23000000000000001
F0.0080000000000000002
sF0.77000000000000002
F0.0040000000000000001
sF0.02
F0.0040000000000000001
sF0.88
F0.012
sF0.78000000000000003
F0.0040000000000000001
sF0.68000000000000005
F0.012
sF0.17000000000000001
F0.0040000000000000001
sF0.37
F0.0080000000000000002
sF0.59999999999999998
F0.0040000000000000001
sF0.46999999999999997
F0.02
sF0.040000000000000001
F0.0040000000000000001
sF0.82999999999999996
F0.012
sF0.34000000000000002
F0.02
sF0.34999999999999998
F0.024
sF0.69999999999999996
F0.012
sF0.33000000000000002
F0.024
sF0.70999999999999996
F0.0080000000000000002
sF0.52000000000000002
F0.0080000000000000002
sF0.81000000000000005
F0.0040000000000000001
sF0.31
F0.012
sF0.58999999999999997
F0.016
sF0.089999999999999997
F0.016
sF0.27000000000000002
F0.0080000000000000002
sF0.029999999999999999
F0.0040000000000000001
sF0.57999999999999996
F0.0080000000000000002
sF0.48999999999999999
F0.0040000000000000001
sF0.63
F0.0040000000000000001
sF0.79000000000000004
F0.0040000000000000001
sF0.32000000000000001
F0.0080000000000000002
sF0.73999999999999999
F0.012
sF0.059999999999999998
F0.016
sF0.20000000000000001
F0.0080000000000000002
ssS'tt'
p23
(dp24
F0.5
F0.055555555555555552
sF0.85999999999999999
F0.055555555555555552
sF0.46999999999999997
F0.055555555555555552
sF0.80000000000000004
F0.055555555555555552
sF0.66000000000000003
F0.055555555555555552
sF0.10000000000000001
F0.055555555555555552
sF0.11
F0.055555555555555552
sF0.84999999999999998
F0.055555555555555552
sF0.55000000000000004
F0.1111111111111111
sF0.059999999999999998
F0.055555555555555552
sF0.79000000000000004
F0.055555555555555552
sF0.88
F0.055555555555555552
sF0.81000000000000005
F0.055555555555555552
sF0.41999999999999998
F0.055555555555555552
sF0.44
F0.055555555555555552
sF0.89000000000000001
F0.1111111111111111
ssS'dp'
p25
(dp26
F0.25
F0.013888888888888888
sF0.46999999999999997
F0.013888888888888888
sF0.10000000000000001
F0.041666666666666664
sF0.11
F0.041666666666666664
sF0.089999999999999997
F0.013888888888888888
sF0.40999999999999998
F0.013888888888888888
sF0.38
F0.041666666666666664
sF0.47999999999999998
F0.041666666666666664
sF0.34999999999999998
F0.041666666666666664
sF0.28000000000000003
F0.013888888888888888
sF0.64000000000000001
F0.041666666666666664
sF0.28999999999999998
F0.013888888888888888
sF0.059999999999999998
F0.013888888888888888
sF0.52000000000000002
F0.027777777777777776
sF0.46000000000000002
F0.027777777777777776
sF0.66000000000000003
F0.013888888888888888
sF0.70999999999999996
F0.013888888888888888
sF0.45000000000000001
F0.013888888888888888
sF0.01
F0.013888888888888888
sF0.41999999999999998
F0.027777777777777776
sF0.44
F0.013888888888888888
sF0.39000000000000001
F0.013888888888888888
sF0.31
F0.027777777777777776
sF0.17999999999999999
F0.013888888888888888
sF0.33000000000000002
F0.041666666666666664
sF0.14999999999999999
F0.013888888888888888
sF0.29999999999999999
F0.055555555555555552
sF0.20000000000000001
F0.013888888888888888
sF0.029999999999999999
F0.013888888888888888
sF0.54000000000000004
F0.013888888888888888
sF0.82999999999999996
F0.013888888888888888
sF0.23000000000000001
F0.027777777777777776
sF0.070000000000000007
F0.027777777777777776
sF0.42999999999999999
F0.027777777777777776
sF0.80000000000000004
F0.013888888888888888
sF0.55000000000000004
F0.027777777777777776
sF0.050000000000000003
F0.055555555555555552
sF0.65000000000000002
F0.013888888888888888
sF0.37
F0.013888888888888888
sF0.34000000000000002
F0.013888888888888888
sF0.62
F0.027777777777777776
sF0.76000000000000001
F0.013888888888888888
sF0.14000000000000001
F0.013888888888888888
ss.