(dp0
S'multi3'
p1
(lp2
F0.17607999999999999
aF0.10059
aF0.064420000000000005
aF0.1028
aF0.094119999999999995
asS'multi2'
p3
(lp4
F0.31374000000000002
aF0.71555000000000002
aF0.046100000000000002
aF0.49741999999999997
aF0.49735000000000001
aF0.21854999999999999
aF0.29404999999999998
aF0.68516999999999995
aF0.61634999999999995
aF0.23505000000000001
aF0.22166
aF0.080689999999999998
aF0.80967
aF0.30065999999999998
aF0.22844999999999999
aF0.36176000000000003
aF0.36892000000000003
aF0.17715
aF0.24987999999999999
aF0.24421000000000001
asS'multi5'
p5
(lp6
F0.018089999999999998
asS'multi4'
p7
(lp8
F0.15819
aF0.10796
aF0.068099999999999994
asS'bn'
p9
(lp10
F0.24296000000000001
aF0.46817999999999999
aF0.52334999999999998
aF0.066170000000000007
aF0.63700999999999997
aF0.56798000000000004
aF0.32175999999999999
aF0.29388999999999998
aF0.63700999999999997
aF0.57928000000000002
aF0.64132999999999996
aF0.63744999999999996
asS'ap'
p11
(lp12
F0.56857000000000002
aF0.72311000000000003
aF0.61924000000000001
aF0.68176999999999999
aF0.50429000000000002
aF0.36549999999999999
aF0.48808000000000001
aF0.39640999999999998
aF0.17105000000000001
aF0.033489999999999999
aF0.30375000000000002
aF0.33296999999999999
aF0.83431
aF0.49546000000000001
aF0.85131000000000001
aF0.45323000000000002
aF0.82855000000000001
aF0.35621999999999998
aF0.58701999999999999
aF0.62034
aF0.78037000000000001
aF0.62736999999999998
aF0.63354999999999995
aF0.40137
aF0.87156
aF0.36492999999999998
aF0.85526000000000002
aF0.86009000000000002
aF0.74578999999999995
aF0.82591999999999999
aF0.16177
aF0.71953
aF0.82004999999999995
aF0.55320999999999998
aF0.82659000000000005
aF0.30519000000000002
aF0.64449000000000001
aF0.59889999999999999
aF0.55732000000000004
aF0.67947000000000002
aF0.31670999999999999
asS'single'
p13
(lp14
F0.24296000000000001
aF0.46817999999999999
aF0.52334999999999998
aF0.066170000000000007
aF0.63700999999999997
aF0.56798000000000004
aF0.32175999999999999
aF0.29388999999999998
aF0.63700999999999997
aF0.57928000000000002
aF0.64132999999999996
aF0.63744999999999996
aF0.63729000000000002
aF0.062530000000000002
aF0.29575000000000001
aF0.24367
aF0.27206999999999998
aF0.30059000000000002
aF0.24451999999999999
aF0.60375000000000001
aF0.45385999999999999
aF0.45774999999999999
aF0.22772999999999999
aF0.17510000000000001
aF0.62624000000000002
aF0.33145000000000002
aF0.53324000000000005
aF0.40898000000000001
aF0.28739999999999999
aF0.077700000000000005
aF0.072270000000000001
aF0.097100000000000006
aF0.21453
aF0.41389999999999999
aF0.47637000000000002
aF0.56857000000000002
aF0.72311000000000003
aF0.61924000000000001
aF0.68176999999999999
aF0.50429000000000002
aF0.36549999999999999
aF0.48808000000000001
aF0.39640999999999998
aF0.17105000000000001
aF0.033489999999999999
aF0.30375000000000002
aF0.33296999999999999
aF0.83431
aF0.49546000000000001
aF0.85131000000000001
aF0.45323000000000002
aF0.82855000000000001
aF0.35621999999999998
aF0.58701999999999999
aF0.62034
aF0.78037000000000001
aF0.62736999999999998
aF0.63354999999999995
aF0.40137
aF0.87156
aF0.36492999999999998
aF0.85526000000000002
aF0.86009000000000002
aF0.74578999999999995
aF0.82591999999999999
aF0.16177
aF0.71953
aF0.82004999999999995
aF0.55320999999999998
aF0.82659000000000005
aF0.30519000000000002
aF0.64449000000000001
aF0.59889999999999999
aF0.55732000000000004
aF0.67947000000000002
aF0.31670999999999999
aF0.85951999999999995
aF0.6512
aF0.91127000000000002
aF0.33990999999999999
aF0.49972
aF0.68527000000000005
aF0.89127999999999996
aF0.47384999999999999
aF0.49763000000000002
aF0.89297000000000004
aF0.13136999999999999
aF0.89537999999999995
aF0.92162999999999995
aF0.92222000000000004
aF0.87611000000000006
aF0.93537999999999999
aF0.91486000000000001
aF0.81415999999999999
aF0.93645999999999996
aF0.91761000000000004
aF0.93655999999999995
aF0.90530999999999995
aF0.91761999999999999
aF0.72770000000000001
aF0.79439000000000004
aF0.37222
aF0.73116000000000003
aF0.76573000000000002
aF0.81149000000000004
aF0.74728000000000006
aF0.74765999999999999
asS'yes'
p15
(lp16
F0.89537999999999995
aF0.92162999999999995
aF0.92222000000000004
aF0.87611000000000006
aF0.93537999999999999
aF0.91486000000000001
aF0.81415999999999999
aF0.93645999999999996
aF0.91761000000000004
aF0.93655999999999995
aF0.90530999999999995
aF0.91761999999999999
asS'total'
p17
(lp18
F0.24296000000000001
aF0.46817999999999999
aF0.52334999999999998
aF0.066170000000000007
aF0.63700999999999997
aF0.56798000000000004
aF0.32175999999999999
aF0.29388999999999998
aF0.63700999999999997
aF0.57928000000000002
aF0.64132999999999996
aF0.63744999999999996
aF0.63729000000000002
aF0.062530000000000002
aF0.29575000000000001
aF0.24367
aF0.27206999999999998
aF0.30059000000000002
aF0.24451999999999999
aF0.60375000000000001
aF0.45385999999999999
aF0.45774999999999999
aF0.22772999999999999
aF0.17510000000000001
aF0.62624000000000002
aF0.33145000000000002
aF0.53324000000000005
aF0.40898000000000001
aF0.28739999999999999
aF0.077700000000000005
aF0.072270000000000001
aF0.097100000000000006
aF0.21453
aF0.41389999999999999
aF0.47637000000000002
aF0.56857000000000002
aF0.72311000000000003
aF0.61924000000000001
aF0.68176999999999999
aF0.50429000000000002
aF0.36549999999999999
aF0.48808000000000001
aF0.39640999999999998
aF0.17105000000000001
aF0.033489999999999999
aF0.30375000000000002
aF0.33296999999999999
aF0.83431
aF0.49546000000000001
aF0.85131000000000001
aF0.45323000000000002
aF0.82855000000000001
aF0.35621999999999998
aF0.58701999999999999
aF0.62034
aF0.78037000000000001
aF0.62736999999999998
aF0.63354999999999995
aF0.40137
aF0.87156
aF0.36492999999999998
aF0.85526000000000002
aF0.86009000000000002
aF0.74578999999999995
aF0.82591999999999999
aF0.16177
aF0.71953
aF0.82004999999999995
aF0.55320999999999998
aF0.82659000000000005
aF0.30519000000000002
aF0.64449000000000001
aF0.59889999999999999
aF0.55732000000000004
aF0.67947000000000002
aF0.31670999999999999
aF0.85951999999999995
aF0.6512
aF0.91127000000000002
aF0.33990999999999999
aF0.49972
aF0.68527000000000005
aF0.89127999999999996
aF0.47384999999999999
aF0.49763000000000002
aF0.89297000000000004
aF0.13136999999999999
aF0.89537999999999995
aF0.92162999999999995
aF0.92222000000000004
aF0.87611000000000006
aF0.93537999999999999
aF0.91486000000000001
aF0.81415999999999999
aF0.93645999999999996
aF0.91761000000000004
aF0.93655999999999995
aF0.90530999999999995
aF0.91761999999999999
aF0.72770000000000001
aF0.79439000000000004
aF0.37222
aF0.73116000000000003
aF0.76573000000000002
aF0.81149000000000004
aF0.74728000000000006
aF0.74765999999999999
aF0.31374000000000002
aF0.71555000000000002
aF0.046100000000000002
aF0.49741999999999997
aF0.49735000000000001
aF0.21854999999999999
aF0.29404999999999998
aF0.68516999999999995
aF0.61634999999999995
aF0.23505000000000001
aF0.22166
aF0.080689999999999998
aF0.80967
aF0.30065999999999998
aF0.22844999999999999
aF0.36176000000000003
aF0.36892000000000003
aF0.17715
aF0.24987999999999999
aF0.24421000000000001
aF0.17607999999999999
aF0.10059
aF0.064420000000000005
aF0.1028
aF0.094119999999999995
aF0.15819
aF0.10796
aF0.068099999999999994
aF0.018089999999999998
asS'dp'
p19
(lp20
F0.63729000000000002
aF0.062530000000000002
aF0.29575000000000001
aF0.24367
aF0.27206999999999998
aF0.30059000000000002
aF0.24451999999999999
aF0.60375000000000001
aF0.45385999999999999
aF0.45774999999999999
aF0.22772999999999999
aF0.17510000000000001
aF0.62624000000000002
aF0.33145000000000002
aF0.53324000000000005
aF0.40898000000000001
aF0.28739999999999999
aF0.077700000000000005
aF0.072270000000000001
aF0.097100000000000006
aF0.21453
aF0.41389999999999999
aF0.47637000000000002
asS'multi'
p21
(lp22
F0.31374000000000002
aF0.71555000000000002
aF0.046100000000000002
aF0.49741999999999997
aF0.49735000000000001
aF0.21854999999999999
aF0.29404999999999998
aF0.68516999999999995
aF0.61634999999999995
aF0.23505000000000001
aF0.22166
aF0.080689999999999998
aF0.80967
aF0.30065999999999998
aF0.22844999999999999
aF0.36176000000000003
aF0.36892000000000003
aF0.17715
aF0.24987999999999999
aF0.24421000000000001
aF0.17607999999999999
aF0.10059
aF0.064420000000000005
aF0.1028
aF0.094119999999999995
aF0.15819
aF0.10796
aF0.068099999999999994
aF0.018089999999999998
asS'no'
p23
(lp24
F0.72770000000000001
aF0.79439000000000004
aF0.37222
aF0.73116000000000003
aF0.76573000000000002
aF0.81149000000000004
aF0.74728000000000006
aF0.74765999999999999
asS'tt'
p25
(lp26
F0.85951999999999995
aF0.6512
aF0.91127000000000002
aF0.33990999999999999
aF0.49972
aF0.68527000000000005
aF0.89127999999999996
aF0.47384999999999999
aF0.49763000000000002
aF0.89297000000000004
aF0.13136999999999999
as.