(dp0
S'multi3'
p1
(dp2
F0.089999999999999997
F0.10526315789473684
sF0.10000000000000001
F0.10526315789473684
sF0.20000000000000001
F0.052631578947368418
sF0.26000000000000001
F0.052631578947368418
sF0.22
F0.052631578947368418
sF0.14999999999999999
F0.052631578947368418
sF0.35999999999999999
F0.052631578947368418
sF0.059999999999999998
F0.052631578947368418
sF0.17000000000000001
F0.052631578947368418
sF0.45000000000000001
F0.052631578947368418
sF0.32000000000000001
F0.052631578947368418
sF0.34999999999999998
F0.052631578947368418
sF0.070000000000000007
F0.052631578947368418
sF0.23000000000000001
F0.052631578947368418
sF0.040000000000000001
F0.10526315789473684
sF0.31
F0.052631578947368418
ssS'multi2'
p3
(dp4
F0.25
F0.01282051282051282
sF0.75
F0.01282051282051282
sF0.68999999999999995
F0.038461538461538464
sF0.040000000000000001
F0.01282051282051282
sF0.44
F0.02564102564102564
sF0.35999999999999999
F0.038461538461538464
sF0.56999999999999995
F0.02564102564102564
sF0.089999999999999997
F0.01282051282051282
sF0.19
F0.01282051282051282
sF0.029999999999999999
F0.01282051282051282
sF0.69999999999999996
F0.01282051282051282
sF0.34999999999999998
F0.02564102564102564
sF0.01
F0.01282051282051282
sF0.17000000000000001
F0.01282051282051282
sF0.28999999999999998
F0.038461538461538464
sF0.070000000000000007
F0.02564102564102564
sF0.70999999999999996
F0.02564102564102564
sF0.26000000000000001
F0.01282051282051282
sF0.46000000000000002
F0.01282051282051282
sF0.22
F0.02564102564102564
sF0.059999999999999998
F0.01282051282051282
sF0.23999999999999999
F0.02564102564102564
sF0.45000000000000001
F0.01282051282051282
sF0.32000000000000001
F0.038461538461538464
sF0.41999999999999998
F0.02564102564102564
sF0.39000000000000001
F0.02564102564102564
sF0.17999999999999999
F0.01282051282051282
sF0.60999999999999999
F0.038461538461538464
sF0.29999999999999999
F0.02564102564102564
sF0.14999999999999999
F0.01282051282051282
sF0.80000000000000004
F0.01282051282051282
sF0.20999999999999999
F0.02564102564102564
sF0.47999999999999998
F0.01282051282051282
sF0.48999999999999999
F0.02564102564102564
sF0.23000000000000001
F0.02564102564102564
sF0.56000000000000005
F0.02564102564102564
sF0.42999999999999999
F0.02564102564102564
sF0.16
F0.02564102564102564
sF0.20000000000000001
F0.01282051282051282
sF0.10000000000000001
F0.02564102564102564
sF0.68000000000000005
F0.01282051282051282
sF0.080000000000000002
F0.01282051282051282
sF0.31
F0.01282051282051282
sF0.11
F0.05128205128205128
sF0.38
F0.01282051282051282
sF0.28000000000000003
F0.038461538461538464
ssS'multi'
p5
(dp6
F0.25
F0.0099009900990099011
sF0.75
F0.0099009900990099011
sF0.68999999999999995
F0.029702970297029702
sF0.040000000000000001
F0.029702970297029702
sF0.44
F0.019801980198019802
sF0.35999999999999999
F0.039603960396039604
sF0.56999999999999995
F0.019801980198019802
sF0.089999999999999997
F0.029702970297029702
sF0.19
F0.0099009900990099011
sF0.029999999999999999
F0.0099009900990099011
sF0.69999999999999996
F0.0099009900990099011
sF0.34999999999999998
F0.029702970297029702
sF0.01
F0.019801980198019802
sF0.17000000000000001
F0.019801980198019802
sF0.28999999999999998
F0.029702970297029702
sF0.070000000000000007
F0.029702970297029702
sF0.70999999999999996
F0.019801980198019802
sF0.26000000000000001
F0.019801980198019802
sF0.46000000000000002
F0.0099009900990099011
sF0.22
F0.029702970297029702
sF0.059999999999999998
F0.029702970297029702
sF0.23999999999999999
F0.019801980198019802
sF0.45000000000000001
F0.019801980198019802
sF0.32000000000000001
F0.039603960396039604
sF0.41999999999999998
F0.019801980198019802
sF0.39000000000000001
F0.019801980198019802
sF0.17999999999999999
F0.0099009900990099011
sF0.60999999999999999
F0.029702970297029702
sF0.29999999999999999
F0.019801980198019802
sF0.14999999999999999
F0.029702970297029702
sF0.80000000000000004
F0.0099009900990099011
sF0.20999999999999999
F0.019801980198019802
sF0.47999999999999998
F0.0099009900990099011
sF0.48999999999999999
F0.019801980198019802
sF0.23000000000000001
F0.029702970297029702
sF0.56000000000000005
F0.019801980198019802
sF0.42999999999999999
F0.019801980198019802
sF0.16
F0.019801980198019802
sF0.20000000000000001
F0.019801980198019802
sF0.10000000000000001
F0.049504950495049507
sF0.68000000000000005
F0.0099009900990099011
sF0.080000000000000002
F0.0099009900990099011
sF0.31
F0.019801980198019802
sF0.11
F0.039603960396039604
sF0.38
F0.0099009900990099011
sF0.28000000000000003
F0.029702970297029702
ssS'multi5'
p7
(dp8
F0.01
F1.0
ssS'multi4'
p9
(dp10
F0.14999999999999999
F0.33333333333333331
sF0.059999999999999998
F0.33333333333333331
sF0.10000000000000001
F0.33333333333333331
ssS'bn'
p11
(dp12
F1.0
F0.063829787234042548
sF0.46999999999999997
F0.021276595744680851
sF0.22
F0.021276595744680851
sF0.56999999999999995
F0.063829787234042548
sF0.059999999999999998
F0.021276595744680851
sF0.34999999999999998
F0.042553191489361701
sF0.41999999999999998
F0.021276595744680851
sF0.32000000000000001
F0.042553191489361701
sF0.28999999999999998
F0.021276595744680851
sF0.52000000000000002
F0.042553191489361701
sF0.23999999999999999
F0.021276595744680851
sF0.65000000000000002
F0.021276595744680851
sF0.64000000000000001
F0.021276595744680851
sF0.58999999999999997
F0.021276595744680851
sF0.63
F0.063829787234042548
sF0.089999999999999997
F0.042553191489361701
sF0.59999999999999998
F0.021276595744680851
sF0.40000000000000002
F0.021276595744680851
sF0.54000000000000004
F0.021276595744680851
sF0.48999999999999999
F0.085106382978723402
sF0.46000000000000002
F0.021276595744680851
sF0.60999999999999999
F0.10638297872340426
sF0.55000000000000004
F0.021276595744680851
sF0.20000000000000001
F0.021276595744680851
sF0.27000000000000002
F0.021276595744680851
sF0.45000000000000001
F0.063829787234042548
sF0.34000000000000002
F0.021276595744680851
sF0.56000000000000005
F0.021276595744680851
ssS'no'
p13
(dp14
F0.71999999999999997
F0.14285714285714285
sF0.57999999999999996
F0.071428571428571425
sF0.80000000000000004
F0.071428571428571425
sF0.37
F0.071428571428571425
sF0.56999999999999995
F0.071428571428571425
sF0.79000000000000004
F0.21428571428571427
sF0.76000000000000001
F0.071428571428571425
sF0.72999999999999998
F0.071428571428571425
sF0.81000000000000005
F0.071428571428571425
sF0.73999999999999999
F0.14285714285714285
ssS'ap'
p15
(dp16
F0.5
F0.029126213592233011
sF0.75
F0.0097087378640776691
sF0.37
F0.0097087378640776691
sF0.29999999999999999
F0.029126213592233011
sF0.68999999999999995
F0.0097087378640776691
sF0.10000000000000001
F0.0097087378640776691
sF0.44
F0.019417475728155338
sF0.85999999999999999
F0.029126213592233011
sF0.71999999999999997
F0.0097087378640776691
sF0.56999999999999995
F0.029126213592233011
sF0.19
F0.0097087378640776691
sF0.23999999999999999
F0.019417475728155338
sF0.34999999999999998
F0.0097087378640776691
sF0.69999999999999996
F0.019417475728155338
sF0.41999999999999998
F0.0097087378640776691
sF0.53000000000000003
F0.0097087378640776691
sF0.16
F0.019417475728155338
sF0.46999999999999997
F0.0097087378640776691
sF0.68000000000000005
F0.019417475728155338
sF0.57999999999999996
F0.019417475728155338
sF0.47999999999999998
F0.0097087378640776691
sF0.52000000000000002
F0.0097087378640776691
sF0.33000000000000002
F0.029126213592233011
sF0.12
F0.019417475728155338
sF0.31
F0.0097087378640776691
sF0.45000000000000001
F0.038834951456310676
sF0.28000000000000003
F0.0097087378640776691
sF0.20999999999999999
F0.019417475728155338
sF0.63
F0.019417475728155338
sF0.87
F0.0097087378640776691
sF0.58999999999999997
F0.0097087378640776691
sF0.35999999999999999
F0.038834951456310676
sF0.14000000000000001
F0.0097087378640776691
sF0.66000000000000003
F0.0097087378640776691
sF0.59999999999999998
F0.0097087378640776691
sF0.84999999999999998
F0.038834951456310676
sF0.80000000000000004
F0.0097087378640776691
sF0.029999999999999999
F0.0097087378640776691
sF0.83999999999999997
F0.029126213592233011
sF0.82999999999999996
F0.0097087378640776691
sF0.78000000000000003
F0.0097087378640776691
sF0.60999999999999999
F0.0097087378640776691
sF0.48999999999999999
F0.0097087378640776691
sF0.81999999999999995
F0.048543689320388349
sF0.67000000000000004
F0.019417475728155338
sF0.070000000000000007
F0.0097087378640776691
sF0.42999999999999999
F0.0097087378640776691
sF0.64000000000000001
F0.0097087378640776691
sF0.40000000000000002
F0.029126213592233011
sF0.55000000000000004
F0.029126213592233011
sF0.73999999999999999
F0.019417475728155338
sF0.39000000000000001
F0.019417475728155338
sF0.17000000000000001
F0.019417475728155338
sF0.26000000000000001
F0.019417475728155338
sF0.70999999999999996
F0.0097087378640776691
sF0.62
F0.019417475728155338
sF0.76000000000000001
F0.0097087378640776691
sF0.56000000000000005
F0.019417475728155338
ssS'single'
p17
(dp18
F0.25
F0.0086206896551724137
sF1.0
F0.0086206896551724137
sF0.5
F0.014367816091954023
sF0.64000000000000001
F0.0057471264367816091
sF0.19
F0.0086206896551724137
sF0.059999999999999998
F0.0057471264367816091
sF0.75
F0.0057471264367816091
sF0.12
F0.0086206896551724137
sF0.13
F0.0028735632183908046
sF0.46000000000000002
F0.011494252873563218
sF0.23999999999999999
F0.014367816091954023
sF0.68999999999999995
F0.0057471264367816091
sF0.44
F0.014367816091954023
sF0.58999999999999997
F0.014367816091954023
sF0.92000000000000004
F0.011494252873563218
sF0.59999999999999998
F0.017241379310344827
sF0.40000000000000002
F0.020114942528735632
sF0.10000000000000001
F0.0086206896551724137
sF0.80000000000000004
F0.0086206896551724137
sF0.45000000000000001
F0.037356321839080463
sF0.39000000000000001
F0.0057471264367816091
sF0.76000000000000001
F0.0057471264367816091
sF0.28000000000000003
F0.0057471264367816091
sF0.85999999999999999
F0.014367816091954023
sF0.35999999999999999
F0.025862068965517241
sF0.56999999999999995
F0.020114942528735632
sF0.83999999999999997
F0.017241379310344827
sF0.93000000000000005
F0.025862068965517241
sF0.28999999999999998
F0.011494252873563218
sF0.40999999999999998
F0.011494252873563218
sF0.089999999999999997
F0.0086206896551724137
sF0.32000000000000001
F0.017241379310344827
sF0.41999999999999998
F0.0086206896551724137
sF0.14000000000000001
F0.0086206896551724137
sF0.84999999999999998
F0.020114942528735632
sF0.14999999999999999
F0.0028735632183908046
sF0.55000000000000004
F0.011494252873563218
sF0.070000000000000007
F0.014367816091954023
sF0.42999999999999999
F0.014367816091954023
sF0.38
F0.0057471264367816091
sF0.52000000000000002
F0.0086206896551724137
sF0.62
F0.0086206896551724137
sF0.56000000000000005
F0.017241379310344827
sF0.22
F0.0086206896551724137
sF0.48999999999999999
F0.028735632183908046
sF0.71999999999999997
F0.0086206896551724137
sF0.27000000000000002
F0.0057471264367816091
sF0.53000000000000003
F0.0057471264367816091
sF0.89000000000000001
F0.017241379310344827
sF0.93999999999999995
F0.014367816091954023
sF0.65000000000000002
F0.0086206896551724137
sF0.26000000000000001
F0.011494252873563218
sF0.68000000000000005
F0.011494252873563218
sF0.91000000000000003
F0.017241379310344827
sF0.33000000000000002
F0.022988505747126436
sF0.81999999999999995
F0.014367816091954023
sF0.67000000000000004
F0.011494252873563218
sF0.080000000000000002
F0.0057471264367816091
sF0.02
F0.0028735632183908046
sF0.63
F0.020114942528735632
sF0.78000000000000003
F0.0028735632183908046
sF0.17000000000000001
F0.011494252873563218
sF0.31
F0.0086206896551724137
sF0.20999999999999999
F0.0086206896551724137
sF0.73999999999999999
F0.014367816091954023
sF0.29999999999999999
F0.020114942528735632
sF0.46999999999999997
F0.014367816091954023
sF0.57999999999999996
F0.011494252873563218
sF0.34000000000000002
F0.0057471264367816091
sF0.34999999999999998
F0.0086206896551724137
sF0.69999999999999996
F0.0086206896551724137
sF0.66000000000000003
F0.0028735632183908046
sF0.70999999999999996
F0.0028735632183908046
sF0.81000000000000005
F0.011494252873563218
sF0.87
F0.011494252873563218
sF0.17999999999999999
F0.0086206896551724137
sF0.54000000000000004
F0.0028735632183908046
sF0.16
F0.014367816091954023
sF0.029999999999999999
F0.0028735632183908046
sF0.47999999999999998
F0.0086206896551724137
sF0.82999999999999996
F0.0028735632183908046
sF0.60999999999999999
F0.020114942528735632
sF0.72999999999999998
F0.0057471264367816091
sF0.88
F0.0086206896551724137
sF0.90000000000000002
F0.0086206896551724137
sF0.79000000000000004
F0.014367816091954023
sF0.37
F0.011494252873563218
sF0.20000000000000001
F0.0086206896551724137
ssS'yes'
p19
(dp20
F0.85999999999999999
F0.025000000000000001
sF0.93999999999999995
F0.125
sF0.80000000000000004
F0.025000000000000001
sF0.91000000000000003
F0.125
sF0.88
F0.074999999999999997
sF0.84999999999999998
F0.025000000000000001
sF0.93000000000000005
F0.22500000000000001
sF0.79000000000000004
F0.025000000000000001
sF0.90000000000000002
F0.074999999999999997
sF0.87
F0.050000000000000003
sF0.81000000000000005
F0.074999999999999997
sF0.92000000000000004
F0.10000000000000001
sF0.89000000000000001
F0.050000000000000003
ssS'total'
p21
(dp22
F0.25
F0.0089086859688195987
sF1.0
F0.0066815144766146995
sF0.5
F0.011135857461024499
sF0.64000000000000001
F0.0044543429844097994
sF0.19
F0.0089086859688195987
sF0.059999999999999998
F0.011135857461024499
sF0.75
F0.0066815144766146995
sF0.12
F0.0066815144766146995
sF0.13
F0.0022271714922048997
sF0.46000000000000002
F0.011135857461024499
sF0.23999999999999999
F0.015590200445434299
sF0.68999999999999995
F0.011135857461024499
sF0.44
F0.015590200445434299
sF0.58999999999999997
F0.011135857461024499
sF0.92000000000000004
F0.0089086859688195987
sF0.59999999999999998
F0.013363028953229399
sF0.40000000000000002
F0.015590200445434299
sF0.10000000000000001
F0.017817371937639197
sF0.80000000000000004
F0.0089086859688195987
sF0.45000000000000001
F0.0334075723830735
sF0.39000000000000001
F0.0089086859688195987
sF0.76000000000000001
F0.0044543429844097994
sF0.28000000000000003
F0.011135857461024499
sF0.85999999999999999
F0.011135857461024499
sF0.35999999999999999
F0.028953229398663696
sF0.56999999999999995
F0.020044543429844099
sF0.83999999999999997
F0.013363028953229399
sF0.93000000000000005
F0.020044543429844099
sF0.28999999999999998
F0.015590200445434299
sF0.40999999999999998
F0.0089086859688195987
sF0.089999999999999997
F0.013363028953229399
sF0.32000000000000001
F0.022271714922048998
sF0.41999999999999998
F0.011135857461024499
sF0.14000000000000001
F0.0066815144766146995
sF0.84999999999999998
F0.015590200445434299
sF0.14999999999999999
F0.0089086859688195987
sF0.55000000000000004
F0.0089086859688195987
sF0.23000000000000001
F0.0066815144766146995
sF0.070000000000000007
F0.017817371937639197
sF0.42999999999999999
F0.015590200445434299
sF0.38
F0.0066815144766146995
sF0.52000000000000002
F0.0066815144766146995
sF0.62
F0.0066815144766146995
sF0.56000000000000005
F0.017817371937639197
sF0.22
F0.013363028953229399
sF0.48999999999999999
F0.026726057906458798
sF0.11
F0.0089086859688195987
sF0.71999999999999997
F0.0066815144766146995
sF0.27000000000000002
F0.0044543429844097994
sF0.53000000000000003
F0.0044543429844097994
sF0.89000000000000001
F0.013363028953229399
sF0.93999999999999995
F0.011135857461024499
sF0.65000000000000002
F0.0066815144766146995
sF0.26000000000000001
F0.013363028953229399
sF0.68000000000000005
F0.011135857461024499
sF0.91000000000000003
F0.013363028953229399
sF0.01
F0.0044543429844097994
sF0.33000000000000002
F0.017817371937639197
sF0.81999999999999995
F0.011135857461024499
sF0.67000000000000004
F0.0089086859688195987
sF0.080000000000000002
F0.0066815144766146995
sF0.02
F0.0022271714922048997
sF0.63
F0.015590200445434299
sF0.78000000000000003
F0.0022271714922048997
sF0.17000000000000001
F0.013363028953229399
sF0.31
F0.011135857461024499
sF0.20999999999999999
F0.011135857461024499
sF0.73999999999999999
F0.011135857461024499
sF0.29999999999999999
F0.020044543429844099
sF0.46999999999999997
F0.011135857461024499
sF0.040000000000000001
F0.0066815144766146995
sF0.57999999999999996
F0.0089086859688195987
sF0.34000000000000002
F0.0044543429844097994
sF0.34999999999999998
F0.013363028953229399
sF0.69999999999999996
F0.0089086859688195987
sF0.66000000000000003
F0.0022271714922048997
sF0.70999999999999996
F0.0066815144766146995
sF0.81000000000000005
F0.0089086859688195987
sF0.87
F0.0089086859688195987
sF0.17999999999999999
F0.0089086859688195987
sF0.54000000000000004
F0.0022271714922048997
sF0.16
F0.015590200445434299
sF0.029999999999999999
F0.0044543429844097994
sF0.47999999999999998
F0.0089086859688195987
sF0.82999999999999996
F0.0022271714922048997
sF0.60999999999999999
F0.022271714922048998
sF0.72999999999999998
F0.0044543429844097994
sF0.88
F0.0066815144766146995
sF0.90000000000000002
F0.0066815144766146995
sF0.79000000000000004
F0.011135857461024499
sF0.37
F0.0089086859688195987
sF0.20000000000000001
F0.011135857461024499
ssS'tt'
p23
(dp24
F0.68999999999999995
F0.027777777777777776
sF0.63
F0.027777777777777776
sF0.48999999999999999
F0.055555555555555552
sF0.40999999999999998
F0.027777777777777776
sF0.69999999999999996
F0.027777777777777776
sF0.83999999999999997
F0.027777777777777776
sF0.89000000000000001
F0.1111111111111111
sF0.46999999999999997
F0.027777777777777776
sF0.13
F0.027777777777777776
sF0.33000000000000002
F0.027777777777777776
sF0.47999999999999998
F0.027777777777777776
sF0.65000000000000002
F0.027777777777777776
sF0.32000000000000001
F0.027777777777777776
sF0.41999999999999998
F0.027777777777777776
sF0.44
F0.027777777777777776
sF0.31
F0.027777777777777776
sF0.91000000000000003
F0.027777777777777776
sF0.59999999999999998
F0.055555555555555552
sF0.84999999999999998
F0.055555555555555552
sF0.58999999999999997
F0.027777777777777776
sF0.72999999999999998
F0.027777777777777776
sF0.67000000000000004
F0.027777777777777776
sF0.16
F0.027777777777777776
sF0.40000000000000002
F0.027777777777777776
sF0.10000000000000001
F0.027777777777777776
sF0.37
F0.055555555555555552
sF0.68000000000000005
F0.055555555555555552
sF0.87
F0.027777777777777776
ssS'dp'
p25
(dp26
F0.25
F0.027777777777777776
sF0.5
F0.018518518518518517
sF0.29999999999999999
F0.037037037037037035
sF0.46999999999999997
F0.018518518518518517
sF0.75
F0.0092592592592592587
sF0.44
F0.018518518518518517
sF0.60999999999999999
F0.0092592592592592587
sF0.35999999999999999
F0.046296296296296294
sF0.40999999999999998
F0.027777777777777776
sF0.089999999999999997
F0.0092592592592592587
sF0.19
F0.018518518518518517
sF0.47999999999999998
F0.0092592592592592587
sF0.85999999999999999
F0.0092592592592592587
sF0.20999999999999999
F0.0092592592592592587
sF0.28000000000000003
F0.0092592592592592587
sF0.16
F0.018518518518518517
sF0.17000000000000001
F0.018518518518518517
sF0.28999999999999998
F0.027777777777777776
sF0.059999999999999998
F0.0092592592592592587
sF0.26000000000000001
F0.018518518518518517
sF0.67000000000000004
F0.0092592592592592587
sF0.12
F0.0092592592592592587
sF0.23999999999999999
F0.018518518518518517
sF0.45000000000000001
F0.055555555555555552
sF0.32000000000000001
F0.027777777777777776
sF0.56000000000000005
F0.027777777777777776
sF0.58999999999999997
F0.018518518518518517
sF0.22
F0.018518518518518517
sF0.62
F0.0092592592592592587
sF0.65000000000000002
F0.0092592592592592587
sF0.17999999999999999
F0.027777777777777776
sF0.27000000000000002
F0.0092592592592592587
sF0.33000000000000002
F0.037037037037037035
sF0.14999999999999999
F0.0092592592592592587
sF0.59999999999999998
F0.018518518518518517
sF0.40000000000000002
F0.018518518518518517
sF0.83999999999999997
F0.018518518518518517
sF0.57999999999999996
F0.0092592592592592587
sF0.48999999999999999
F0.027777777777777776
sF0.46000000000000002
F0.027777777777777776
sF0.070000000000000007
F0.037037037037037035
sF0.42999999999999999
F0.037037037037037035
sF0.080000000000000002
F0.018518518518518517
sF0.20000000000000001
F0.018518518518518517
sF0.10000000000000001
F0.0092592592592592587
sF0.79000000000000004
F0.0092592592592592587
sF0.02
F0.0092592592592592587
sF0.73999999999999999
F0.0092592592592592587
sF0.63
F0.0092592592592592587
sF0.53000000000000003
F0.0092592592592592587
sF0.34000000000000002
F0.0092592592592592587
sF0.31
F0.0092592592592592587
sF0.38
F0.018518518518518517
sF0.14000000000000001
F0.018518518518518517
ss.