(dp0
S'multi3'
p1
(dp2
F0.28999999999999998
F0.2857142857142857
sF0.20000000000000001
F0.14285714285714285
sF0.050000000000000003
F0.14285714285714285
sF0.059999999999999998
F0.14285714285714285
sF0.27000000000000002
F0.14285714285714285
sF0.14000000000000001
F0.14285714285714285
ssS'multi2'
p3
(dp4
F0.59999999999999998
F0.017857142857142856
sF0.46999999999999997
F0.035714285714285712
sF0.63
F0.017857142857142856
sF0.48999999999999999
F0.017857142857142856
sF0.11
F0.017857142857142856
sF0.40999999999999998
F0.017857142857142856
sF0.12
F0.017857142857142856
sF0.19
F0.035714285714285712
sF0.47999999999999998
F0.017857142857142856
sF0.83999999999999997
F0.017857142857142856
sF0.040000000000000001
F0.035714285714285712
sF0.70999999999999996
F0.017857142857142856
sF0.13
F0.017857142857142856
sF0.029999999999999999
F0.017857142857142856
sF0.45000000000000001
F0.035714285714285712
sF0.32000000000000001
F0.017857142857142856
sF0.41999999999999998
F0.035714285714285712
sF0.78000000000000003
F0.017857142857142856
sF0.58999999999999997
F0.035714285714285712
sF0.35999999999999999
F0.035714285714285712
sF0.60999999999999999
F0.035714285714285712
sF0.14999999999999999
F0.053571428571428568
sF0.29999999999999999
F0.017857142857142856
sF0.44
F0.017857142857142856
sF0.20999999999999999
F0.017857142857142856
sF0.72999999999999998
F0.017857142857142856
sF0.46000000000000002
F0.035714285714285712
sF0.42999999999999999
F0.017857142857142856
sF0.64000000000000001
F0.017857142857142856
sF0.050000000000000003
F0.017857142857142856
sF0.20000000000000001
F0.035714285714285712
sF0.54000000000000004
F0.017857142857142856
sF0.73999999999999999
F0.017857142857142856
sF0.39000000000000001
F0.035714285714285712
sF0.34000000000000002
F0.017857142857142856
sF0.059999999999999998
F0.017857142857142856
sF0.62
F0.035714285714285712
sF0.51000000000000001
F0.053571428571428568
sF0.070000000000000007
F0.035714285714285712
ssS'multi'
p5
(dp6
F0.59999999999999998
F0.015384615384615385
sF0.46999999999999997
F0.030769230769230771
sF0.63
F0.015384615384615385
sF0.48999999999999999
F0.015384615384615385
sF0.11
F0.015384615384615385
sF0.40999999999999998
F0.015384615384615385
sF0.12
F0.015384615384615385
sF0.19
F0.030769230769230771
sF0.47999999999999998
F0.015384615384615385
sF0.83999999999999997
F0.015384615384615385
sF0.040000000000000001
F0.030769230769230771
sF0.28999999999999998
F0.030769230769230771
sF0.70999999999999996
F0.015384615384615385
sF0.13
F0.015384615384615385
sF0.029999999999999999
F0.015384615384615385
sF0.45000000000000001
F0.030769230769230771
sF0.32000000000000001
F0.015384615384615385
sF0.41999999999999998
F0.030769230769230771
sF0.78000000000000003
F0.015384615384615385
sF0.58999999999999997
F0.030769230769230771
sF0.35999999999999999
F0.030769230769230771
sF0.27000000000000002
F0.015384615384615385
sF0.60999999999999999
F0.030769230769230771
sF0.14999999999999999
F0.046153846153846156
sF0.29999999999999999
F0.015384615384615385
sF0.44
F0.015384615384615385
sF0.20999999999999999
F0.015384615384615385
sF0.72999999999999998
F0.015384615384615385
sF0.46000000000000002
F0.030769230769230771
sF0.14000000000000001
F0.030769230769230771
sF0.42999999999999999
F0.015384615384615385
sF0.64000000000000001
F0.015384615384615385
sF0.050000000000000003
F0.030769230769230771
sF0.20000000000000001
F0.046153846153846156
sF0.54000000000000004
F0.015384615384615385
sF0.02
F0.015384615384615385
sF0.73999999999999999
F0.015384615384615385
sF0.39000000000000001
F0.030769230769230771
sF0.34000000000000002
F0.015384615384615385
sF0.059999999999999998
F0.030769230769230771
sF0.62
F0.030769230769230771
sF0.51000000000000001
F0.046153846153846156
sF0.070000000000000007
F0.030769230769230771
ssS'multi5'
p7
(dp8
F0.02
F1.0
ssS'multi4'
p9
(dp10
F0.14000000000000001
F1.0
ssS'bn'
p11
(dp12
F0.5
F0.046511627906976744
sF1.0
F0.11627906976744186
sF0.44
F0.023255813953488372
sF0.17999999999999999
F0.023255813953488372
sF0.56999999999999995
F0.023255813953488372
sF0.38
F0.023255813953488372
sF0.47999999999999998
F0.023255813953488372
sF0.34999999999999998
F0.023255813953488372
sF0.20999999999999999
F0.023255813953488372
sF0.32000000000000001
F0.023255813953488372
sF0.28999999999999998
F0.023255813953488372
sF0.66000000000000003
F0.023255813953488372
sF0.12
F0.023255813953488372
sF0.45000000000000001
F0.023255813953488372
sF0.64000000000000001
F0.023255813953488372
sF0.58999999999999997
F0.046511627906976744
sF0.39000000000000001
F0.023255813953488372
sF0.31
F0.046511627906976744
sF0.35999999999999999
F0.046511627906976744
sF0.33000000000000002
F0.023255813953488372
sF0.59999999999999998
F0.046511627906976744
sF0.40000000000000002
F0.023255813953488372
sF0.41999999999999998
F0.093023255813953487
sF0.57999999999999996
F0.023255813953488372
sF0.60999999999999999
F0.046511627906976744
sF0.10000000000000001
F0.023255813953488372
sF0.55000000000000004
F0.023255813953488372
sF0.62
F0.046511627906976744
sF0.63
F0.023255813953488372
ssS'no'
p13
(dp14
F0.63
F0.071428571428571425
sF0.59999999999999998
F0.071428571428571425
sF0.56999999999999995
F0.071428571428571425
sF0.79000000000000004
F0.14285714285714285
sF0.65000000000000002
F0.071428571428571425
sF0.76000000000000001
F0.071428571428571425
sF0.58999999999999997
F0.071428571428571425
sF0.67000000000000004
F0.21428571428571427
sF0.78000000000000003
F0.21428571428571427
ssS'ap'
p15
(dp16
F0.75
F0.047619047619047616
sF0.5
F0.019047619047619049
sF0.29999999999999999
F0.0095238095238095247
sF0.68999999999999995
F0.038095238095238099
sF0.25
F0.0095238095238095247
sF0.10000000000000001
F0.0095238095238095247
sF0.63
F0.0095238095238095247
sF0.42999999999999999
F0.0095238095238095247
sF0.17999999999999999
F0.0095238095238095247
sF0.40999999999999998
F0.0095238095238095247
sF0.35999999999999999
F0.019047619047619049
sF0.76000000000000001
F0.0095238095238095247
sF0.059999999999999998
F0.0095238095238095247
sF0.69999999999999996
F0.038095238095238099
sF0.58999999999999997
F0.0095238095238095247
sF0.64000000000000001
F0.0095238095238095247
sF0.46999999999999997
F0.0095238095238095247
sF0.77000000000000002
F0.028571428571428571
sF0.82999999999999996
F0.028571428571428571
sF0.13
F0.0095238095238095247
sF0.67000000000000004
F0.0095238095238095247
sF0.33000000000000002
F0.0095238095238095247
sF0.56999999999999995
F0.0095238095238095247
sF0.70999999999999996
F0.019047619047619049
sF0.65000000000000002
F0.0095238095238095247
sF0.14000000000000001
F0.019047619047619049
sF0.83999999999999997
F0.066666666666666666
sF0.78000000000000003
F0.038095238095238099
sF0.71999999999999997
F0.028571428571428571
sF0.60999999999999999
F0.019047619047619049
sF0.14999999999999999
F0.019047619047619049
sF0.84999999999999998
F0.019047619047619049
sF0.55000000000000004
F0.0095238095238095247
sF0.79000000000000004
F0.019047619047619049
sF0.28999999999999998
F0.019047619047619049
sF0.72999999999999998
F0.019047619047619049
sF0.81999999999999995
F0.038095238095238099
sF0.23000000000000001
F0.0095238095238095247
sF0.81000000000000005
F0.019047619047619049
sF0.85999999999999999
F0.038095238095238099
sF0.16
F0.0095238095238095247
sF0.40000000000000002
F0.0095238095238095247
sF0.80000000000000004
F0.028571428571428571
sF0.54000000000000004
F0.028571428571428571
sF0.73999999999999999
F0.0095238095238095247
sF0.19
F0.0095238095238095247
sF0.53000000000000003
F0.0095238095238095247
sF0.34000000000000002
F0.019047619047619049
sF0.52000000000000002
F0.038095238095238099
sF0.20999999999999999
F0.0095238095238095247
sF0.31
F0.0095238095238095247
sF0.51000000000000001
F0.0095238095238095247
sF0.070000000000000007
F0.028571428571428571
ssS'single'
p17
(dp18
F0.5
F0.015384615384615385
sF1.0
F0.015384615384615385
sF0.75
F0.015384615384615385
sF0.89000000000000001
F0.0061538461538461538
sF0.38
F0.0092307692307692316
sF0.23999999999999999
F0.0061538461538461538
sF0.12
F0.0061538461538461538
sF0.52000000000000002
F0.015384615384615385
sF0.67000000000000004
F0.012307692307692308
sF0.53000000000000003
F0.0030769230769230769
sF0.54000000000000004
F0.012307692307692308
sF0.46000000000000002
F0.0092307692307692316
sF0.59999999999999998
F0.015384615384615385
sF0.40000000000000002
F0.0092307692307692316
sF0.80000000000000004
F0.015384615384615385
sF0.55000000000000004
F0.0061538461538461538
sF0.90000000000000002
F0.018461538461538463
sF0.70999999999999996
F0.0092307692307692316
sF0.76000000000000001
F0.012307692307692308
sF0.28000000000000003
F0.0030769230769230769
sF0.19
F0.0030769230769230769
sF0.85999999999999999
F0.015384615384615385
sF0.089999999999999997
F0.0030769230769230769
sF0.56999999999999995
F0.012307692307692308
sF0.58999999999999997
F0.012307692307692308
sF0.93000000000000005
F0.040000000000000001
sF0.28999999999999998
F0.015384615384615385
sF0.81999999999999995
F0.015384615384615385
sF0.64000000000000001
F0.0092307692307692316
sF0.20999999999999999
F0.0092307692307692316
sF0.14000000000000001
F0.012307692307692308
sF0.84999999999999998
F0.012307692307692308
sF0.29999999999999999
F0.0061538461538461538
sF0.10000000000000001
F0.015384615384615385
sF0.070000000000000007
F0.0092307692307692316
sF0.42999999999999999
F0.012307692307692308
sF0.51000000000000001
F0.0061538461538461538
sF0.77000000000000002
F0.0092307692307692316
sF0.35999999999999999
F0.012307692307692308
sF0.31
F0.018461538461538463
sF0.81000000000000005
F0.018461538461538463
sF0.44
F0.0030769230769230769
sF0.48999999999999999
F0.012307692307692308
sF0.11
F0.0030769230769230769
sF0.71999999999999997
F0.0092307692307692316
sF0.92000000000000004
F0.018461538461538463
sF0.13
F0.012307692307692308
sF0.32000000000000001
F0.0092307692307692316
sF0.68999999999999995
F0.012307692307692308
sF0.22
F0.0061538461538461538
sF0.45000000000000001
F0.0061538461538461538
sF0.26000000000000001
F0.0030769230769230769
sF0.65000000000000002
F0.0061538461538461538
sF0.66000000000000003
F0.012307692307692308
sF0.91000000000000003
F0.0092307692307692316
sF0.78000000000000003
F0.024615384615384615
sF0.40999999999999998
F0.0030769230769230769
sF0.23000000000000001
F0.0092307692307692316
sF0.16
F0.0030769230769230769
sF0.88
F0.015384615384615385
sF0.39000000000000001
F0.0092307692307692316
sF0.34000000000000002
F0.0092307692307692316
sF0.62
F0.012307692307692308
sF0.17000000000000001
F0.0030769230769230769
sF0.37
F0.0061538461538461538
sF0.14999999999999999
F0.0092307692307692316
sF0.46999999999999997
F0.012307692307692308
sF0.82999999999999996
F0.024615384615384615
sF0.34999999999999998
F0.012307692307692308
sF0.69999999999999996
F0.015384615384615385
sF0.41999999999999998
F0.027692307692307693
sF0.33000000000000002
F0.0092307692307692316
sF0.47999999999999998
F0.024615384615384615
sF0.56000000000000005
F0.015384615384615385
sF0.87
F0.0092307692307692316
sF0.83999999999999997
F0.030769230769230771
sF0.17999999999999999
F0.0061538461538461538
sF0.27000000000000002
F0.0061538461538461538
sF0.57999999999999996
F0.012307692307692308
sF0.60999999999999999
F0.015384615384615385
sF0.72999999999999998
F0.0061538461538461538
sF0.63
F0.021538461538461538
sF0.79000000000000004
F0.018461538461538463
sF0.050000000000000003
F0.0092307692307692316
sF0.73999999999999999
F0.0030769230769230769
sF0.059999999999999998
F0.0030769230769230769
sF0.20000000000000001
F0.0030769230769230769
sF0.25
F0.0030769230769230769
ssS'yes'
p19
(dp20
F0.85999999999999999
F0.033333333333333333
sF0.82999999999999996
F0.033333333333333333
sF0.91000000000000003
F0.10000000000000001
sF0.88
F0.033333333333333333
sF0.84999999999999998
F0.033333333333333333
sF0.93000000000000005
F0.40000000000000002
sF0.90000000000000002
F0.13333333333333333
sF0.87
F0.033333333333333333
sF0.81000000000000005
F0.033333333333333333
sF0.92000000000000004
F0.13333333333333333
sF0.89000000000000001
F0.033333333333333333
ssS'total'
p21
(dp22
F0.5
F0.01282051282051282
sF1.0
F0.01282051282051282
sF0.75
F0.01282051282051282
sF0.89000000000000001
F0.0051282051282051282
sF0.38
F0.0076923076923076927
sF0.23999999999999999
F0.0051282051282051282
sF0.12
F0.0076923076923076927
sF0.52000000000000002
F0.01282051282051282
sF0.67000000000000004
F0.010256410256410256
sF0.53000000000000003
F0.0025641025641025641
sF0.54000000000000004
F0.01282051282051282
sF0.46000000000000002
F0.01282051282051282
sF0.59999999999999998
F0.015384615384615385
sF0.40000000000000002
F0.0076923076923076927
sF0.80000000000000004
F0.01282051282051282
sF0.55000000000000004
F0.0051282051282051282
sF0.90000000000000002
F0.015384615384615385
sF0.70999999999999996
F0.010256410256410256
sF0.76000000000000001
F0.010256410256410256
sF0.28000000000000003
F0.0025641025641025641
sF0.19
F0.0076923076923076927
sF0.85999999999999999
F0.01282051282051282
sF0.089999999999999997
F0.0025641025641025641
sF0.56999999999999995
F0.010256410256410256
sF0.58999999999999997
F0.015384615384615385
sF0.93000000000000005
F0.033333333333333333
sF0.28999999999999998
F0.017948717948717947
sF0.81999999999999995
F0.01282051282051282
sF0.64000000000000001
F0.010256410256410256
sF0.20999999999999999
F0.010256410256410256
sF0.14000000000000001
F0.015384615384615385
sF0.84999999999999998
F0.010256410256410256
sF0.29999999999999999
F0.0076923076923076927
sF0.10000000000000001
F0.01282051282051282
sF0.070000000000000007
F0.01282051282051282
sF0.42999999999999999
F0.01282051282051282
sF0.51000000000000001
F0.01282051282051282
sF0.77000000000000002
F0.0076923076923076927
sF0.35999999999999999
F0.015384615384615385
sF0.31
F0.015384615384615385
sF0.81000000000000005
F0.015384615384615385
sF0.44
F0.0051282051282051282
sF0.48999999999999999
F0.01282051282051282
sF0.11
F0.0051282051282051282
sF0.71999999999999997
F0.0076923076923076927
sF0.92000000000000004
F0.015384615384615385
sF0.13
F0.01282051282051282
sF0.32000000000000001
F0.010256410256410256
sF0.68999999999999995
F0.010256410256410256
sF0.22
F0.0051282051282051282
sF0.45000000000000001
F0.010256410256410256
sF0.26000000000000001
F0.0025641025641025641
sF0.65000000000000002
F0.0051282051282051282
sF0.66000000000000003
F0.010256410256410256
sF0.91000000000000003
F0.0076923076923076927
sF0.78000000000000003
F0.023076923076923078
sF0.40999999999999998
F0.0051282051282051282
sF0.23000000000000001
F0.0076923076923076927
sF0.16
F0.0025641025641025641
sF0.02
F0.0025641025641025641
sF0.88
F0.01282051282051282
sF0.39000000000000001
F0.01282051282051282
sF0.34000000000000002
F0.010256410256410256
sF0.62
F0.015384615384615385
sF0.17000000000000001
F0.0025641025641025641
sF0.37
F0.0051282051282051282
sF0.14999999999999999
F0.015384615384615385
sF0.46999999999999997
F0.015384615384615385
sF0.040000000000000001
F0.0051282051282051282
sF0.82999999999999996
F0.020512820512820513
sF0.34999999999999998
F0.010256410256410256
sF0.69999999999999996
F0.01282051282051282
sF0.41999999999999998
F0.028205128205128206
sF0.33000000000000002
F0.0076923076923076927
sF0.47999999999999998
F0.023076923076923078
sF0.56000000000000005
F0.01282051282051282
sF0.87
F0.0076923076923076927
sF0.83999999999999997
F0.028205128205128206
sF0.17999999999999999
F0.0051282051282051282
sF0.27000000000000002
F0.0076923076923076927
sF0.029999999999999999
F0.0025641025641025641
sF0.57999999999999996
F0.010256410256410256
sF0.60999999999999999
F0.017948717948717947
sF0.72999999999999998
F0.0076923076923076927
sF0.63
F0.020512820512820513
sF0.79000000000000004
F0.015384615384615385
sF0.050000000000000003
F0.01282051282051282
sF0.73999999999999999
F0.0051282051282051282
sF0.059999999999999998
F0.0076923076923076927
sF0.20000000000000001
F0.010256410256410256
sF0.25
F0.0025641025641025641
ssS'tt'
p23
(dp24
F0.88
F0.086956521739130432
sF0.81999999999999995
F0.021739130434782608
sF0.76000000000000001
F0.043478260869565216
sF0.47999999999999998
F0.021739130434782608
sF0.69999999999999996
F0.021739130434782608
sF0.89000000000000001
F0.021739130434782608
sF0.82999999999999996
F0.086956521739130432
sF0.26000000000000001
F0.021739130434782608
sF0.33000000000000002
F0.021739130434782608
sF0.70999999999999996
F0.021739130434782608
sF0.90000000000000002
F0.043478260869565216
sF0.83999999999999997
F0.043478260869565216
sF0.63
F0.043478260869565216
sF0.62
F0.021739130434782608
sF0.66000000000000003
F0.021739130434782608
sF0.84999999999999998
F0.021739130434782608
sF0.54000000000000004
F0.021739130434782608
sF0.92000000000000004
F0.043478260869565216
sF0.56000000000000005
F0.065217391304347824
sF0.80000000000000004
F0.043478260869565216
sF0.79000000000000004
F0.043478260869565216
sF0.78000000000000003
F0.021739130434782608
sF0.93000000000000005
F0.021739130434782608
sF0.52000000000000002
F0.021739130434782608
sF0.87
F0.043478260869565216
sF0.38
F0.043478260869565216
sF0.81000000000000005
F0.065217391304347824
ssS'dp'
p25
(dp26
F0.5
F0.011494252873563218
sF0.59999999999999998
F0.022988505747126436
sF0.46999999999999997
F0.034482758620689655
sF0.22
F0.022988505747126436
sF0.11
F0.011494252873563218
sF0.56999999999999995
F0.011494252873563218
sF0.51000000000000001
F0.011494252873563218
sF0.23999999999999999
F0.022988505747126436
sF0.34999999999999998
F0.034482758620689655
sF0.20999999999999999
F0.011494252873563218
sF0.32000000000000001
F0.022988505747126436
sF0.34000000000000002
F0.011494252873563218
sF0.57999999999999996
F0.034482758620689655
sF0.12
F0.011494252873563218
sF0.13
F0.034482758620689655
sF0.46000000000000002
F0.034482758620689655
sF0.66000000000000003
F0.022988505747126436
sF0.47999999999999998
F0.068965517241379309
sF0.45000000000000001
F0.011494252873563218
sF0.56000000000000005
F0.022988505747126436
sF0.41999999999999998
F0.057471264367816091
sF0.39000000000000001
F0.022988505747126436
sF0.62
F0.011494252873563218
sF0.83999999999999997
F0.011494252873563218
sF0.089999999999999997
F0.011494252873563218
sF0.42999999999999999
F0.034482758620689655
sF0.40000000000000002
F0.011494252873563218
sF0.29999999999999999
F0.011494252873563218
sF0.14999999999999999
F0.011494252873563218
sF0.20000000000000001
F0.011494252873563218
sF0.27000000000000002
F0.022988505747126436
sF0.28999999999999998
F0.022988505747126436
sF0.48999999999999999
F0.045977011494252873
sF0.23000000000000001
F0.022988505747126436
sF0.28000000000000003
F0.011494252873563218
sF0.60999999999999999
F0.011494252873563218
sF0.64000000000000001
F0.011494252873563218
sF0.10000000000000001
F0.034482758620689655
sF0.050000000000000003
F0.034482758620689655
sF0.37
F0.022988505747126436
sF0.63
F0.022988505747126436
sF0.17000000000000001
F0.011494252873563218
sF0.31
F0.034482758620689655
sF0.14000000000000001
F0.022988505747126436
ss.