(dp0
S'multi3'
p1
(lp2
F0.073300000000000004
aF0.26850000000000002
aF0.081430000000000002
asS'multi2'
p3
(lp4
F0.078240000000000004
aF0.25209999999999999
aF0.72775000000000001
aF0.16897999999999999
asS'multi5'
p5
(lp6
sS'multi4'
p7
(lp8
sS'bn'
p9
(lp10
F0.16303000000000001
asS'ap'
p11
(lp12
F0.62982000000000005
aF0.80010000000000003
aF0.85326999999999997
aF0.66700000000000004
aF0.60748999999999997
aF0.72306000000000004
aF0.71833000000000002
aF0.70853999999999995
aF0.33191999999999999
asS'single'
p13
(lp14
F0.16303000000000001
aF0.61506000000000005
aF0.44732
aF0.33257999999999999
aF0.41248000000000001
aF0.16389000000000001
aF0.070550000000000002
aF0.11444
aF0.022210000000000001
aF0.62982000000000005
aF0.80010000000000003
aF0.85326999999999997
aF0.66700000000000004
aF0.60748999999999997
aF0.72306000000000004
aF0.71833000000000002
aF0.70853999999999995
aF0.33191999999999999
aF0.49353000000000002
aF0.82809999999999995
aF0.93876999999999999
aF0.66178999999999999
asS'yes'
p15
(lp16
F0.93876999999999999
aF0.66178999999999999
asS'total'
p17
(lp18
F0.16303000000000001
aF0.61506000000000005
aF0.44732
aF0.33257999999999999
aF0.41248000000000001
aF0.16389000000000001
aF0.070550000000000002
aF0.11444
aF0.022210000000000001
aF0.62982000000000005
aF0.80010000000000003
aF0.85326999999999997
aF0.66700000000000004
aF0.60748999999999997
aF0.72306000000000004
aF0.71833000000000002
aF0.70853999999999995
aF0.33191999999999999
aF0.49353000000000002
aF0.82809999999999995
aF0.93876999999999999
aF0.66178999999999999
aF0.078240000000000004
aF0.25209999999999999
aF0.72775000000000001
aF0.16897999999999999
aF0.073300000000000004
aF0.26850000000000002
aF0.081430000000000002
asS'dp'
p19
(lp20
F0.61506000000000005
aF0.44732
aF0.33257999999999999
aF0.41248000000000001
aF0.16389000000000001
aF0.070550000000000002
aF0.11444
aF0.022210000000000001
asS'multi'
p21
(lp22
F0.078240000000000004
aF0.25209999999999999
aF0.72775000000000001
aF0.16897999999999999
aF0.073300000000000004
aF0.26850000000000002
aF0.081430000000000002
asS'no'
p23
(lp24
sS'tt'
p25
(lp26
F0.49353000000000002
aF0.82809999999999995
as.