(dp0
S'multi3'
p1
(dp2
F0.35999999999999999
F0.125
sF0.17999999999999999
F0.125
sF0.059999999999999998
F0.125
sF0.089999999999999997
F0.125
sF0.070000000000000007
F0.375
sF0.32000000000000001
F0.125
ssS'multi2'
p3
(dp4
F0.0
F0.052631578947368418
sF0.089999999999999997
F0.052631578947368418
sF0.050000000000000003
F0.10526315789473684
sF0.40000000000000002
F0.052631578947368418
sF0.33000000000000002
F0.052631578947368418
sF0.13
F0.052631578947368418
sF0.55000000000000004
F0.052631578947368418
sF0.059999999999999998
F0.052631578947368418
sF0.34000000000000002
F0.15789473684210525
sF0.27000000000000002
F0.052631578947368418
sF0.47999999999999998
F0.052631578947368418
sF0.040000000000000001
F0.052631578947368418
sF0.20999999999999999
F0.052631578947368418
sF0.34999999999999998
F0.052631578947368418
sF0.02
F0.052631578947368418
sF0.46999999999999997
F0.052631578947368418
ssS'multi'
p5
(dp6
F0.0
F0.035714285714285712
sF0.089999999999999997
F0.071428571428571425
sF0.35999999999999999
F0.035714285714285712
sF0.050000000000000003
F0.10714285714285714
sF0.40000000000000002
F0.035714285714285712
sF0.33000000000000002
F0.035714285714285712
sF0.13
F0.035714285714285712
sF0.32000000000000001
F0.035714285714285712
sF0.55000000000000004
F0.035714285714285712
sF0.059999999999999998
F0.071428571428571425
sF0.34000000000000002
F0.10714285714285714
sF0.27000000000000002
F0.035714285714285712
sF0.47999999999999998
F0.035714285714285712
sF0.17999999999999999
F0.035714285714285712
sF0.040000000000000001
F0.035714285714285712
sF0.20999999999999999
F0.035714285714285712
sF0.34999999999999998
F0.035714285714285712
sF0.070000000000000007
F0.10714285714285714
sF0.02
F0.035714285714285712
sF0.46999999999999997
F0.035714285714285712
ssS'multi5'
p7
(dp8
sS'multi4'
p9
(dp10
F0.050000000000000003
F1.0
ssS'bn'
p11
(dp12
F0.5
F0.041666666666666664
sF1.0
F0.125
sF0.46999999999999997
F0.041666666666666664
sF0.55000000000000004
F0.041666666666666664
sF0.33000000000000002
F0.083333333333333329
sF0.26000000000000001
F0.041666666666666664
sF0.22
F0.041666666666666664
sF0.44
F0.041666666666666664
sF0.23999999999999999
F0.041666666666666664
sF0.40999999999999998
F0.041666666666666664
sF0.34000000000000002
F0.041666666666666664
sF0.54000000000000004
F0.041666666666666664
sF0.38
F0.041666666666666664
sF0.31
F0.041666666666666664
sF0.20999999999999999
F0.041666666666666664
sF0.34999999999999998
F0.041666666666666664
sF0.56000000000000005
F0.041666666666666664
sF0.58999999999999997
F0.041666666666666664
sF0.46000000000000002
F0.083333333333333329
sF0.53000000000000003
F0.041666666666666664
ssS'no'
p13
(dp14
F0.5
F0.125
sF0.75
F0.125
sF0.55000000000000004
F0.125
sF0.73999999999999999
F0.375
sF0.72999999999999998
F0.125
sF0.69999999999999996
F0.125
ssS'ap'
p15
(dp16
F0.75
F0.034482758620689655
sF0.25
F0.068965517241379309
sF0.44
F0.034482758620689655
sF0.81999999999999995
F0.068965517241379309
sF0.76000000000000001
F0.068965517241379309
sF0.69999999999999996
F0.068965517241379309
sF0.58999999999999997
F0.034482758620689655
sF0.82999999999999996
F0.034482758620689655
sF0.67000000000000004
F0.034482758620689655
sF0.83999999999999997
F0.034482758620689655
sF0.78000000000000003
F0.034482758620689655
sF0.089999999999999997
F0.034482758620689655
sF0.29999999999999999
F0.034482758620689655
sF0.27000000000000002
F0.034482758620689655
sF0.46000000000000002
F0.068965517241379309
sF0.85999999999999999
F0.10344827586206896
sF0.050000000000000003
F0.034482758620689655
sF0.80000000000000004
F0.034482758620689655
sF0.54000000000000004
F0.034482758620689655
sF0.68000000000000005
F0.034482758620689655
sF0.38
F0.034482758620689655
sF0.22
F0.034482758620689655
ssS'single'
p17
(dp18
F0.5
F0.017699115044247787
sF1.0
F0.026548672566371681
sF0.73999999999999999
F0.026548672566371681
sF0.46999999999999997
F0.017699115044247787
sF0.75
F0.017699115044247787
sF0.22
F0.017699115044247787
sF0.11
F0.0088495575221238937
sF0.40999999999999998
F0.0088495575221238937
sF0.38
F0.026548672566371681
sF0.059999999999999998
F0.017699115044247787
sF0.69999999999999996
F0.026548672566371681
sF0.34999999999999998
F0.0088495575221238937
sF0.58999999999999997
F0.017699115044247787
sF0.28000000000000003
F0.0088495575221238937
sF0.78000000000000003
F0.0088495575221238937
sF0.64000000000000001
F0.017699115044247787
sF0.41999999999999998
F0.0088495575221238937
sF0.68000000000000005
F0.0088495575221238937
sF0.82999999999999996
F0.017699115044247787
sF0.47999999999999998
F0.017699115044247787
sF0.26000000000000001
F0.0088495575221238937
sF0.23000000000000001
F0.0088495575221238937
sF0.66000000000000003
F0.0088495575221238937
sF0.23999999999999999
F0.0088495575221238937
sF0.65000000000000002
F0.0088495575221238937
sF0.070000000000000007
F0.017699115044247787
sF0.20999999999999999
F0.0088495575221238937
sF0.44
F0.035398230088495575
sF0.83999999999999997
F0.0088495575221238937
sF0.93000000000000005
F0.0088495575221238937
sF0.089999999999999997
F0.017699115044247787
sF0.33000000000000002
F0.026548672566371681
sF0.29999999999999999
F0.035398230088495575
sF0.14999999999999999
F0.0088495575221238937
sF0.10000000000000001
F0.035398230088495575
sF0.029999999999999999
F0.0088495575221238937
sF0.54000000000000004
F0.017699115044247787
sF0.91000000000000003
F0.017699115044247787
sF0.72999999999999998
F0.0088495575221238937
sF0.67000000000000004
F0.0088495575221238937
sF0.81999999999999995
F0.017699115044247787
sF0.46000000000000002
F0.053097345132743362
sF0.56000000000000005
F0.0088495575221238937
sF0.85999999999999999
F0.035398230088495575
sF0.01
F0.0088495575221238937
sF0.92000000000000004
F0.017699115044247787
sF0.050000000000000003
F0.044247787610619468
sF0.55000000000000004
F0.044247787610619468
sF0.27000000000000002
F0.0088495575221238937
sF0.80000000000000004
F0.0088495575221238937
sF0.90000000000000002
F0.0088495575221238937
sF0.37
F0.0088495575221238937
sF0.88
F0.017699115044247787
sF0.53000000000000003
F0.0088495575221238937
sF0.34000000000000002
F0.0088495575221238937
sF0.31
F0.017699115044247787
sF0.76000000000000001
F0.017699115044247787
sF0.14000000000000001
F0.0088495575221238937
sF0.25
F0.017699115044247787
ssS'yes'
p19
(dp20
F0.93000000000000005
F0.14285714285714285
sF0.88
F0.14285714285714285
sF0.90000000000000002
F0.14285714285714285
sF0.92000000000000004
F0.2857142857142857
sF0.91000000000000003
F0.2857142857142857
ssS'total'
p21
(dp22
F0.5
F0.014184397163120567
sF1.0
F0.021276595744680851
sF0.73999999999999999
F0.021276595744680851
sF0.32000000000000001
F0.0070921985815602835
sF0.46999999999999997
F0.021276595744680851
sF0.75
F0.014184397163120567
sF0.040000000000000001
F0.0070921985815602835
sF0.22
F0.014184397163120567
sF0.11
F0.0070921985815602835
sF0.40999999999999998
F0.0070921985815602835
sF0.17999999999999999
F0.0070921985815602835
sF0.38
F0.021276595744680851
sF0.059999999999999998
F0.028368794326241134
sF0.69999999999999996
F0.021276595744680851
sF0.34999999999999998
F0.014184397163120567
sF0.58999999999999997
F0.014184397163120567
sF0.28000000000000003
F0.0070921985815602835
sF0.78000000000000003
F0.0070921985815602835
sF0.64000000000000001
F0.014184397163120567
sF0.0
F0.0070921985815602835
sF0.41999999999999998
F0.0070921985815602835
sF0.68000000000000005
F0.0070921985815602835
sF0.82999999999999996
F0.014184397163120567
sF0.47999999999999998
F0.021276595744680851
sF0.26000000000000001
F0.0070921985815602835
sF0.23000000000000001
F0.0070921985815602835
sF0.66000000000000003
F0.0070921985815602835
sF0.23999999999999999
F0.0070921985815602835
sF0.02
F0.0070921985815602835
sF0.65000000000000002
F0.0070921985815602835
sF0.070000000000000007
F0.035460992907801421
sF0.20999999999999999
F0.014184397163120567
sF0.44
F0.028368794326241134
sF0.83999999999999997
F0.0070921985815602835
sF0.93000000000000005
F0.0070921985815602835
sF0.089999999999999997
F0.028368794326241134
sF0.33000000000000002
F0.028368794326241134
sF0.40000000000000002
F0.0070921985815602835
sF0.29999999999999999
F0.028368794326241134
sF0.14999999999999999
F0.0070921985815602835
sF0.10000000000000001
F0.028368794326241134
sF0.029999999999999999
F0.0070921985815602835
sF0.54000000000000004
F0.014184397163120567
sF0.91000000000000003
F0.014184397163120567
sF0.72999999999999998
F0.0070921985815602835
sF0.67000000000000004
F0.0070921985815602835
sF0.81999999999999995
F0.014184397163120567
sF0.46000000000000002
F0.042553191489361701
sF0.56000000000000005
F0.0070921985815602835
sF0.85999999999999999
F0.028368794326241134
sF0.01
F0.0070921985815602835
sF0.92000000000000004
F0.014184397163120567
sF0.050000000000000003
F0.056737588652482268
sF0.55000000000000004
F0.042553191489361701
sF0.27000000000000002
F0.014184397163120567
sF0.80000000000000004
F0.0070921985815602835
sF0.90000000000000002
F0.0070921985815602835
sF0.37
F0.0070921985815602835
sF0.88
F0.014184397163120567
sF0.53000000000000003
F0.0070921985815602835
sF0.34000000000000002
F0.028368794326241134
sF0.13
F0.0070921985815602835
sF0.35999999999999999
F0.0070921985815602835
sF0.31
F0.014184397163120567
sF0.76000000000000001
F0.014184397163120567
sF0.14000000000000001
F0.0070921985815602835
sF0.25
F0.014184397163120567
ssS'tt'
p23
(dp24
F0.85999999999999999
F0.125
sF0.55000000000000004
F0.25
sF0.10000000000000001
F0.125
sF0.44
F0.125
sF0.059999999999999998
F0.125
sF0.41999999999999998
F0.125
sF0.88
F0.125
ssS'dp'
p25
(dp26
F0.46999999999999997
F0.027027027027027029
sF0.44
F0.027027027027027029
sF0.38
F0.027027027027027029
sF0.47999999999999998
F0.054054054054054057
sF0.28000000000000003
F0.027027027027027029
sF0.01
F0.027027027027027029
sF0.82999999999999996
F0.027027027027027029
sF0.029999999999999999
F0.027027027027027029
sF0.23000000000000001
F0.027027027027027029
sF0.66000000000000003
F0.027027027027027029
sF0.059999999999999998
F0.027027027027027029
sF0.65000000000000002
F0.027027027027027029
sF0.64000000000000001
F0.054054054054054057
sF0.11
F0.027027027027027029
sF0.089999999999999997
F0.027027027027027029
sF0.33000000000000002
F0.027027027027027029
sF0.14999999999999999
F0.027027027027027029
sF0.29999999999999999
F0.081081081081081086
sF0.10000000000000001
F0.081081081081081086
sF0.46000000000000002
F0.054054054054054057
sF0.070000000000000007
F0.054054054054054057
sF0.050000000000000003
F0.10810810810810811
sF0.55000000000000004
F0.027027027027027029
sF0.37
F0.027027027027027029
sF0.31
F0.027027027027027029
sF0.14000000000000001
F0.027027027027027029
ss.